
RC_CONTORLER_V1.elf:     file format elf32-littlearm

Sections:
Idx Name          Size      VMA       LMA       File off  Algn
  0 .isr_vector   000001e4  08000000  08000000  00010000  2**0
                  CONTENTS, ALLOC, LOAD, READONLY, DATA
  1 .text         00006950  080001e8  080001e8  000101e8  2**3
                  CONTENTS, ALLOC, LOAD, READONLY, CODE
  2 .rodata       000011a8  08006b38  08006b38  00016b38  2**2
                  CONTENTS, ALLOC, LOAD, READONLY, DATA
  3 .init_array   00000004  08007ce0  08007ce0  00017ce0  2**2
                  CONTENTS, ALLOC, LOAD, DATA
  4 .fini_array   00000004  08007ce4  08007ce4  00017ce4  2**2
                  CONTENTS, ALLOC, LOAD, DATA
  5 .data         00000088  20000000  08007ce8  00020000  2**3
                  CONTENTS, ALLOC, LOAD, DATA
  6 .bss          0000084c  20000088  08007d70  00020088  2**2
                  ALLOC
  7 ._user_heap_stack 00000600  200008d4  08007d70  000208d4  2**0
                  ALLOC
  8 .ARM.attributes 00000029  00000000  00000000  00020088  2**0
                  CONTENTS, READONLY
  9 .debug_info   00020cad  00000000  00000000  000200b1  2**0
                  CONTENTS, READONLY, DEBUGGING
 10 .debug_abbrev 00003f9c  00000000  00000000  00040d5e  2**0
                  CONTENTS, READONLY, DEBUGGING
 11 .debug_loc    0000e4aa  00000000  00000000  00044cfa  2**0
                  CONTENTS, READONLY, DEBUGGING
 12 .debug_aranges 00001220  00000000  00000000  000531a8  2**3
                  CONTENTS, READONLY, DEBUGGING
 13 .debug_ranges 000019b8  00000000  00000000  000543c8  2**3
                  CONTENTS, READONLY, DEBUGGING
 14 .debug_line   0000a82f  00000000  00000000  00055d80  2**0
                  CONTENTS, READONLY, DEBUGGING
 15 .debug_str    000064f0  00000000  00000000  000605af  2**0
                  CONTENTS, READONLY, DEBUGGING
 16 .comment      0000007c  00000000  00000000  00066a9f  2**0
                  CONTENTS, READONLY
 17 .debug_frame  000043a8  00000000  00000000  00066b1c  2**2
                  CONTENTS, READONLY, DEBUGGING

Disassembly of section .text:

080001e8 <__do_global_dtors_aux>:
 80001e8:	b510      	push	{r4, lr}
 80001ea:	4c05      	ldr	r4, [pc, #20]	; (8000200 <__do_global_dtors_aux+0x18>)
 80001ec:	7823      	ldrb	r3, [r4, #0]
 80001ee:	b933      	cbnz	r3, 80001fe <__do_global_dtors_aux+0x16>
 80001f0:	4b04      	ldr	r3, [pc, #16]	; (8000204 <__do_global_dtors_aux+0x1c>)
 80001f2:	b113      	cbz	r3, 80001fa <__do_global_dtors_aux+0x12>
 80001f4:	4804      	ldr	r0, [pc, #16]	; (8000208 <__do_global_dtors_aux+0x20>)
 80001f6:	f3af 8000 	nop.w
 80001fa:	2301      	movs	r3, #1
 80001fc:	7023      	strb	r3, [r4, #0]
 80001fe:	bd10      	pop	{r4, pc}
 8000200:	20000088 	.word	0x20000088
 8000204:	00000000 	.word	0x00000000
 8000208:	08006b20 	.word	0x08006b20

0800020c <frame_dummy>:
 800020c:	b508      	push	{r3, lr}
 800020e:	4b03      	ldr	r3, [pc, #12]	; (800021c <frame_dummy+0x10>)
 8000210:	b11b      	cbz	r3, 800021a <frame_dummy+0xe>
 8000212:	4903      	ldr	r1, [pc, #12]	; (8000220 <frame_dummy+0x14>)
 8000214:	4803      	ldr	r0, [pc, #12]	; (8000224 <frame_dummy+0x18>)
 8000216:	f3af 8000 	nop.w
 800021a:	bd08      	pop	{r3, pc}
 800021c:	00000000 	.word	0x00000000
 8000220:	2000008c 	.word	0x2000008c
 8000224:	08006b20 	.word	0x08006b20

08000228 <strlen>:
 8000228:	4603      	mov	r3, r0
 800022a:	f813 2b01 	ldrb.w	r2, [r3], #1
 800022e:	2a00      	cmp	r2, #0
 8000230:	d1fb      	bne.n	800022a <strlen+0x2>
 8000232:	1a18      	subs	r0, r3, r0
 8000234:	3801      	subs	r0, #1
 8000236:	4770      	bx	lr

08000238 <__aeabi_drsub>:
 8000238:	f081 4100 	eor.w	r1, r1, #2147483648	; 0x80000000
 800023c:	e002      	b.n	8000244 <__adddf3>
 800023e:	bf00      	nop

08000240 <__aeabi_dsub>:
 8000240:	f083 4300 	eor.w	r3, r3, #2147483648	; 0x80000000

08000244 <__adddf3>:
 8000244:	b530      	push	{r4, r5, lr}
 8000246:	ea4f 0441 	mov.w	r4, r1, lsl #1
 800024a:	ea4f 0543 	mov.w	r5, r3, lsl #1
 800024e:	ea94 0f05 	teq	r4, r5
 8000252:	bf08      	it	eq
 8000254:	ea90 0f02 	teqeq	r0, r2
 8000258:	bf1f      	itttt	ne
 800025a:	ea54 0c00 	orrsne.w	ip, r4, r0
 800025e:	ea55 0c02 	orrsne.w	ip, r5, r2
 8000262:	ea7f 5c64 	mvnsne.w	ip, r4, asr #21
 8000266:	ea7f 5c65 	mvnsne.w	ip, r5, asr #21
 800026a:	f000 80e2 	beq.w	8000432 <__adddf3+0x1ee>
 800026e:	ea4f 5454 	mov.w	r4, r4, lsr #21
 8000272:	ebd4 5555 	rsbs	r5, r4, r5, lsr #21
 8000276:	bfb8      	it	lt
 8000278:	426d      	neglt	r5, r5
 800027a:	dd0c      	ble.n	8000296 <__adddf3+0x52>
 800027c:	442c      	add	r4, r5
 800027e:	ea80 0202 	eor.w	r2, r0, r2
 8000282:	ea81 0303 	eor.w	r3, r1, r3
 8000286:	ea82 0000 	eor.w	r0, r2, r0
 800028a:	ea83 0101 	eor.w	r1, r3, r1
 800028e:	ea80 0202 	eor.w	r2, r0, r2
 8000292:	ea81 0303 	eor.w	r3, r1, r3
 8000296:	2d36      	cmp	r5, #54	; 0x36
 8000298:	bf88      	it	hi
 800029a:	bd30      	pophi	{r4, r5, pc}
 800029c:	f011 4f00 	tst.w	r1, #2147483648	; 0x80000000
 80002a0:	ea4f 3101 	mov.w	r1, r1, lsl #12
 80002a4:	f44f 1c80 	mov.w	ip, #1048576	; 0x100000
 80002a8:	ea4c 3111 	orr.w	r1, ip, r1, lsr #12
 80002ac:	d002      	beq.n	80002b4 <__adddf3+0x70>
 80002ae:	4240      	negs	r0, r0
 80002b0:	eb61 0141 	sbc.w	r1, r1, r1, lsl #1
 80002b4:	f013 4f00 	tst.w	r3, #2147483648	; 0x80000000
 80002b8:	ea4f 3303 	mov.w	r3, r3, lsl #12
 80002bc:	ea4c 3313 	orr.w	r3, ip, r3, lsr #12
 80002c0:	d002      	beq.n	80002c8 <__adddf3+0x84>
 80002c2:	4252      	negs	r2, r2
 80002c4:	eb63 0343 	sbc.w	r3, r3, r3, lsl #1
 80002c8:	ea94 0f05 	teq	r4, r5
 80002cc:	f000 80a7 	beq.w	800041e <__adddf3+0x1da>
 80002d0:	f1a4 0401 	sub.w	r4, r4, #1
 80002d4:	f1d5 0e20 	rsbs	lr, r5, #32
 80002d8:	db0d      	blt.n	80002f6 <__adddf3+0xb2>
 80002da:	fa02 fc0e 	lsl.w	ip, r2, lr
 80002de:	fa22 f205 	lsr.w	r2, r2, r5
 80002e2:	1880      	adds	r0, r0, r2
 80002e4:	f141 0100 	adc.w	r1, r1, #0
 80002e8:	fa03 f20e 	lsl.w	r2, r3, lr
 80002ec:	1880      	adds	r0, r0, r2
 80002ee:	fa43 f305 	asr.w	r3, r3, r5
 80002f2:	4159      	adcs	r1, r3
 80002f4:	e00e      	b.n	8000314 <__adddf3+0xd0>
 80002f6:	f1a5 0520 	sub.w	r5, r5, #32
 80002fa:	f10e 0e20 	add.w	lr, lr, #32
 80002fe:	2a01      	cmp	r2, #1
 8000300:	fa03 fc0e 	lsl.w	ip, r3, lr
 8000304:	bf28      	it	cs
 8000306:	f04c 0c02 	orrcs.w	ip, ip, #2
 800030a:	fa43 f305 	asr.w	r3, r3, r5
 800030e:	18c0      	adds	r0, r0, r3
 8000310:	eb51 71e3 	adcs.w	r1, r1, r3, asr #31
 8000314:	f001 4500 	and.w	r5, r1, #2147483648	; 0x80000000
 8000318:	d507      	bpl.n	800032a <__adddf3+0xe6>
 800031a:	f04f 0e00 	mov.w	lr, #0
 800031e:	f1dc 0c00 	rsbs	ip, ip, #0
 8000322:	eb7e 0000 	sbcs.w	r0, lr, r0
 8000326:	eb6e 0101 	sbc.w	r1, lr, r1
 800032a:	f5b1 1f80 	cmp.w	r1, #1048576	; 0x100000
 800032e:	d31b      	bcc.n	8000368 <__adddf3+0x124>
 8000330:	f5b1 1f00 	cmp.w	r1, #2097152	; 0x200000
 8000334:	d30c      	bcc.n	8000350 <__adddf3+0x10c>
 8000336:	0849      	lsrs	r1, r1, #1
 8000338:	ea5f 0030 	movs.w	r0, r0, rrx
 800033c:	ea4f 0c3c 	mov.w	ip, ip, rrx
 8000340:	f104 0401 	add.w	r4, r4, #1
 8000344:	ea4f 5244 	mov.w	r2, r4, lsl #21
 8000348:	f512 0f80 	cmn.w	r2, #4194304	; 0x400000
 800034c:	f080 809a 	bcs.w	8000484 <__adddf3+0x240>
 8000350:	f1bc 4f00 	cmp.w	ip, #2147483648	; 0x80000000
 8000354:	bf08      	it	eq
 8000356:	ea5f 0c50 	movseq.w	ip, r0, lsr #1
 800035a:	f150 0000 	adcs.w	r0, r0, #0
 800035e:	eb41 5104 	adc.w	r1, r1, r4, lsl #20
 8000362:	ea41 0105 	orr.w	r1, r1, r5
 8000366:	bd30      	pop	{r4, r5, pc}
 8000368:	ea5f 0c4c 	movs.w	ip, ip, lsl #1
 800036c:	4140      	adcs	r0, r0
 800036e:	eb41 0101 	adc.w	r1, r1, r1
 8000372:	f411 1f80 	tst.w	r1, #1048576	; 0x100000
 8000376:	f1a4 0401 	sub.w	r4, r4, #1
 800037a:	d1e9      	bne.n	8000350 <__adddf3+0x10c>
 800037c:	f091 0f00 	teq	r1, #0
 8000380:	bf04      	itt	eq
 8000382:	4601      	moveq	r1, r0
 8000384:	2000      	moveq	r0, #0
 8000386:	fab1 f381 	clz	r3, r1
 800038a:	bf08      	it	eq
 800038c:	3320      	addeq	r3, #32
 800038e:	f1a3 030b 	sub.w	r3, r3, #11
 8000392:	f1b3 0220 	subs.w	r2, r3, #32
 8000396:	da0c      	bge.n	80003b2 <__adddf3+0x16e>
 8000398:	320c      	adds	r2, #12
 800039a:	dd08      	ble.n	80003ae <__adddf3+0x16a>
 800039c:	f102 0c14 	add.w	ip, r2, #20
 80003a0:	f1c2 020c 	rsb	r2, r2, #12
 80003a4:	fa01 f00c 	lsl.w	r0, r1, ip
 80003a8:	fa21 f102 	lsr.w	r1, r1, r2
 80003ac:	e00c      	b.n	80003c8 <__adddf3+0x184>
 80003ae:	f102 0214 	add.w	r2, r2, #20
 80003b2:	bfd8      	it	le
 80003b4:	f1c2 0c20 	rsble	ip, r2, #32
 80003b8:	fa01 f102 	lsl.w	r1, r1, r2
 80003bc:	fa20 fc0c 	lsr.w	ip, r0, ip
 80003c0:	bfdc      	itt	le
 80003c2:	ea41 010c 	orrle.w	r1, r1, ip
 80003c6:	4090      	lslle	r0, r2
 80003c8:	1ae4      	subs	r4, r4, r3
 80003ca:	bfa2      	ittt	ge
 80003cc:	eb01 5104 	addge.w	r1, r1, r4, lsl #20
 80003d0:	4329      	orrge	r1, r5
 80003d2:	bd30      	popge	{r4, r5, pc}
 80003d4:	ea6f 0404 	mvn.w	r4, r4
 80003d8:	3c1f      	subs	r4, #31
 80003da:	da1c      	bge.n	8000416 <__adddf3+0x1d2>
 80003dc:	340c      	adds	r4, #12
 80003de:	dc0e      	bgt.n	80003fe <__adddf3+0x1ba>
 80003e0:	f104 0414 	add.w	r4, r4, #20
 80003e4:	f1c4 0220 	rsb	r2, r4, #32
 80003e8:	fa20 f004 	lsr.w	r0, r0, r4
 80003ec:	fa01 f302 	lsl.w	r3, r1, r2
 80003f0:	ea40 0003 	orr.w	r0, r0, r3
 80003f4:	fa21 f304 	lsr.w	r3, r1, r4
 80003f8:	ea45 0103 	orr.w	r1, r5, r3
 80003fc:	bd30      	pop	{r4, r5, pc}
 80003fe:	f1c4 040c 	rsb	r4, r4, #12
 8000402:	f1c4 0220 	rsb	r2, r4, #32
 8000406:	fa20 f002 	lsr.w	r0, r0, r2
 800040a:	fa01 f304 	lsl.w	r3, r1, r4
 800040e:	ea40 0003 	orr.w	r0, r0, r3
 8000412:	4629      	mov	r1, r5
 8000414:	bd30      	pop	{r4, r5, pc}
 8000416:	fa21 f004 	lsr.w	r0, r1, r4
 800041a:	4629      	mov	r1, r5
 800041c:	bd30      	pop	{r4, r5, pc}
 800041e:	f094 0f00 	teq	r4, #0
 8000422:	f483 1380 	eor.w	r3, r3, #1048576	; 0x100000
 8000426:	bf06      	itte	eq
 8000428:	f481 1180 	eoreq.w	r1, r1, #1048576	; 0x100000
 800042c:	3401      	addeq	r4, #1
 800042e:	3d01      	subne	r5, #1
 8000430:	e74e      	b.n	80002d0 <__adddf3+0x8c>
 8000432:	ea7f 5c64 	mvns.w	ip, r4, asr #21
 8000436:	bf18      	it	ne
 8000438:	ea7f 5c65 	mvnsne.w	ip, r5, asr #21
 800043c:	d029      	beq.n	8000492 <__adddf3+0x24e>
 800043e:	ea94 0f05 	teq	r4, r5
 8000442:	bf08      	it	eq
 8000444:	ea90 0f02 	teqeq	r0, r2
 8000448:	d005      	beq.n	8000456 <__adddf3+0x212>
 800044a:	ea54 0c00 	orrs.w	ip, r4, r0
 800044e:	bf04      	itt	eq
 8000450:	4619      	moveq	r1, r3
 8000452:	4610      	moveq	r0, r2
 8000454:	bd30      	pop	{r4, r5, pc}
 8000456:	ea91 0f03 	teq	r1, r3
 800045a:	bf1e      	ittt	ne
 800045c:	2100      	movne	r1, #0
 800045e:	2000      	movne	r0, #0
 8000460:	bd30      	popne	{r4, r5, pc}
 8000462:	ea5f 5c54 	movs.w	ip, r4, lsr #21
 8000466:	d105      	bne.n	8000474 <__adddf3+0x230>
 8000468:	0040      	lsls	r0, r0, #1
 800046a:	4149      	adcs	r1, r1
 800046c:	bf28      	it	cs
 800046e:	f041 4100 	orrcs.w	r1, r1, #2147483648	; 0x80000000
 8000472:	bd30      	pop	{r4, r5, pc}
 8000474:	f514 0480 	adds.w	r4, r4, #4194304	; 0x400000
 8000478:	bf3c      	itt	cc
 800047a:	f501 1180 	addcc.w	r1, r1, #1048576	; 0x100000
 800047e:	bd30      	popcc	{r4, r5, pc}
 8000480:	f001 4500 	and.w	r5, r1, #2147483648	; 0x80000000
 8000484:	f045 41fe 	orr.w	r1, r5, #2130706432	; 0x7f000000
 8000488:	f441 0170 	orr.w	r1, r1, #15728640	; 0xf00000
 800048c:	f04f 0000 	mov.w	r0, #0
 8000490:	bd30      	pop	{r4, r5, pc}
 8000492:	ea7f 5c64 	mvns.w	ip, r4, asr #21
 8000496:	bf1a      	itte	ne
 8000498:	4619      	movne	r1, r3
 800049a:	4610      	movne	r0, r2
 800049c:	ea7f 5c65 	mvnseq.w	ip, r5, asr #21
 80004a0:	bf1c      	itt	ne
 80004a2:	460b      	movne	r3, r1
 80004a4:	4602      	movne	r2, r0
 80004a6:	ea50 3401 	orrs.w	r4, r0, r1, lsl #12
 80004aa:	bf06      	itte	eq
 80004ac:	ea52 3503 	orrseq.w	r5, r2, r3, lsl #12
 80004b0:	ea91 0f03 	teqeq	r1, r3
 80004b4:	f441 2100 	orrne.w	r1, r1, #524288	; 0x80000
 80004b8:	bd30      	pop	{r4, r5, pc}
 80004ba:	bf00      	nop

080004bc <__aeabi_ui2d>:
 80004bc:	f090 0f00 	teq	r0, #0
 80004c0:	bf04      	itt	eq
 80004c2:	2100      	moveq	r1, #0
 80004c4:	4770      	bxeq	lr
 80004c6:	b530      	push	{r4, r5, lr}
 80004c8:	f44f 6480 	mov.w	r4, #1024	; 0x400
 80004cc:	f104 0432 	add.w	r4, r4, #50	; 0x32
 80004d0:	f04f 0500 	mov.w	r5, #0
 80004d4:	f04f 0100 	mov.w	r1, #0
 80004d8:	e750      	b.n	800037c <__adddf3+0x138>
 80004da:	bf00      	nop

080004dc <__aeabi_i2d>:
 80004dc:	f090 0f00 	teq	r0, #0
 80004e0:	bf04      	itt	eq
 80004e2:	2100      	moveq	r1, #0
 80004e4:	4770      	bxeq	lr
 80004e6:	b530      	push	{r4, r5, lr}
 80004e8:	f44f 6480 	mov.w	r4, #1024	; 0x400
 80004ec:	f104 0432 	add.w	r4, r4, #50	; 0x32
 80004f0:	f010 4500 	ands.w	r5, r0, #2147483648	; 0x80000000
 80004f4:	bf48      	it	mi
 80004f6:	4240      	negmi	r0, r0
 80004f8:	f04f 0100 	mov.w	r1, #0
 80004fc:	e73e      	b.n	800037c <__adddf3+0x138>
 80004fe:	bf00      	nop

08000500 <__aeabi_f2d>:
 8000500:	0042      	lsls	r2, r0, #1
 8000502:	ea4f 01e2 	mov.w	r1, r2, asr #3
 8000506:	ea4f 0131 	mov.w	r1, r1, rrx
 800050a:	ea4f 7002 	mov.w	r0, r2, lsl #28
 800050e:	bf1f      	itttt	ne
 8000510:	f012 437f 	andsne.w	r3, r2, #4278190080	; 0xff000000
 8000514:	f093 4f7f 	teqne	r3, #4278190080	; 0xff000000
 8000518:	f081 5160 	eorne.w	r1, r1, #939524096	; 0x38000000
 800051c:	4770      	bxne	lr
 800051e:	f092 0f00 	teq	r2, #0
 8000522:	bf14      	ite	ne
 8000524:	f093 4f7f 	teqne	r3, #4278190080	; 0xff000000
 8000528:	4770      	bxeq	lr
 800052a:	b530      	push	{r4, r5, lr}
 800052c:	f44f 7460 	mov.w	r4, #896	; 0x380
 8000530:	f001 4500 	and.w	r5, r1, #2147483648	; 0x80000000
 8000534:	f021 4100 	bic.w	r1, r1, #2147483648	; 0x80000000
 8000538:	e720      	b.n	800037c <__adddf3+0x138>
 800053a:	bf00      	nop

0800053c <__aeabi_ul2d>:
 800053c:	ea50 0201 	orrs.w	r2, r0, r1
 8000540:	bf08      	it	eq
 8000542:	4770      	bxeq	lr
 8000544:	b530      	push	{r4, r5, lr}
 8000546:	f04f 0500 	mov.w	r5, #0
 800054a:	e00a      	b.n	8000562 <__aeabi_l2d+0x16>

0800054c <__aeabi_l2d>:
 800054c:	ea50 0201 	orrs.w	r2, r0, r1
 8000550:	bf08      	it	eq
 8000552:	4770      	bxeq	lr
 8000554:	b530      	push	{r4, r5, lr}
 8000556:	f011 4500 	ands.w	r5, r1, #2147483648	; 0x80000000
 800055a:	d502      	bpl.n	8000562 <__aeabi_l2d+0x16>
 800055c:	4240      	negs	r0, r0
 800055e:	eb61 0141 	sbc.w	r1, r1, r1, lsl #1
 8000562:	f44f 6480 	mov.w	r4, #1024	; 0x400
 8000566:	f104 0432 	add.w	r4, r4, #50	; 0x32
 800056a:	ea5f 5c91 	movs.w	ip, r1, lsr #22
 800056e:	f43f aedc 	beq.w	800032a <__adddf3+0xe6>
 8000572:	f04f 0203 	mov.w	r2, #3
 8000576:	ea5f 0cdc 	movs.w	ip, ip, lsr #3
 800057a:	bf18      	it	ne
 800057c:	3203      	addne	r2, #3
 800057e:	ea5f 0cdc 	movs.w	ip, ip, lsr #3
 8000582:	bf18      	it	ne
 8000584:	3203      	addne	r2, #3
 8000586:	eb02 02dc 	add.w	r2, r2, ip, lsr #3
 800058a:	f1c2 0320 	rsb	r3, r2, #32
 800058e:	fa00 fc03 	lsl.w	ip, r0, r3
 8000592:	fa20 f002 	lsr.w	r0, r0, r2
 8000596:	fa01 fe03 	lsl.w	lr, r1, r3
 800059a:	ea40 000e 	orr.w	r0, r0, lr
 800059e:	fa21 f102 	lsr.w	r1, r1, r2
 80005a2:	4414      	add	r4, r2
 80005a4:	e6c1      	b.n	800032a <__adddf3+0xe6>
 80005a6:	bf00      	nop

080005a8 <__aeabi_dmul>:
 80005a8:	b570      	push	{r4, r5, r6, lr}
 80005aa:	f04f 0cff 	mov.w	ip, #255	; 0xff
 80005ae:	f44c 6ce0 	orr.w	ip, ip, #1792	; 0x700
 80005b2:	ea1c 5411 	ands.w	r4, ip, r1, lsr #20
 80005b6:	bf1d      	ittte	ne
 80005b8:	ea1c 5513 	andsne.w	r5, ip, r3, lsr #20
 80005bc:	ea94 0f0c 	teqne	r4, ip
 80005c0:	ea95 0f0c 	teqne	r5, ip
 80005c4:	f000 f8de 	bleq	8000784 <__aeabi_dmul+0x1dc>
 80005c8:	442c      	add	r4, r5
 80005ca:	ea81 0603 	eor.w	r6, r1, r3
 80005ce:	ea21 514c 	bic.w	r1, r1, ip, lsl #21
 80005d2:	ea23 534c 	bic.w	r3, r3, ip, lsl #21
 80005d6:	ea50 3501 	orrs.w	r5, r0, r1, lsl #12
 80005da:	bf18      	it	ne
 80005dc:	ea52 3503 	orrsne.w	r5, r2, r3, lsl #12
 80005e0:	f441 1180 	orr.w	r1, r1, #1048576	; 0x100000
 80005e4:	f443 1380 	orr.w	r3, r3, #1048576	; 0x100000
 80005e8:	d038      	beq.n	800065c <__aeabi_dmul+0xb4>
 80005ea:	fba0 ce02 	umull	ip, lr, r0, r2
 80005ee:	f04f 0500 	mov.w	r5, #0
 80005f2:	fbe1 e502 	umlal	lr, r5, r1, r2
 80005f6:	f006 4200 	and.w	r2, r6, #2147483648	; 0x80000000
 80005fa:	fbe0 e503 	umlal	lr, r5, r0, r3
 80005fe:	f04f 0600 	mov.w	r6, #0
 8000602:	fbe1 5603 	umlal	r5, r6, r1, r3
 8000606:	f09c 0f00 	teq	ip, #0
 800060a:	bf18      	it	ne
 800060c:	f04e 0e01 	orrne.w	lr, lr, #1
 8000610:	f1a4 04ff 	sub.w	r4, r4, #255	; 0xff
 8000614:	f5b6 7f00 	cmp.w	r6, #512	; 0x200
 8000618:	f564 7440 	sbc.w	r4, r4, #768	; 0x300
 800061c:	d204      	bcs.n	8000628 <__aeabi_dmul+0x80>
 800061e:	ea5f 0e4e 	movs.w	lr, lr, lsl #1
 8000622:	416d      	adcs	r5, r5
 8000624:	eb46 0606 	adc.w	r6, r6, r6
 8000628:	ea42 21c6 	orr.w	r1, r2, r6, lsl #11
 800062c:	ea41 5155 	orr.w	r1, r1, r5, lsr #21
 8000630:	ea4f 20c5 	mov.w	r0, r5, lsl #11
 8000634:	ea40 505e 	orr.w	r0, r0, lr, lsr #21
 8000638:	ea4f 2ece 	mov.w	lr, lr, lsl #11
 800063c:	f1b4 0cfd 	subs.w	ip, r4, #253	; 0xfd
 8000640:	bf88      	it	hi
 8000642:	f5bc 6fe0 	cmphi.w	ip, #1792	; 0x700
 8000646:	d81e      	bhi.n	8000686 <__aeabi_dmul+0xde>
 8000648:	f1be 4f00 	cmp.w	lr, #2147483648	; 0x80000000
 800064c:	bf08      	it	eq
 800064e:	ea5f 0e50 	movseq.w	lr, r0, lsr #1
 8000652:	f150 0000 	adcs.w	r0, r0, #0
 8000656:	eb41 5104 	adc.w	r1, r1, r4, lsl #20
 800065a:	bd70      	pop	{r4, r5, r6, pc}
 800065c:	f006 4600 	and.w	r6, r6, #2147483648	; 0x80000000
 8000660:	ea46 0101 	orr.w	r1, r6, r1
 8000664:	ea40 0002 	orr.w	r0, r0, r2
 8000668:	ea81 0103 	eor.w	r1, r1, r3
 800066c:	ebb4 045c 	subs.w	r4, r4, ip, lsr #1
 8000670:	bfc2      	ittt	gt
 8000672:	ebd4 050c 	rsbsgt	r5, r4, ip
 8000676:	ea41 5104 	orrgt.w	r1, r1, r4, lsl #20
 800067a:	bd70      	popgt	{r4, r5, r6, pc}
 800067c:	f441 1180 	orr.w	r1, r1, #1048576	; 0x100000
 8000680:	f04f 0e00 	mov.w	lr, #0
 8000684:	3c01      	subs	r4, #1
 8000686:	f300 80ab 	bgt.w	80007e0 <__aeabi_dmul+0x238>
 800068a:	f114 0f36 	cmn.w	r4, #54	; 0x36
 800068e:	bfde      	ittt	le
 8000690:	2000      	movle	r0, #0
 8000692:	f001 4100 	andle.w	r1, r1, #2147483648	; 0x80000000
 8000696:	bd70      	pople	{r4, r5, r6, pc}
 8000698:	f1c4 0400 	rsb	r4, r4, #0
 800069c:	3c20      	subs	r4, #32
 800069e:	da35      	bge.n	800070c <__aeabi_dmul+0x164>
 80006a0:	340c      	adds	r4, #12
 80006a2:	dc1b      	bgt.n	80006dc <__aeabi_dmul+0x134>
 80006a4:	f104 0414 	add.w	r4, r4, #20
 80006a8:	f1c4 0520 	rsb	r5, r4, #32
 80006ac:	fa00 f305 	lsl.w	r3, r0, r5
 80006b0:	fa20 f004 	lsr.w	r0, r0, r4
 80006b4:	fa01 f205 	lsl.w	r2, r1, r5
 80006b8:	ea40 0002 	orr.w	r0, r0, r2
 80006bc:	f001 4200 	and.w	r2, r1, #2147483648	; 0x80000000
 80006c0:	f021 4100 	bic.w	r1, r1, #2147483648	; 0x80000000
 80006c4:	eb10 70d3 	adds.w	r0, r0, r3, lsr #31
 80006c8:	fa21 f604 	lsr.w	r6, r1, r4
 80006cc:	eb42 0106 	adc.w	r1, r2, r6
 80006d0:	ea5e 0e43 	orrs.w	lr, lr, r3, lsl #1
 80006d4:	bf08      	it	eq
 80006d6:	ea20 70d3 	biceq.w	r0, r0, r3, lsr #31
 80006da:	bd70      	pop	{r4, r5, r6, pc}
 80006dc:	f1c4 040c 	rsb	r4, r4, #12
 80006e0:	f1c4 0520 	rsb	r5, r4, #32
 80006e4:	fa00 f304 	lsl.w	r3, r0, r4
 80006e8:	fa20 f005 	lsr.w	r0, r0, r5
 80006ec:	fa01 f204 	lsl.w	r2, r1, r4
 80006f0:	ea40 0002 	orr.w	r0, r0, r2
 80006f4:	f001 4100 	and.w	r1, r1, #2147483648	; 0x80000000
 80006f8:	eb10 70d3 	adds.w	r0, r0, r3, lsr #31
 80006fc:	f141 0100 	adc.w	r1, r1, #0
 8000700:	ea5e 0e43 	orrs.w	lr, lr, r3, lsl #1
 8000704:	bf08      	it	eq
 8000706:	ea20 70d3 	biceq.w	r0, r0, r3, lsr #31
 800070a:	bd70      	pop	{r4, r5, r6, pc}
 800070c:	f1c4 0520 	rsb	r5, r4, #32
 8000710:	fa00 f205 	lsl.w	r2, r0, r5
 8000714:	ea4e 0e02 	orr.w	lr, lr, r2
 8000718:	fa20 f304 	lsr.w	r3, r0, r4
 800071c:	fa01 f205 	lsl.w	r2, r1, r5
 8000720:	ea43 0302 	orr.w	r3, r3, r2
 8000724:	fa21 f004 	lsr.w	r0, r1, r4
 8000728:	f001 4100 	and.w	r1, r1, #2147483648	; 0x80000000
 800072c:	fa21 f204 	lsr.w	r2, r1, r4
 8000730:	ea20 0002 	bic.w	r0, r0, r2
 8000734:	eb00 70d3 	add.w	r0, r0, r3, lsr #31
 8000738:	ea5e 0e43 	orrs.w	lr, lr, r3, lsl #1
 800073c:	bf08      	it	eq
 800073e:	ea20 70d3 	biceq.w	r0, r0, r3, lsr #31
 8000742:	bd70      	pop	{r4, r5, r6, pc}
 8000744:	f094 0f00 	teq	r4, #0
 8000748:	d10f      	bne.n	800076a <__aeabi_dmul+0x1c2>
 800074a:	f001 4600 	and.w	r6, r1, #2147483648	; 0x80000000
 800074e:	0040      	lsls	r0, r0, #1
 8000750:	eb41 0101 	adc.w	r1, r1, r1
 8000754:	f411 1f80 	tst.w	r1, #1048576	; 0x100000
 8000758:	bf08      	it	eq
 800075a:	3c01      	subeq	r4, #1
 800075c:	d0f7      	beq.n	800074e <__aeabi_dmul+0x1a6>
 800075e:	ea41 0106 	orr.w	r1, r1, r6
 8000762:	f095 0f00 	teq	r5, #0
 8000766:	bf18      	it	ne
 8000768:	4770      	bxne	lr
 800076a:	f003 4600 	and.w	r6, r3, #2147483648	; 0x80000000
 800076e:	0052      	lsls	r2, r2, #1
 8000770:	eb43 0303 	adc.w	r3, r3, r3
 8000774:	f413 1f80 	tst.w	r3, #1048576	; 0x100000
 8000778:	bf08      	it	eq
 800077a:	3d01      	subeq	r5, #1
 800077c:	d0f7      	beq.n	800076e <__aeabi_dmul+0x1c6>
 800077e:	ea43 0306 	orr.w	r3, r3, r6
 8000782:	4770      	bx	lr
 8000784:	ea94 0f0c 	teq	r4, ip
 8000788:	ea0c 5513 	and.w	r5, ip, r3, lsr #20
 800078c:	bf18      	it	ne
 800078e:	ea95 0f0c 	teqne	r5, ip
 8000792:	d00c      	beq.n	80007ae <__aeabi_dmul+0x206>
 8000794:	ea50 0641 	orrs.w	r6, r0, r1, lsl #1
 8000798:	bf18      	it	ne
 800079a:	ea52 0643 	orrsne.w	r6, r2, r3, lsl #1
 800079e:	d1d1      	bne.n	8000744 <__aeabi_dmul+0x19c>
 80007a0:	ea81 0103 	eor.w	r1, r1, r3
 80007a4:	f001 4100 	and.w	r1, r1, #2147483648	; 0x80000000
 80007a8:	f04f 0000 	mov.w	r0, #0
 80007ac:	bd70      	pop	{r4, r5, r6, pc}
 80007ae:	ea50 0641 	orrs.w	r6, r0, r1, lsl #1
 80007b2:	bf06      	itte	eq
 80007b4:	4610      	moveq	r0, r2
 80007b6:	4619      	moveq	r1, r3
 80007b8:	ea52 0643 	orrsne.w	r6, r2, r3, lsl #1
 80007bc:	d019      	beq.n	80007f2 <__aeabi_dmul+0x24a>
 80007be:	ea94 0f0c 	teq	r4, ip
 80007c2:	d102      	bne.n	80007ca <__aeabi_dmul+0x222>
 80007c4:	ea50 3601 	orrs.w	r6, r0, r1, lsl #12
 80007c8:	d113      	bne.n	80007f2 <__aeabi_dmul+0x24a>
 80007ca:	ea95 0f0c 	teq	r5, ip
 80007ce:	d105      	bne.n	80007dc <__aeabi_dmul+0x234>
 80007d0:	ea52 3603 	orrs.w	r6, r2, r3, lsl #12
 80007d4:	bf1c      	itt	ne
 80007d6:	4610      	movne	r0, r2
 80007d8:	4619      	movne	r1, r3
 80007da:	d10a      	bne.n	80007f2 <__aeabi_dmul+0x24a>
 80007dc:	ea81 0103 	eor.w	r1, r1, r3
 80007e0:	f001 4100 	and.w	r1, r1, #2147483648	; 0x80000000
 80007e4:	f041 41fe 	orr.w	r1, r1, #2130706432	; 0x7f000000
 80007e8:	f441 0170 	orr.w	r1, r1, #15728640	; 0xf00000
 80007ec:	f04f 0000 	mov.w	r0, #0
 80007f0:	bd70      	pop	{r4, r5, r6, pc}
 80007f2:	f041 41fe 	orr.w	r1, r1, #2130706432	; 0x7f000000
 80007f6:	f441 0178 	orr.w	r1, r1, #16252928	; 0xf80000
 80007fa:	bd70      	pop	{r4, r5, r6, pc}

080007fc <__aeabi_ddiv>:
 80007fc:	b570      	push	{r4, r5, r6, lr}
 80007fe:	f04f 0cff 	mov.w	ip, #255	; 0xff
 8000802:	f44c 6ce0 	orr.w	ip, ip, #1792	; 0x700
 8000806:	ea1c 5411 	ands.w	r4, ip, r1, lsr #20
 800080a:	bf1d      	ittte	ne
 800080c:	ea1c 5513 	andsne.w	r5, ip, r3, lsr #20
 8000810:	ea94 0f0c 	teqne	r4, ip
 8000814:	ea95 0f0c 	teqne	r5, ip
 8000818:	f000 f8a7 	bleq	800096a <__aeabi_ddiv+0x16e>
 800081c:	eba4 0405 	sub.w	r4, r4, r5
 8000820:	ea81 0e03 	eor.w	lr, r1, r3
 8000824:	ea52 3503 	orrs.w	r5, r2, r3, lsl #12
 8000828:	ea4f 3101 	mov.w	r1, r1, lsl #12
 800082c:	f000 8088 	beq.w	8000940 <__aeabi_ddiv+0x144>
 8000830:	ea4f 3303 	mov.w	r3, r3, lsl #12
 8000834:	f04f 5580 	mov.w	r5, #268435456	; 0x10000000
 8000838:	ea45 1313 	orr.w	r3, r5, r3, lsr #4
 800083c:	ea43 6312 	orr.w	r3, r3, r2, lsr #24
 8000840:	ea4f 2202 	mov.w	r2, r2, lsl #8
 8000844:	ea45 1511 	orr.w	r5, r5, r1, lsr #4
 8000848:	ea45 6510 	orr.w	r5, r5, r0, lsr #24
 800084c:	ea4f 2600 	mov.w	r6, r0, lsl #8
 8000850:	f00e 4100 	and.w	r1, lr, #2147483648	; 0x80000000
 8000854:	429d      	cmp	r5, r3
 8000856:	bf08      	it	eq
 8000858:	4296      	cmpeq	r6, r2
 800085a:	f144 04fd 	adc.w	r4, r4, #253	; 0xfd
 800085e:	f504 7440 	add.w	r4, r4, #768	; 0x300
 8000862:	d202      	bcs.n	800086a <__aeabi_ddiv+0x6e>
 8000864:	085b      	lsrs	r3, r3, #1
 8000866:	ea4f 0232 	mov.w	r2, r2, rrx
 800086a:	1ab6      	subs	r6, r6, r2
 800086c:	eb65 0503 	sbc.w	r5, r5, r3
 8000870:	085b      	lsrs	r3, r3, #1
 8000872:	ea4f 0232 	mov.w	r2, r2, rrx
 8000876:	f44f 1080 	mov.w	r0, #1048576	; 0x100000
 800087a:	f44f 2c00 	mov.w	ip, #524288	; 0x80000
 800087e:	ebb6 0e02 	subs.w	lr, r6, r2
 8000882:	eb75 0e03 	sbcs.w	lr, r5, r3
 8000886:	bf22      	ittt	cs
 8000888:	1ab6      	subcs	r6, r6, r2
 800088a:	4675      	movcs	r5, lr
 800088c:	ea40 000c 	orrcs.w	r0, r0, ip
 8000890:	085b      	lsrs	r3, r3, #1
 8000892:	ea4f 0232 	mov.w	r2, r2, rrx
 8000896:	ebb6 0e02 	subs.w	lr, r6, r2
 800089a:	eb75 0e03 	sbcs.w	lr, r5, r3
 800089e:	bf22      	ittt	cs
 80008a0:	1ab6      	subcs	r6, r6, r2
 80008a2:	4675      	movcs	r5, lr
 80008a4:	ea40 005c 	orrcs.w	r0, r0, ip, lsr #1
 80008a8:	085b      	lsrs	r3, r3, #1
 80008aa:	ea4f 0232 	mov.w	r2, r2, rrx
 80008ae:	ebb6 0e02 	subs.w	lr, r6, r2
 80008b2:	eb75 0e03 	sbcs.w	lr, r5, r3
 80008b6:	bf22      	ittt	cs
 80008b8:	1ab6      	subcs	r6, r6, r2
 80008ba:	4675      	movcs	r5, lr
 80008bc:	ea40 009c 	orrcs.w	r0, r0, ip, lsr #2
 80008c0:	085b      	lsrs	r3, r3, #1
 80008c2:	ea4f 0232 	mov.w	r2, r2, rrx
 80008c6:	ebb6 0e02 	subs.w	lr, r6, r2
 80008ca:	eb75 0e03 	sbcs.w	lr, r5, r3
 80008ce:	bf22      	ittt	cs
 80008d0:	1ab6      	subcs	r6, r6, r2
 80008d2:	4675      	movcs	r5, lr
 80008d4:	ea40 00dc 	orrcs.w	r0, r0, ip, lsr #3
 80008d8:	ea55 0e06 	orrs.w	lr, r5, r6
 80008dc:	d018      	beq.n	8000910 <__aeabi_ddiv+0x114>
 80008de:	ea4f 1505 	mov.w	r5, r5, lsl #4
 80008e2:	ea45 7516 	orr.w	r5, r5, r6, lsr #28
 80008e6:	ea4f 1606 	mov.w	r6, r6, lsl #4
 80008ea:	ea4f 03c3 	mov.w	r3, r3, lsl #3
 80008ee:	ea43 7352 	orr.w	r3, r3, r2, lsr #29
 80008f2:	ea4f 02c2 	mov.w	r2, r2, lsl #3
 80008f6:	ea5f 1c1c 	movs.w	ip, ip, lsr #4
 80008fa:	d1c0      	bne.n	800087e <__aeabi_ddiv+0x82>
 80008fc:	f411 1f80 	tst.w	r1, #1048576	; 0x100000
 8000900:	d10b      	bne.n	800091a <__aeabi_ddiv+0x11e>
 8000902:	ea41 0100 	orr.w	r1, r1, r0
 8000906:	f04f 0000 	mov.w	r0, #0
 800090a:	f04f 4c00 	mov.w	ip, #2147483648	; 0x80000000
 800090e:	e7b6      	b.n	800087e <__aeabi_ddiv+0x82>
 8000910:	f411 1f80 	tst.w	r1, #1048576	; 0x100000
 8000914:	bf04      	itt	eq
 8000916:	4301      	orreq	r1, r0
 8000918:	2000      	moveq	r0, #0
 800091a:	f1b4 0cfd 	subs.w	ip, r4, #253	; 0xfd
 800091e:	bf88      	it	hi
 8000920:	f5bc 6fe0 	cmphi.w	ip, #1792	; 0x700
 8000924:	f63f aeaf 	bhi.w	8000686 <__aeabi_dmul+0xde>
 8000928:	ebb5 0c03 	subs.w	ip, r5, r3
 800092c:	bf04      	itt	eq
 800092e:	ebb6 0c02 	subseq.w	ip, r6, r2
 8000932:	ea5f 0c50 	movseq.w	ip, r0, lsr #1
 8000936:	f150 0000 	adcs.w	r0, r0, #0
 800093a:	eb41 5104 	adc.w	r1, r1, r4, lsl #20
 800093e:	bd70      	pop	{r4, r5, r6, pc}
 8000940:	f00e 4e00 	and.w	lr, lr, #2147483648	; 0x80000000
 8000944:	ea4e 3111 	orr.w	r1, lr, r1, lsr #12
 8000948:	eb14 045c 	adds.w	r4, r4, ip, lsr #1
 800094c:	bfc2      	ittt	gt
 800094e:	ebd4 050c 	rsbsgt	r5, r4, ip
 8000952:	ea41 5104 	orrgt.w	r1, r1, r4, lsl #20
 8000956:	bd70      	popgt	{r4, r5, r6, pc}
 8000958:	f441 1180 	orr.w	r1, r1, #1048576	; 0x100000
 800095c:	f04f 0e00 	mov.w	lr, #0
 8000960:	3c01      	subs	r4, #1
 8000962:	e690      	b.n	8000686 <__aeabi_dmul+0xde>
 8000964:	ea45 0e06 	orr.w	lr, r5, r6
 8000968:	e68d      	b.n	8000686 <__aeabi_dmul+0xde>
 800096a:	ea0c 5513 	and.w	r5, ip, r3, lsr #20
 800096e:	ea94 0f0c 	teq	r4, ip
 8000972:	bf08      	it	eq
 8000974:	ea95 0f0c 	teqeq	r5, ip
 8000978:	f43f af3b 	beq.w	80007f2 <__aeabi_dmul+0x24a>
 800097c:	ea94 0f0c 	teq	r4, ip
 8000980:	d10a      	bne.n	8000998 <__aeabi_ddiv+0x19c>
 8000982:	ea50 3401 	orrs.w	r4, r0, r1, lsl #12
 8000986:	f47f af34 	bne.w	80007f2 <__aeabi_dmul+0x24a>
 800098a:	ea95 0f0c 	teq	r5, ip
 800098e:	f47f af25 	bne.w	80007dc <__aeabi_dmul+0x234>
 8000992:	4610      	mov	r0, r2
 8000994:	4619      	mov	r1, r3
 8000996:	e72c      	b.n	80007f2 <__aeabi_dmul+0x24a>
 8000998:	ea95 0f0c 	teq	r5, ip
 800099c:	d106      	bne.n	80009ac <__aeabi_ddiv+0x1b0>
 800099e:	ea52 3503 	orrs.w	r5, r2, r3, lsl #12
 80009a2:	f43f aefd 	beq.w	80007a0 <__aeabi_dmul+0x1f8>
 80009a6:	4610      	mov	r0, r2
 80009a8:	4619      	mov	r1, r3
 80009aa:	e722      	b.n	80007f2 <__aeabi_dmul+0x24a>
 80009ac:	ea50 0641 	orrs.w	r6, r0, r1, lsl #1
 80009b0:	bf18      	it	ne
 80009b2:	ea52 0643 	orrsne.w	r6, r2, r3, lsl #1
 80009b6:	f47f aec5 	bne.w	8000744 <__aeabi_dmul+0x19c>
 80009ba:	ea50 0441 	orrs.w	r4, r0, r1, lsl #1
 80009be:	f47f af0d 	bne.w	80007dc <__aeabi_dmul+0x234>
 80009c2:	ea52 0543 	orrs.w	r5, r2, r3, lsl #1
 80009c6:	f47f aeeb 	bne.w	80007a0 <__aeabi_dmul+0x1f8>
 80009ca:	e712      	b.n	80007f2 <__aeabi_dmul+0x24a>

080009cc <__aeabi_d2uiz>:
 80009cc:	004a      	lsls	r2, r1, #1
 80009ce:	d211      	bcs.n	80009f4 <__aeabi_d2uiz+0x28>
 80009d0:	f512 1200 	adds.w	r2, r2, #2097152	; 0x200000
 80009d4:	d211      	bcs.n	80009fa <__aeabi_d2uiz+0x2e>
 80009d6:	d50d      	bpl.n	80009f4 <__aeabi_d2uiz+0x28>
 80009d8:	f46f 7378 	mvn.w	r3, #992	; 0x3e0
 80009dc:	ebb3 5262 	subs.w	r2, r3, r2, asr #21
 80009e0:	d40e      	bmi.n	8000a00 <__aeabi_d2uiz+0x34>
 80009e2:	ea4f 23c1 	mov.w	r3, r1, lsl #11
 80009e6:	f043 4300 	orr.w	r3, r3, #2147483648	; 0x80000000
 80009ea:	ea43 5350 	orr.w	r3, r3, r0, lsr #21
 80009ee:	fa23 f002 	lsr.w	r0, r3, r2
 80009f2:	4770      	bx	lr
 80009f4:	f04f 0000 	mov.w	r0, #0
 80009f8:	4770      	bx	lr
 80009fa:	ea50 3001 	orrs.w	r0, r0, r1, lsl #12
 80009fe:	d102      	bne.n	8000a06 <__aeabi_d2uiz+0x3a>
 8000a00:	f04f 30ff 	mov.w	r0, #4294967295
 8000a04:	4770      	bx	lr
 8000a06:	f04f 0000 	mov.w	r0, #0
 8000a0a:	4770      	bx	lr

08000a0c <HAL_InitTick>:
  *       implementation  in user file.
  * @param TickPriority Tick interrupt priority.
  * @retval HAL status
  */
__weak HAL_StatusTypeDef HAL_InitTick(uint32_t TickPriority)
{
 8000a0c:	b538      	push	{r3, r4, r5, lr}
  /* Configure the SysTick to have interrupt in 1ms time basis*/
  if (HAL_SYSTICK_Config(SystemCoreClock / (1000U / uwTickFreq)) > 0U)
 8000a0e:	4b0e      	ldr	r3, [pc, #56]	; (8000a48 <HAL_InitTick+0x3c>)
{
 8000a10:	4605      	mov	r5, r0
  if (HAL_SYSTICK_Config(SystemCoreClock / (1000U / uwTickFreq)) > 0U)
 8000a12:	7818      	ldrb	r0, [r3, #0]
 8000a14:	f44f 737a 	mov.w	r3, #1000	; 0x3e8
 8000a18:	fbb3 f3f0 	udiv	r3, r3, r0
 8000a1c:	4a0b      	ldr	r2, [pc, #44]	; (8000a4c <HAL_InitTick+0x40>)
 8000a1e:	6810      	ldr	r0, [r2, #0]
 8000a20:	fbb0 f0f3 	udiv	r0, r0, r3
 8000a24:	f000 fad2 	bl	8000fcc <HAL_SYSTICK_Config>
 8000a28:	4604      	mov	r4, r0
 8000a2a:	b958      	cbnz	r0, 8000a44 <HAL_InitTick+0x38>
  {
    return HAL_ERROR;
  }

  /* Configure the SysTick IRQ priority */
  if (TickPriority < (1UL << __NVIC_PRIO_BITS))
 8000a2c:	2d0f      	cmp	r5, #15
 8000a2e:	d809      	bhi.n	8000a44 <HAL_InitTick+0x38>
  {
    HAL_NVIC_SetPriority(SysTick_IRQn, TickPriority, 0U);
 8000a30:	4602      	mov	r2, r0
 8000a32:	4629      	mov	r1, r5
 8000a34:	f04f 30ff 	mov.w	r0, #4294967295
 8000a38:	f000 fa86 	bl	8000f48 <HAL_NVIC_SetPriority>
    uwTickPrio = TickPriority;
 8000a3c:	4b04      	ldr	r3, [pc, #16]	; (8000a50 <HAL_InitTick+0x44>)
 8000a3e:	4620      	mov	r0, r4
 8000a40:	601d      	str	r5, [r3, #0]
 8000a42:	bd38      	pop	{r3, r4, r5, pc}
    return HAL_ERROR;
 8000a44:	2001      	movs	r0, #1
    return HAL_ERROR;
  }

  /* Return function status */
  return HAL_OK;
}
 8000a46:	bd38      	pop	{r3, r4, r5, pc}
 8000a48:	20000000 	.word	0x20000000
 8000a4c:	20000020 	.word	0x20000020
 8000a50:	20000004 	.word	0x20000004

08000a54 <HAL_Init>:
  __HAL_FLASH_PREFETCH_BUFFER_ENABLE();
 8000a54:	4a07      	ldr	r2, [pc, #28]	; (8000a74 <HAL_Init+0x20>)
{
 8000a56:	b508      	push	{r3, lr}
  __HAL_FLASH_PREFETCH_BUFFER_ENABLE();
 8000a58:	6813      	ldr	r3, [r2, #0]
  HAL_NVIC_SetPriorityGrouping(NVIC_PRIORITYGROUP_4);
 8000a5a:	2003      	movs	r0, #3
  __HAL_FLASH_PREFETCH_BUFFER_ENABLE();
 8000a5c:	f043 0310 	orr.w	r3, r3, #16
 8000a60:	6013      	str	r3, [r2, #0]
  HAL_NVIC_SetPriorityGrouping(NVIC_PRIORITYGROUP_4);
 8000a62:	f000 fa5f 	bl	8000f24 <HAL_NVIC_SetPriorityGrouping>
  HAL_InitTick(TICK_INT_PRIORITY);
 8000a66:	2000      	movs	r0, #0
 8000a68:	f7ff ffd0 	bl	8000a0c <HAL_InitTick>
  HAL_MspInit();
 8000a6c:	f004 fc5c 	bl	8005328 <HAL_MspInit>
}
 8000a70:	2000      	movs	r0, #0
 8000a72:	bd08      	pop	{r3, pc}
 8000a74:	40022000 	.word	0x40022000

08000a78 <HAL_IncTick>:
  *      implementations in user file.
  * @retval None
  */
__weak void HAL_IncTick(void)
{
  uwTick += uwTickFreq;
 8000a78:	4a03      	ldr	r2, [pc, #12]	; (8000a88 <HAL_IncTick+0x10>)
 8000a7a:	4b04      	ldr	r3, [pc, #16]	; (8000a8c <HAL_IncTick+0x14>)
 8000a7c:	6811      	ldr	r1, [r2, #0]
 8000a7e:	781b      	ldrb	r3, [r3, #0]
 8000a80:	440b      	add	r3, r1
 8000a82:	6013      	str	r3, [r2, #0]
 8000a84:	4770      	bx	lr
 8000a86:	bf00      	nop
 8000a88:	20000564 	.word	0x20000564
 8000a8c:	20000000 	.word	0x20000000

08000a90 <HAL_GetTick>:
  *       implementations in user file.
  * @retval tick value
  */
__weak uint32_t HAL_GetTick(void)
{
  return uwTick;
 8000a90:	4b01      	ldr	r3, [pc, #4]	; (8000a98 <HAL_GetTick+0x8>)
 8000a92:	6818      	ldr	r0, [r3, #0]
}
 8000a94:	4770      	bx	lr
 8000a96:	bf00      	nop
 8000a98:	20000564 	.word	0x20000564

08000a9c <HAL_Delay>:
  *       implementations in user file.
  * @param Delay specifies the delay time length, in milliseconds.
  * @retval None
  */
__weak void HAL_Delay(uint32_t Delay)
{
 8000a9c:	b538      	push	{r3, r4, r5, lr}
 8000a9e:	4604      	mov	r4, r0
  uint32_t tickstart = HAL_GetTick();
 8000aa0:	f7ff fff6 	bl	8000a90 <HAL_GetTick>
 8000aa4:	4605      	mov	r5, r0
  uint32_t wait = Delay;

  /* Add a freq to guarantee minimum wait */
  if (wait < HAL_MAX_DELAY)
 8000aa6:	1c63      	adds	r3, r4, #1
  {
    wait += (uint32_t)(uwTickFreq);
 8000aa8:	bf1e      	ittt	ne
 8000aaa:	4b04      	ldrne	r3, [pc, #16]	; (8000abc <HAL_Delay+0x20>)
 8000aac:	781b      	ldrbne	r3, [r3, #0]
 8000aae:	18e4      	addne	r4, r4, r3
  }

  while ((HAL_GetTick() - tickstart) < wait)
 8000ab0:	f7ff ffee 	bl	8000a90 <HAL_GetTick>
 8000ab4:	1b40      	subs	r0, r0, r5
 8000ab6:	4284      	cmp	r4, r0
 8000ab8:	d8fa      	bhi.n	8000ab0 <HAL_Delay+0x14>
  {
  }
}
 8000aba:	bd38      	pop	{r3, r4, r5, pc}
 8000abc:	20000000 	.word	0x20000000

08000ac0 <HAL_ADC_ConvCpltCallback>:
 8000ac0:	4770      	bx	lr

08000ac2 <ADC_DMAConvCplt>:
  * @retval None
  */
void ADC_DMAConvCplt(DMA_HandleTypeDef *hdma)
{
  /* Retrieve ADC handle corresponding to current DMA handle */
  ADC_HandleTypeDef* hadc = ( ADC_HandleTypeDef* )((DMA_HandleTypeDef* )hdma)->Parent;
 8000ac2:	6a43      	ldr	r3, [r0, #36]	; 0x24
{
 8000ac4:	b510      	push	{r4, lr}
 
  /* Update state machine on conversion status if not in error state */
  if (HAL_IS_BIT_CLR(hadc->State, HAL_ADC_STATE_ERROR_INTERNAL | HAL_ADC_STATE_ERROR_DMA))
 8000ac6:	6a9a      	ldr	r2, [r3, #40]	; 0x28
 8000ac8:	f012 0f50 	tst.w	r2, #80	; 0x50
 8000acc:	d11b      	bne.n	8000b06 <ADC_DMAConvCplt+0x44>
  {
    /* Update ADC state machine */
    SET_BIT(hadc->State, HAL_ADC_STATE_REG_EOC);
 8000ace:	6a9a      	ldr	r2, [r3, #40]	; 0x28
 8000ad0:	f442 7200 	orr.w	r2, r2, #512	; 0x200
 8000ad4:	629a      	str	r2, [r3, #40]	; 0x28
    /* Determine whether any further conversion upcoming on group regular     */
    /* by external trigger, continuous mode or scan sequence on going.        */
    /* Note: On STM32F1 devices, in case of sequencer enabled                 */
    /*       (several ranks selected), end of conversion flag is raised       */
    /*       at the end of the sequence.                                      */
    if(ADC_IS_SOFTWARE_START_REGULAR(hadc)        && 
 8000ad6:	681a      	ldr	r2, [r3, #0]
 8000ad8:	6892      	ldr	r2, [r2, #8]
 8000ada:	f402 2260 	and.w	r2, r2, #917504	; 0xe0000
 8000ade:	f5b2 2f60 	cmp.w	r2, #917504	; 0xe0000
 8000ae2:	d10c      	bne.n	8000afe <ADC_DMAConvCplt+0x3c>
 8000ae4:	7b1a      	ldrb	r2, [r3, #12]
 8000ae6:	b952      	cbnz	r2, 8000afe <ADC_DMAConvCplt+0x3c>
       (hadc->Init.ContinuousConvMode == DISABLE)   )
    {
      /* Set ADC state */
      CLEAR_BIT(hadc->State, HAL_ADC_STATE_REG_BUSY);   
 8000ae8:	6a9a      	ldr	r2, [r3, #40]	; 0x28
 8000aea:	f422 7280 	bic.w	r2, r2, #256	; 0x100
 8000aee:	629a      	str	r2, [r3, #40]	; 0x28
      
      if (HAL_IS_BIT_CLR(hadc->State, HAL_ADC_STATE_INJ_BUSY))
 8000af0:	6a9a      	ldr	r2, [r3, #40]	; 0x28
 8000af2:	04d2      	lsls	r2, r2, #19
      {
        SET_BIT(hadc->State, HAL_ADC_STATE_READY);
 8000af4:	bf5e      	ittt	pl
 8000af6:	6a9a      	ldrpl	r2, [r3, #40]	; 0x28
 8000af8:	f042 0201 	orrpl.w	r2, r2, #1
 8000afc:	629a      	strpl	r2, [r3, #40]	; 0x28
    
    /* Conversion complete callback */
#if (USE_HAL_ADC_REGISTER_CALLBACKS == 1)
    hadc->ConvCpltCallback(hadc);
#else
    HAL_ADC_ConvCpltCallback(hadc);
 8000afe:	4618      	mov	r0, r3
 8000b00:	f7ff ffde 	bl	8000ac0 <HAL_ADC_ConvCpltCallback>
 8000b04:	bd10      	pop	{r4, pc}
#endif /* USE_HAL_ADC_REGISTER_CALLBACKS */
  }
  else
  {
    /* Call DMA error callback */
    hadc->DMA_Handle->XferErrorCallback(hdma);
 8000b06:	6a1b      	ldr	r3, [r3, #32]
  }
}
 8000b08:	e8bd 4010 	ldmia.w	sp!, {r4, lr}
    hadc->DMA_Handle->XferErrorCallback(hdma);
 8000b0c:	6b1b      	ldr	r3, [r3, #48]	; 0x30
 8000b0e:	4718      	bx	r3

08000b10 <HAL_ADC_ConvHalfCpltCallback>:
 8000b10:	4770      	bx	lr

08000b12 <ADC_DMAHalfConvCplt>:
  * @brief  DMA half transfer complete callback. 
  * @param  hdma: pointer to DMA handle.
  * @retval None
  */
void ADC_DMAHalfConvCplt(DMA_HandleTypeDef *hdma)   
{
 8000b12:	b508      	push	{r3, lr}
  
  /* Half conversion callback */
#if (USE_HAL_ADC_REGISTER_CALLBACKS == 1)
    hadc->ConvHalfCpltCallback(hadc);
#else
  HAL_ADC_ConvHalfCpltCallback(hadc);
 8000b14:	6a40      	ldr	r0, [r0, #36]	; 0x24
 8000b16:	f7ff fffb 	bl	8000b10 <HAL_ADC_ConvHalfCpltCallback>
 8000b1a:	bd08      	pop	{r3, pc}

08000b1c <HAL_ADC_ErrorCallback>:
{
 8000b1c:	4770      	bx	lr

08000b1e <ADC_DMAError>:
  * @retval None
  */
void ADC_DMAError(DMA_HandleTypeDef *hdma)   
{
  /* Retrieve ADC handle corresponding to current DMA handle */
  ADC_HandleTypeDef* hadc = ( ADC_HandleTypeDef* )((DMA_HandleTypeDef* )hdma)->Parent;
 8000b1e:	6a40      	ldr	r0, [r0, #36]	; 0x24
{
 8000b20:	b508      	push	{r3, lr}
  
  /* Set ADC state */
  SET_BIT(hadc->State, HAL_ADC_STATE_ERROR_DMA);
 8000b22:	6a83      	ldr	r3, [r0, #40]	; 0x28
 8000b24:	f043 0340 	orr.w	r3, r3, #64	; 0x40
 8000b28:	6283      	str	r3, [r0, #40]	; 0x28
  
  /* Set ADC error code to DMA error */
  SET_BIT(hadc->ErrorCode, HAL_ADC_ERROR_DMA);
 8000b2a:	6ac3      	ldr	r3, [r0, #44]	; 0x2c
 8000b2c:	f043 0304 	orr.w	r3, r3, #4
 8000b30:	62c3      	str	r3, [r0, #44]	; 0x2c
  
  /* Error callback */
#if (USE_HAL_ADC_REGISTER_CALLBACKS == 1)
  hadc->ErrorCallback(hadc);
#else
  HAL_ADC_ErrorCallback(hadc);
 8000b32:	f7ff fff3 	bl	8000b1c <HAL_ADC_ErrorCallback>
 8000b36:	bd08      	pop	{r3, pc}

08000b38 <HAL_ADC_ConfigChannel>:
  __IO uint32_t wait_loop_index = 0U;
 8000b38:	2300      	movs	r3, #0
{ 
 8000b3a:	b573      	push	{r0, r1, r4, r5, r6, lr}
  __IO uint32_t wait_loop_index = 0U;
 8000b3c:	9301      	str	r3, [sp, #4]
  __HAL_LOCK(hadc);
 8000b3e:	f890 3024 	ldrb.w	r3, [r0, #36]	; 0x24
 8000b42:	2b01      	cmp	r3, #1
 8000b44:	d074      	beq.n	8000c30 <HAL_ADC_ConfigChannel+0xf8>
 8000b46:	2301      	movs	r3, #1
  if (sConfig->Rank < 7U)
 8000b48:	684d      	ldr	r5, [r1, #4]
  __HAL_LOCK(hadc);
 8000b4a:	f880 3024 	strb.w	r3, [r0, #36]	; 0x24
  if (sConfig->Rank < 7U)
 8000b4e:	2d06      	cmp	r5, #6
 8000b50:	6802      	ldr	r2, [r0, #0]
 8000b52:	ea4f 0385 	mov.w	r3, r5, lsl #2
 8000b56:	680c      	ldr	r4, [r1, #0]
 8000b58:	d825      	bhi.n	8000ba6 <HAL_ADC_ConfigChannel+0x6e>
    MODIFY_REG(hadc->Instance->SQR3                        ,
 8000b5a:	442b      	add	r3, r5
 8000b5c:	251f      	movs	r5, #31
 8000b5e:	6b56      	ldr	r6, [r2, #52]	; 0x34
 8000b60:	3b05      	subs	r3, #5
 8000b62:	409d      	lsls	r5, r3
 8000b64:	ea26 0505 	bic.w	r5, r6, r5
 8000b68:	fa04 f303 	lsl.w	r3, r4, r3
 8000b6c:	432b      	orrs	r3, r5
 8000b6e:	6353      	str	r3, [r2, #52]	; 0x34
  if (sConfig->Channel >= ADC_CHANNEL_10)
 8000b70:	2c09      	cmp	r4, #9
 8000b72:	ea4f 0344 	mov.w	r3, r4, lsl #1
 8000b76:	688d      	ldr	r5, [r1, #8]
 8000b78:	d92f      	bls.n	8000bda <HAL_ADC_ConfigChannel+0xa2>
    MODIFY_REG(hadc->Instance->SMPR1                             ,
 8000b7a:	2607      	movs	r6, #7
 8000b7c:	4423      	add	r3, r4
 8000b7e:	68d1      	ldr	r1, [r2, #12]
 8000b80:	3b1e      	subs	r3, #30
 8000b82:	409e      	lsls	r6, r3
 8000b84:	ea21 0106 	bic.w	r1, r1, r6
 8000b88:	fa05 f303 	lsl.w	r3, r5, r3
 8000b8c:	430b      	orrs	r3, r1
 8000b8e:	60d3      	str	r3, [r2, #12]
  if ((sConfig->Channel == ADC_CHANNEL_TEMPSENSOR) ||
 8000b90:	f1a4 0310 	sub.w	r3, r4, #16
 8000b94:	2b01      	cmp	r3, #1
 8000b96:	d92b      	bls.n	8000bf0 <HAL_ADC_ConfigChannel+0xb8>
  HAL_StatusTypeDef tmp_hal_status = HAL_OK;
 8000b98:	2300      	movs	r3, #0
  __HAL_UNLOCK(hadc);
 8000b9a:	2200      	movs	r2, #0
 8000b9c:	f880 2024 	strb.w	r2, [r0, #36]	; 0x24
}
 8000ba0:	4618      	mov	r0, r3
 8000ba2:	b002      	add	sp, #8
 8000ba4:	bd70      	pop	{r4, r5, r6, pc}
  else if (sConfig->Rank < 13U)
 8000ba6:	2d0c      	cmp	r5, #12
 8000ba8:	d80b      	bhi.n	8000bc2 <HAL_ADC_ConfigChannel+0x8a>
    MODIFY_REG(hadc->Instance->SQR2                        ,
 8000baa:	442b      	add	r3, r5
 8000bac:	251f      	movs	r5, #31
 8000bae:	6b16      	ldr	r6, [r2, #48]	; 0x30
 8000bb0:	3b23      	subs	r3, #35	; 0x23
 8000bb2:	409d      	lsls	r5, r3
 8000bb4:	ea26 0505 	bic.w	r5, r6, r5
 8000bb8:	fa04 f303 	lsl.w	r3, r4, r3
 8000bbc:	432b      	orrs	r3, r5
 8000bbe:	6313      	str	r3, [r2, #48]	; 0x30
 8000bc0:	e7d6      	b.n	8000b70 <HAL_ADC_ConfigChannel+0x38>
    MODIFY_REG(hadc->Instance->SQR1                        ,
 8000bc2:	442b      	add	r3, r5
 8000bc4:	251f      	movs	r5, #31
 8000bc6:	6ad6      	ldr	r6, [r2, #44]	; 0x2c
 8000bc8:	3b41      	subs	r3, #65	; 0x41
 8000bca:	409d      	lsls	r5, r3
 8000bcc:	ea26 0505 	bic.w	r5, r6, r5
 8000bd0:	fa04 f303 	lsl.w	r3, r4, r3
 8000bd4:	432b      	orrs	r3, r5
 8000bd6:	62d3      	str	r3, [r2, #44]	; 0x2c
 8000bd8:	e7ca      	b.n	8000b70 <HAL_ADC_ConfigChannel+0x38>
    MODIFY_REG(hadc->Instance->SMPR2                             ,
 8000bda:	2607      	movs	r6, #7
 8000bdc:	6911      	ldr	r1, [r2, #16]
 8000bde:	4423      	add	r3, r4
 8000be0:	409e      	lsls	r6, r3
 8000be2:	ea21 0106 	bic.w	r1, r1, r6
 8000be6:	fa05 f303 	lsl.w	r3, r5, r3
 8000bea:	430b      	orrs	r3, r1
 8000bec:	6113      	str	r3, [r2, #16]
 8000bee:	e7cf      	b.n	8000b90 <HAL_ADC_ConfigChannel+0x58>
    if (hadc->Instance == ADC1)
 8000bf0:	4b10      	ldr	r3, [pc, #64]	; (8000c34 <HAL_ADC_ConfigChannel+0xfc>)
 8000bf2:	429a      	cmp	r2, r3
 8000bf4:	d116      	bne.n	8000c24 <HAL_ADC_ConfigChannel+0xec>
      if (READ_BIT(hadc->Instance->CR2, ADC_CR2_TSVREFE) == RESET)
 8000bf6:	6893      	ldr	r3, [r2, #8]
 8000bf8:	021b      	lsls	r3, r3, #8
 8000bfa:	d4cd      	bmi.n	8000b98 <HAL_ADC_ConfigChannel+0x60>
        SET_BIT(hadc->Instance->CR2, ADC_CR2_TSVREFE);
 8000bfc:	6893      	ldr	r3, [r2, #8]
        if ((sConfig->Channel == ADC_CHANNEL_TEMPSENSOR))
 8000bfe:	2c10      	cmp	r4, #16
        SET_BIT(hadc->Instance->CR2, ADC_CR2_TSVREFE);
 8000c00:	f443 0300 	orr.w	r3, r3, #8388608	; 0x800000
 8000c04:	6093      	str	r3, [r2, #8]
        if ((sConfig->Channel == ADC_CHANNEL_TEMPSENSOR))
 8000c06:	d1c7      	bne.n	8000b98 <HAL_ADC_ConfigChannel+0x60>
          wait_loop_index = (ADC_TEMPSENSOR_DELAY_US * (SystemCoreClock / 1000000U));
 8000c08:	4b0b      	ldr	r3, [pc, #44]	; (8000c38 <HAL_ADC_ConfigChannel+0x100>)
 8000c0a:	4a0c      	ldr	r2, [pc, #48]	; (8000c3c <HAL_ADC_ConfigChannel+0x104>)
 8000c0c:	681b      	ldr	r3, [r3, #0]
 8000c0e:	fbb3 f2f2 	udiv	r2, r3, r2
 8000c12:	230a      	movs	r3, #10
 8000c14:	4353      	muls	r3, r2
            wait_loop_index--;
 8000c16:	9301      	str	r3, [sp, #4]
          while(wait_loop_index != 0U)
 8000c18:	9b01      	ldr	r3, [sp, #4]
 8000c1a:	2b00      	cmp	r3, #0
 8000c1c:	d0bc      	beq.n	8000b98 <HAL_ADC_ConfigChannel+0x60>
            wait_loop_index--;
 8000c1e:	9b01      	ldr	r3, [sp, #4]
 8000c20:	3b01      	subs	r3, #1
 8000c22:	e7f8      	b.n	8000c16 <HAL_ADC_ConfigChannel+0xde>
      SET_BIT(hadc->State, HAL_ADC_STATE_ERROR_CONFIG);
 8000c24:	6a83      	ldr	r3, [r0, #40]	; 0x28
 8000c26:	f043 0320 	orr.w	r3, r3, #32
 8000c2a:	6283      	str	r3, [r0, #40]	; 0x28
      tmp_hal_status = HAL_ERROR;
 8000c2c:	2301      	movs	r3, #1
 8000c2e:	e7b4      	b.n	8000b9a <HAL_ADC_ConfigChannel+0x62>
  __HAL_LOCK(hadc);
 8000c30:	2302      	movs	r3, #2
 8000c32:	e7b5      	b.n	8000ba0 <HAL_ADC_ConfigChannel+0x68>
 8000c34:	40012400 	.word	0x40012400
 8000c38:	20000020 	.word	0x20000020
 8000c3c:	000f4240 	.word	0x000f4240

08000c40 <ADC_Enable>:
  __IO uint32_t wait_loop_index = 0U;
 8000c40:	2300      	movs	r3, #0
{
 8000c42:	b573      	push	{r0, r1, r4, r5, r6, lr}
  __IO uint32_t wait_loop_index = 0U;
 8000c44:	9301      	str	r3, [sp, #4]
  if (ADC_IS_ENABLE(hadc) == RESET)
 8000c46:	6803      	ldr	r3, [r0, #0]
{
 8000c48:	4604      	mov	r4, r0
  if (ADC_IS_ENABLE(hadc) == RESET)
 8000c4a:	689a      	ldr	r2, [r3, #8]
 8000c4c:	07d2      	lsls	r2, r2, #31
 8000c4e:	d502      	bpl.n	8000c56 <ADC_Enable+0x16>
  return HAL_OK;
 8000c50:	2000      	movs	r0, #0
}
 8000c52:	b002      	add	sp, #8
 8000c54:	bd70      	pop	{r4, r5, r6, pc}
    __HAL_ADC_ENABLE(hadc);
 8000c56:	689a      	ldr	r2, [r3, #8]
 8000c58:	f042 0201 	orr.w	r2, r2, #1
 8000c5c:	609a      	str	r2, [r3, #8]
    wait_loop_index = (ADC_STAB_DELAY_US * (SystemCoreClock / 1000000U));
 8000c5e:	4b12      	ldr	r3, [pc, #72]	; (8000ca8 <ADC_Enable+0x68>)
 8000c60:	4a12      	ldr	r2, [pc, #72]	; (8000cac <ADC_Enable+0x6c>)
 8000c62:	681b      	ldr	r3, [r3, #0]
 8000c64:	fbb3 f3f2 	udiv	r3, r3, r2
      wait_loop_index--;
 8000c68:	9301      	str	r3, [sp, #4]
    while(wait_loop_index != 0U)
 8000c6a:	9b01      	ldr	r3, [sp, #4]
 8000c6c:	b9c3      	cbnz	r3, 8000ca0 <ADC_Enable+0x60>
    tickstart = HAL_GetTick();
 8000c6e:	f7ff ff0f 	bl	8000a90 <HAL_GetTick>
 8000c72:	4606      	mov	r6, r0
    while(ADC_IS_ENABLE(hadc) == RESET)
 8000c74:	6823      	ldr	r3, [r4, #0]
 8000c76:	689d      	ldr	r5, [r3, #8]
 8000c78:	f015 0501 	ands.w	r5, r5, #1
 8000c7c:	d1e8      	bne.n	8000c50 <ADC_Enable+0x10>
      if((HAL_GetTick() - tickstart) > ADC_ENABLE_TIMEOUT)
 8000c7e:	f7ff ff07 	bl	8000a90 <HAL_GetTick>
 8000c82:	1b80      	subs	r0, r0, r6
 8000c84:	2802      	cmp	r0, #2
 8000c86:	d9f5      	bls.n	8000c74 <ADC_Enable+0x34>
        SET_BIT(hadc->State, HAL_ADC_STATE_ERROR_INTERNAL);
 8000c88:	6aa3      	ldr	r3, [r4, #40]	; 0x28
        __HAL_UNLOCK(hadc);
 8000c8a:	f884 5024 	strb.w	r5, [r4, #36]	; 0x24
        SET_BIT(hadc->State, HAL_ADC_STATE_ERROR_INTERNAL);
 8000c8e:	f043 0310 	orr.w	r3, r3, #16
 8000c92:	62a3      	str	r3, [r4, #40]	; 0x28
        SET_BIT(hadc->ErrorCode, HAL_ADC_ERROR_INTERNAL);
 8000c94:	6ae3      	ldr	r3, [r4, #44]	; 0x2c
        __HAL_UNLOCK(hadc);
 8000c96:	2001      	movs	r0, #1
        SET_BIT(hadc->ErrorCode, HAL_ADC_ERROR_INTERNAL);
 8000c98:	f043 0301 	orr.w	r3, r3, #1
 8000c9c:	62e3      	str	r3, [r4, #44]	; 0x2c
 8000c9e:	e7d8      	b.n	8000c52 <ADC_Enable+0x12>
      wait_loop_index--;
 8000ca0:	9b01      	ldr	r3, [sp, #4]
 8000ca2:	3b01      	subs	r3, #1
 8000ca4:	e7e0      	b.n	8000c68 <ADC_Enable+0x28>
 8000ca6:	bf00      	nop
 8000ca8:	20000020 	.word	0x20000020
 8000cac:	000f4240 	.word	0x000f4240

08000cb0 <HAL_ADC_Start_DMA>:
{
 8000cb0:	e92d 41d8 	stmdb	sp!, {r3, r4, r6, r7, r8, lr}
 8000cb4:	4690      	mov	r8, r2
  if(ADC_MULTIMODE_IS_ENABLE(hadc) == RESET)
 8000cb6:	4b40      	ldr	r3, [pc, #256]	; (8000db8 <HAL_ADC_Start_DMA+0x108>)
 8000cb8:	6802      	ldr	r2, [r0, #0]
{
 8000cba:	4604      	mov	r4, r0
  if(ADC_MULTIMODE_IS_ENABLE(hadc) == RESET)
 8000cbc:	429a      	cmp	r2, r3
{
 8000cbe:	460f      	mov	r7, r1
  if(ADC_MULTIMODE_IS_ENABLE(hadc) == RESET)
 8000cc0:	d002      	beq.n	8000cc8 <HAL_ADC_Start_DMA+0x18>
 8000cc2:	493e      	ldr	r1, [pc, #248]	; (8000dbc <HAL_ADC_Start_DMA+0x10c>)
 8000cc4:	428a      	cmp	r2, r1
 8000cc6:	d103      	bne.n	8000cd0 <HAL_ADC_Start_DMA+0x20>
 8000cc8:	685b      	ldr	r3, [r3, #4]
 8000cca:	f413 2f70 	tst.w	r3, #983040	; 0xf0000
 8000cce:	d16e      	bne.n	8000dae <HAL_ADC_Start_DMA+0xfe>
    __HAL_LOCK(hadc);
 8000cd0:	f894 3024 	ldrb.w	r3, [r4, #36]	; 0x24
 8000cd4:	2b01      	cmp	r3, #1
 8000cd6:	d06c      	beq.n	8000db2 <HAL_ADC_Start_DMA+0x102>
 8000cd8:	2301      	movs	r3, #1
    tmp_hal_status = ADC_Enable(hadc);
 8000cda:	4620      	mov	r0, r4
    __HAL_LOCK(hadc);
 8000cdc:	f884 3024 	strb.w	r3, [r4, #36]	; 0x24
    tmp_hal_status = ADC_Enable(hadc);
 8000ce0:	f7ff ffae 	bl	8000c40 <ADC_Enable>
    if (tmp_hal_status == HAL_OK)
 8000ce4:	4606      	mov	r6, r0
 8000ce6:	2800      	cmp	r0, #0
 8000ce8:	d15d      	bne.n	8000da6 <HAL_ADC_Start_DMA+0xf6>
      ADC_STATE_CLR_SET(hadc->State,
 8000cea:	6aa0      	ldr	r0, [r4, #40]	; 0x28
    if (ADC_NONMULTIMODE_OR_MULTIMODEMASTER(hadc))
 8000cec:	6821      	ldr	r1, [r4, #0]
      ADC_STATE_CLR_SET(hadc->State,
 8000cee:	f420 6070 	bic.w	r0, r0, #3840	; 0xf00
    if (ADC_NONMULTIMODE_OR_MULTIMODEMASTER(hadc))
 8000cf2:	4b32      	ldr	r3, [pc, #200]	; (8000dbc <HAL_ADC_Start_DMA+0x10c>)
      ADC_STATE_CLR_SET(hadc->State,
 8000cf4:	f020 0001 	bic.w	r0, r0, #1
 8000cf8:	f440 7080 	orr.w	r0, r0, #256	; 0x100
    if (ADC_NONMULTIMODE_OR_MULTIMODEMASTER(hadc))
 8000cfc:	4299      	cmp	r1, r3
      ADC_STATE_CLR_SET(hadc->State,
 8000cfe:	62a0      	str	r0, [r4, #40]	; 0x28
    if (ADC_NONMULTIMODE_OR_MULTIMODEMASTER(hadc))
 8000d00:	d104      	bne.n	8000d0c <HAL_ADC_Start_DMA+0x5c>
 8000d02:	4a2d      	ldr	r2, [pc, #180]	; (8000db8 <HAL_ADC_Start_DMA+0x108>)
 8000d04:	6853      	ldr	r3, [r2, #4]
 8000d06:	f413 2f70 	tst.w	r3, #983040	; 0xf0000
 8000d0a:	d13e      	bne.n	8000d8a <HAL_ADC_Start_DMA+0xda>
      CLEAR_BIT(hadc->State, HAL_ADC_STATE_MULTIMODE_SLAVE);
 8000d0c:	6aa3      	ldr	r3, [r4, #40]	; 0x28
 8000d0e:	f423 1380 	bic.w	r3, r3, #1048576	; 0x100000
 8000d12:	62a3      	str	r3, [r4, #40]	; 0x28
      if (READ_BIT(hadc->Instance->CR1, ADC_CR1_JAUTO) != RESET)
 8000d14:	684b      	ldr	r3, [r1, #4]
 8000d16:	055a      	lsls	r2, r3, #21
 8000d18:	d505      	bpl.n	8000d26 <HAL_ADC_Start_DMA+0x76>
        ADC_STATE_CLR_SET(hadc->State, HAL_ADC_STATE_INJ_EOC, HAL_ADC_STATE_INJ_BUSY);  
 8000d1a:	6aa3      	ldr	r3, [r4, #40]	; 0x28
 8000d1c:	f423 5340 	bic.w	r3, r3, #12288	; 0x3000
 8000d20:	f443 5380 	orr.w	r3, r3, #4096	; 0x1000
 8000d24:	62a3      	str	r3, [r4, #40]	; 0x28
      if (HAL_IS_BIT_SET(hadc->State, HAL_ADC_STATE_INJ_BUSY))
 8000d26:	6aa3      	ldr	r3, [r4, #40]	; 0x28
      hadc->DMA_Handle->XferCpltCallback = ADC_DMAConvCplt;
 8000d28:	6a20      	ldr	r0, [r4, #32]
      if (HAL_IS_BIT_SET(hadc->State, HAL_ADC_STATE_INJ_BUSY))
 8000d2a:	f413 5380 	ands.w	r3, r3, #4096	; 0x1000
        CLEAR_BIT(hadc->ErrorCode, (HAL_ADC_ERROR_OVR | HAL_ADC_ERROR_DMA));         
 8000d2e:	bf18      	it	ne
 8000d30:	6ae3      	ldrne	r3, [r4, #44]	; 0x2c
      HAL_DMA_Start_IT(hadc->DMA_Handle, (uint32_t)&hadc->Instance->DR, (uint32_t)pData, Length);
 8000d32:	463a      	mov	r2, r7
        CLEAR_BIT(hadc->ErrorCode, (HAL_ADC_ERROR_OVR | HAL_ADC_ERROR_DMA));         
 8000d34:	bf18      	it	ne
 8000d36:	f023 0306 	bicne.w	r3, r3, #6
        ADC_CLEAR_ERRORCODE(hadc);
 8000d3a:	62e3      	str	r3, [r4, #44]	; 0x2c
      __HAL_UNLOCK(hadc);
 8000d3c:	2300      	movs	r3, #0
 8000d3e:	f884 3024 	strb.w	r3, [r4, #36]	; 0x24
      hadc->DMA_Handle->XferCpltCallback = ADC_DMAConvCplt;
 8000d42:	4b1f      	ldr	r3, [pc, #124]	; (8000dc0 <HAL_ADC_Start_DMA+0x110>)
      HAL_DMA_Start_IT(hadc->DMA_Handle, (uint32_t)&hadc->Instance->DR, (uint32_t)pData, Length);
 8000d44:	314c      	adds	r1, #76	; 0x4c
      hadc->DMA_Handle->XferCpltCallback = ADC_DMAConvCplt;
 8000d46:	6283      	str	r3, [r0, #40]	; 0x28
      hadc->DMA_Handle->XferHalfCpltCallback = ADC_DMAHalfConvCplt;
 8000d48:	4b1e      	ldr	r3, [pc, #120]	; (8000dc4 <HAL_ADC_Start_DMA+0x114>)
 8000d4a:	62c3      	str	r3, [r0, #44]	; 0x2c
      hadc->DMA_Handle->XferErrorCallback = ADC_DMAError;
 8000d4c:	4b1e      	ldr	r3, [pc, #120]	; (8000dc8 <HAL_ADC_Start_DMA+0x118>)
 8000d4e:	6303      	str	r3, [r0, #48]	; 0x30
      __HAL_ADC_CLEAR_FLAG(hadc, ADC_FLAG_EOC);
 8000d50:	f06f 0302 	mvn.w	r3, #2
 8000d54:	f841 3c4c 	str.w	r3, [r1, #-76]
      SET_BIT(hadc->Instance->CR2, ADC_CR2_DMA);
 8000d58:	f851 3c44 	ldr.w	r3, [r1, #-68]
 8000d5c:	f443 7380 	orr.w	r3, r3, #256	; 0x100
 8000d60:	f841 3c44 	str.w	r3, [r1, #-68]
      HAL_DMA_Start_IT(hadc->DMA_Handle, (uint32_t)&hadc->Instance->DR, (uint32_t)pData, Length);
 8000d64:	4643      	mov	r3, r8
 8000d66:	f000 f987 	bl	8001078 <HAL_DMA_Start_IT>
      if (ADC_IS_SOFTWARE_START_REGULAR(hadc))
 8000d6a:	6823      	ldr	r3, [r4, #0]
 8000d6c:	689a      	ldr	r2, [r3, #8]
 8000d6e:	f402 2260 	and.w	r2, r2, #917504	; 0xe0000
 8000d72:	f5b2 2f60 	cmp.w	r2, #917504	; 0xe0000
        SET_BIT(hadc->Instance->CR2, (ADC_CR2_SWSTART | ADC_CR2_EXTTRIG));
 8000d76:	689a      	ldr	r2, [r3, #8]
 8000d78:	bf0c      	ite	eq
 8000d7a:	f442 02a0 	orreq.w	r2, r2, #5242880	; 0x500000
        SET_BIT(hadc->Instance->CR2, ADC_CR2_EXTTRIG);
 8000d7e:	f442 1280 	orrne.w	r2, r2, #1048576	; 0x100000
 8000d82:	609a      	str	r2, [r3, #8]
}
 8000d84:	4630      	mov	r0, r6
 8000d86:	e8bd 81d8 	ldmia.w	sp!, {r3, r4, r6, r7, r8, pc}
      SET_BIT(hadc->State, HAL_ADC_STATE_MULTIMODE_SLAVE);
 8000d8a:	6aa3      	ldr	r3, [r4, #40]	; 0x28
 8000d8c:	f443 1380 	orr.w	r3, r3, #1048576	; 0x100000
 8000d90:	62a3      	str	r3, [r4, #40]	; 0x28
      if (ADC_MULTIMODE_AUTO_INJECTED(hadc))
 8000d92:	6853      	ldr	r3, [r2, #4]
 8000d94:	055b      	lsls	r3, r3, #21
        ADC_STATE_CLR_SET(hadc->State, HAL_ADC_STATE_INJ_EOC, HAL_ADC_STATE_INJ_BUSY);
 8000d96:	bf41      	itttt	mi
 8000d98:	6aa0      	ldrmi	r0, [r4, #40]	; 0x28
 8000d9a:	f420 5040 	bicmi.w	r0, r0, #12288	; 0x3000
 8000d9e:	f440 5080 	orrmi.w	r0, r0, #4096	; 0x1000
 8000da2:	62a0      	strmi	r0, [r4, #40]	; 0x28
 8000da4:	e7bf      	b.n	8000d26 <HAL_ADC_Start_DMA+0x76>
      __HAL_UNLOCK(hadc);
 8000da6:	2300      	movs	r3, #0
 8000da8:	f884 3024 	strb.w	r3, [r4, #36]	; 0x24
 8000dac:	e7ea      	b.n	8000d84 <HAL_ADC_Start_DMA+0xd4>
    tmp_hal_status = HAL_ERROR;
 8000dae:	2601      	movs	r6, #1
 8000db0:	e7e8      	b.n	8000d84 <HAL_ADC_Start_DMA+0xd4>
    __HAL_LOCK(hadc);
 8000db2:	2602      	movs	r6, #2
 8000db4:	e7e6      	b.n	8000d84 <HAL_ADC_Start_DMA+0xd4>
 8000db6:	bf00      	nop
 8000db8:	40012400 	.word	0x40012400
 8000dbc:	40012800 	.word	0x40012800
 8000dc0:	08000ac3 	.word	0x08000ac3
 8000dc4:	08000b13 	.word	0x08000b13
 8000dc8:	08000b1f 	.word	0x08000b1f

08000dcc <ADC_ConversionStop_Disable>:
{
 8000dcc:	b538      	push	{r3, r4, r5, lr}
  if (ADC_IS_ENABLE(hadc) != RESET)
 8000dce:	6803      	ldr	r3, [r0, #0]
{
 8000dd0:	4604      	mov	r4, r0
  if (ADC_IS_ENABLE(hadc) != RESET)
 8000dd2:	689a      	ldr	r2, [r3, #8]
 8000dd4:	07d2      	lsls	r2, r2, #31
 8000dd6:	d401      	bmi.n	8000ddc <ADC_ConversionStop_Disable+0x10>
  return HAL_OK;
 8000dd8:	2000      	movs	r0, #0
 8000dda:	bd38      	pop	{r3, r4, r5, pc}
    __HAL_ADC_DISABLE(hadc);
 8000ddc:	689a      	ldr	r2, [r3, #8]
 8000dde:	f022 0201 	bic.w	r2, r2, #1
 8000de2:	609a      	str	r2, [r3, #8]
    tickstart = HAL_GetTick();
 8000de4:	f7ff fe54 	bl	8000a90 <HAL_GetTick>
 8000de8:	4605      	mov	r5, r0
    while(ADC_IS_ENABLE(hadc) != RESET)
 8000dea:	6823      	ldr	r3, [r4, #0]
 8000dec:	689b      	ldr	r3, [r3, #8]
 8000dee:	07db      	lsls	r3, r3, #31
 8000df0:	d5f2      	bpl.n	8000dd8 <ADC_ConversionStop_Disable+0xc>
      if((HAL_GetTick() - tickstart) > ADC_DISABLE_TIMEOUT)
 8000df2:	f7ff fe4d 	bl	8000a90 <HAL_GetTick>
 8000df6:	1b40      	subs	r0, r0, r5
 8000df8:	2802      	cmp	r0, #2
 8000dfa:	d9f6      	bls.n	8000dea <ADC_ConversionStop_Disable+0x1e>
        SET_BIT(hadc->State, HAL_ADC_STATE_ERROR_INTERNAL);
 8000dfc:	6aa3      	ldr	r3, [r4, #40]	; 0x28
        SET_BIT(hadc->ErrorCode, HAL_ADC_ERROR_INTERNAL);
 8000dfe:	2001      	movs	r0, #1
        SET_BIT(hadc->State, HAL_ADC_STATE_ERROR_INTERNAL);
 8000e00:	f043 0310 	orr.w	r3, r3, #16
 8000e04:	62a3      	str	r3, [r4, #40]	; 0x28
        SET_BIT(hadc->ErrorCode, HAL_ADC_ERROR_INTERNAL);
 8000e06:	6ae3      	ldr	r3, [r4, #44]	; 0x2c
 8000e08:	f043 0301 	orr.w	r3, r3, #1
 8000e0c:	62e3      	str	r3, [r4, #44]	; 0x2c
 8000e0e:	bd38      	pop	{r3, r4, r5, pc}

08000e10 <HAL_ADC_Init>:
{
 8000e10:	b5f8      	push	{r3, r4, r5, r6, r7, lr}
  if(hadc == NULL)
 8000e12:	4604      	mov	r4, r0
 8000e14:	2800      	cmp	r0, #0
 8000e16:	d077      	beq.n	8000f08 <HAL_ADC_Init+0xf8>
  if (hadc->State == HAL_ADC_STATE_RESET)
 8000e18:	6a83      	ldr	r3, [r0, #40]	; 0x28
 8000e1a:	b923      	cbnz	r3, 8000e26 <HAL_ADC_Init+0x16>
    ADC_CLEAR_ERRORCODE(hadc);
 8000e1c:	62c3      	str	r3, [r0, #44]	; 0x2c
    hadc->Lock = HAL_UNLOCKED;
 8000e1e:	f880 3024 	strb.w	r3, [r0, #36]	; 0x24
    HAL_ADC_MspInit(hadc);
 8000e22:	f004 faa3 	bl	800536c <HAL_ADC_MspInit>
  tmp_hal_status = ADC_ConversionStop_Disable(hadc);
 8000e26:	4620      	mov	r0, r4
 8000e28:	f7ff ffd0 	bl	8000dcc <ADC_ConversionStop_Disable>
  if (HAL_IS_BIT_CLR(hadc->State, HAL_ADC_STATE_ERROR_INTERNAL) &&
 8000e2c:	6aa3      	ldr	r3, [r4, #40]	; 0x28
 8000e2e:	f013 0310 	ands.w	r3, r3, #16
 8000e32:	d16b      	bne.n	8000f0c <HAL_ADC_Init+0xfc>
 8000e34:	2800      	cmp	r0, #0
 8000e36:	d169      	bne.n	8000f0c <HAL_ADC_Init+0xfc>
    ADC_STATE_CLR_SET(hadc->State,
 8000e38:	6aa2      	ldr	r2, [r4, #40]	; 0x28
                ADC_CFGR_EXTSEL(hadc, hadc->Init.ExternalTrigConv)            |
 8000e3a:	4937      	ldr	r1, [pc, #220]	; (8000f18 <HAL_ADC_Init+0x108>)
    ADC_STATE_CLR_SET(hadc->State,
 8000e3c:	f422 5288 	bic.w	r2, r2, #4352	; 0x1100
 8000e40:	f022 0202 	bic.w	r2, r2, #2
 8000e44:	f042 0202 	orr.w	r2, r2, #2
 8000e48:	62a2      	str	r2, [r4, #40]	; 0x28
                ADC_CFGR_EXTSEL(hadc, hadc->Init.ExternalTrigConv)            |
 8000e4a:	e894 0024 	ldmia.w	r4, {r2, r5}
 8000e4e:	428a      	cmp	r2, r1
 8000e50:	69e1      	ldr	r1, [r4, #28]
 8000e52:	d104      	bne.n	8000e5e <HAL_ADC_Init+0x4e>
 8000e54:	f5b1 2f40 	cmp.w	r1, #786432	; 0xc0000
 8000e58:	bf08      	it	eq
 8000e5a:	f44f 2100 	moveq.w	r1, #524288	; 0x80000
                ADC_CR2_CONTINUOUS((uint32_t)hadc->Init.ContinuousConvMode)   );
 8000e5e:	7b26      	ldrb	r6, [r4, #12]
                ADC_CFGR_EXTSEL(hadc, hadc->Init.ExternalTrigConv)            |
 8000e60:	ea45 0546 	orr.w	r5, r5, r6, lsl #1
 8000e64:	4329      	orrs	r1, r5
    tmp_cr1 |= (ADC_CR1_SCAN_SET(hadc->Init.ScanConvMode));
 8000e66:	68a5      	ldr	r5, [r4, #8]
 8000e68:	f5b5 7f80 	cmp.w	r5, #256	; 0x100
 8000e6c:	d035      	beq.n	8000eda <HAL_ADC_Init+0xca>
 8000e6e:	2d01      	cmp	r5, #1
 8000e70:	bf08      	it	eq
 8000e72:	f44f 7380 	moveq.w	r3, #256	; 0x100
    if (hadc->Init.DiscontinuousConvMode == ENABLE)
 8000e76:	7d27      	ldrb	r7, [r4, #20]
 8000e78:	2f01      	cmp	r7, #1
 8000e7a:	d106      	bne.n	8000e8a <HAL_ADC_Init+0x7a>
      if (hadc->Init.ContinuousConvMode == DISABLE)
 8000e7c:	bb7e      	cbnz	r6, 8000ede <HAL_ADC_Init+0xce>
        SET_BIT(tmp_cr1, ADC_CR1_DISCEN                                            |
 8000e7e:	69a6      	ldr	r6, [r4, #24]
 8000e80:	3e01      	subs	r6, #1
 8000e82:	ea43 3346 	orr.w	r3, r3, r6, lsl #13
 8000e86:	f443 6300 	orr.w	r3, r3, #2048	; 0x800
      MODIFY_REG(hadc->Instance->CR1,
 8000e8a:	6856      	ldr	r6, [r2, #4]
    if (ADC_CR1_SCAN_SET(hadc->Init.ScanConvMode) == ADC_SCAN_ENABLE)
 8000e8c:	f5b5 7f80 	cmp.w	r5, #256	; 0x100
      MODIFY_REG(hadc->Instance->CR1,
 8000e90:	f426 4669 	bic.w	r6, r6, #59648	; 0xe900
 8000e94:	ea43 0306 	orr.w	r3, r3, r6
 8000e98:	6053      	str	r3, [r2, #4]
      MODIFY_REG(hadc->Instance->CR2,
 8000e9a:	6896      	ldr	r6, [r2, #8]
 8000e9c:	4b1f      	ldr	r3, [pc, #124]	; (8000f1c <HAL_ADC_Init+0x10c>)
 8000e9e:	ea03 0306 	and.w	r3, r3, r6
 8000ea2:	ea43 0301 	orr.w	r3, r3, r1
 8000ea6:	6093      	str	r3, [r2, #8]
    if (ADC_CR1_SCAN_SET(hadc->Init.ScanConvMode) == ADC_SCAN_ENABLE)
 8000ea8:	d001      	beq.n	8000eae <HAL_ADC_Init+0x9e>
 8000eaa:	2d01      	cmp	r5, #1
 8000eac:	d120      	bne.n	8000ef0 <HAL_ADC_Init+0xe0>
      tmp_sqr1 = ADC_SQR1_L_SHIFT(hadc->Init.NbrOfConversion);
 8000eae:	6923      	ldr	r3, [r4, #16]
 8000eb0:	3b01      	subs	r3, #1
 8000eb2:	051b      	lsls	r3, r3, #20
    MODIFY_REG(hadc->Instance->SQR1,
 8000eb4:	6ad5      	ldr	r5, [r2, #44]	; 0x2c
 8000eb6:	f425 0570 	bic.w	r5, r5, #15728640	; 0xf00000
 8000eba:	432b      	orrs	r3, r5
 8000ebc:	62d3      	str	r3, [r2, #44]	; 0x2c
    if (READ_BIT(hadc->Instance->CR2, ~(ADC_CR2_ADON | ADC_CR2_DMA |
 8000ebe:	6892      	ldr	r2, [r2, #8]
 8000ec0:	4b17      	ldr	r3, [pc, #92]	; (8000f20 <HAL_ADC_Init+0x110>)
 8000ec2:	4013      	ands	r3, r2
 8000ec4:	4299      	cmp	r1, r3
 8000ec6:	d115      	bne.n	8000ef4 <HAL_ADC_Init+0xe4>
      ADC_CLEAR_ERRORCODE(hadc);
 8000ec8:	2300      	movs	r3, #0
 8000eca:	62e3      	str	r3, [r4, #44]	; 0x2c
      ADC_STATE_CLR_SET(hadc->State,
 8000ecc:	6aa3      	ldr	r3, [r4, #40]	; 0x28
 8000ece:	f023 0303 	bic.w	r3, r3, #3
 8000ed2:	f043 0301 	orr.w	r3, r3, #1
 8000ed6:	62a3      	str	r3, [r4, #40]	; 0x28
 8000ed8:	bdf8      	pop	{r3, r4, r5, r6, r7, pc}
    tmp_cr1 |= (ADC_CR1_SCAN_SET(hadc->Init.ScanConvMode));
 8000eda:	462b      	mov	r3, r5
 8000edc:	e7cb      	b.n	8000e76 <HAL_ADC_Init+0x66>
        SET_BIT(hadc->State, HAL_ADC_STATE_ERROR_CONFIG);
 8000ede:	6aa6      	ldr	r6, [r4, #40]	; 0x28
 8000ee0:	f046 0620 	orr.w	r6, r6, #32
 8000ee4:	62a6      	str	r6, [r4, #40]	; 0x28
        SET_BIT(hadc->ErrorCode, HAL_ADC_ERROR_INTERNAL);
 8000ee6:	6ae6      	ldr	r6, [r4, #44]	; 0x2c
 8000ee8:	f046 0601 	orr.w	r6, r6, #1
 8000eec:	62e6      	str	r6, [r4, #44]	; 0x2c
 8000eee:	e7cc      	b.n	8000e8a <HAL_ADC_Init+0x7a>
  uint32_t tmp_sqr1 = 0U;
 8000ef0:	2300      	movs	r3, #0
 8000ef2:	e7df      	b.n	8000eb4 <HAL_ADC_Init+0xa4>
      ADC_STATE_CLR_SET(hadc->State,
 8000ef4:	6aa3      	ldr	r3, [r4, #40]	; 0x28
 8000ef6:	f023 0312 	bic.w	r3, r3, #18
 8000efa:	f043 0310 	orr.w	r3, r3, #16
 8000efe:	62a3      	str	r3, [r4, #40]	; 0x28
      SET_BIT(hadc->ErrorCode, HAL_ADC_ERROR_INTERNAL);
 8000f00:	6ae3      	ldr	r3, [r4, #44]	; 0x2c
 8000f02:	f043 0301 	orr.w	r3, r3, #1
 8000f06:	62e3      	str	r3, [r4, #44]	; 0x2c
    return HAL_ERROR;
 8000f08:	2001      	movs	r0, #1
}
 8000f0a:	bdf8      	pop	{r3, r4, r5, r6, r7, pc}
    SET_BIT(hadc->State, HAL_ADC_STATE_ERROR_INTERNAL);
 8000f0c:	6aa3      	ldr	r3, [r4, #40]	; 0x28
 8000f0e:	f043 0310 	orr.w	r3, r3, #16
 8000f12:	62a3      	str	r3, [r4, #40]	; 0x28
 8000f14:	e7f8      	b.n	8000f08 <HAL_ADC_Init+0xf8>
 8000f16:	bf00      	nop
 8000f18:	40013c00 	.word	0x40013c00
 8000f1c:	ffe1f7fd 	.word	0xffe1f7fd
 8000f20:	ff1f0efe 	.word	0xff1f0efe

08000f24 <HAL_NVIC_SetPriorityGrouping>:
__STATIC_INLINE void __NVIC_SetPriorityGrouping(uint32_t PriorityGroup)
{
  uint32_t reg_value;
  uint32_t PriorityGroupTmp = (PriorityGroup & (uint32_t)0x07UL);             /* only values 0..7 are used          */

  reg_value  =  SCB->AIRCR;                                                   /* read old register configuration    */
 8000f24:	4a07      	ldr	r2, [pc, #28]	; (8000f44 <HAL_NVIC_SetPriorityGrouping+0x20>)
  reg_value &= ~((uint32_t)(SCB_AIRCR_VECTKEY_Msk | SCB_AIRCR_PRIGROUP_Msk)); /* clear bits to change               */
  reg_value  =  (reg_value                                   |
                ((uint32_t)0x5FAUL << SCB_AIRCR_VECTKEY_Pos) |
                (PriorityGroupTmp << SCB_AIRCR_PRIGROUP_Pos) );               /* Insert write key and priority group */
 8000f26:	0200      	lsls	r0, r0, #8
  reg_value  =  SCB->AIRCR;                                                   /* read old register configuration    */
 8000f28:	68d3      	ldr	r3, [r2, #12]
                (PriorityGroupTmp << SCB_AIRCR_PRIGROUP_Pos) );               /* Insert write key and priority group */
 8000f2a:	f400 60e0 	and.w	r0, r0, #1792	; 0x700
  reg_value &= ~((uint32_t)(SCB_AIRCR_VECTKEY_Msk | SCB_AIRCR_PRIGROUP_Msk)); /* clear bits to change               */
 8000f2e:	f423 63e0 	bic.w	r3, r3, #1792	; 0x700
 8000f32:	041b      	lsls	r3, r3, #16
 8000f34:	0c1b      	lsrs	r3, r3, #16
 8000f36:	f043 63bf 	orr.w	r3, r3, #100139008	; 0x5f80000
 8000f3a:	f443 3300 	orr.w	r3, r3, #131072	; 0x20000
  reg_value  =  (reg_value                                   |
 8000f3e:	4303      	orrs	r3, r0
  SCB->AIRCR =  reg_value;
 8000f40:	60d3      	str	r3, [r2, #12]
 8000f42:	4770      	bx	lr
 8000f44:	e000ed00 	.word	0xe000ed00

08000f48 <HAL_NVIC_SetPriority>:
  \details Reads the priority grouping field from the NVIC Interrupt Controller.
  \return                Priority grouping field (SCB->AIRCR [10:8] PRIGROUP field).
 */
__STATIC_INLINE uint32_t __NVIC_GetPriorityGrouping(void)
{
  return ((uint32_t)((SCB->AIRCR & SCB_AIRCR_PRIGROUP_Msk) >> SCB_AIRCR_PRIGROUP_Pos));
 8000f48:	4b17      	ldr	r3, [pc, #92]	; (8000fa8 <HAL_NVIC_SetPriority+0x60>)
  *         This parameter can be a value between 0 and 15
  *         A lower priority value indicates a higher priority.          
  * @retval None
  */
void HAL_NVIC_SetPriority(IRQn_Type IRQn, uint32_t PreemptPriority, uint32_t SubPriority)
{ 
 8000f4a:	b530      	push	{r4, r5, lr}
 8000f4c:	68dc      	ldr	r4, [r3, #12]
 8000f4e:	f3c4 2402 	ubfx	r4, r4, #8, #3
{
  uint32_t PriorityGroupTmp = (PriorityGroup & (uint32_t)0x07UL);   /* only values 0..7 are used          */
  uint32_t PreemptPriorityBits;
  uint32_t SubPriorityBits;

  PreemptPriorityBits = ((7UL - PriorityGroupTmp) > (uint32_t)(__NVIC_PRIO_BITS)) ? (uint32_t)(__NVIC_PRIO_BITS) : (uint32_t)(7UL - PriorityGroupTmp);
 8000f52:	f1c4 0307 	rsb	r3, r4, #7
  SubPriorityBits     = ((PriorityGroupTmp + (uint32_t)(__NVIC_PRIO_BITS)) < (uint32_t)7UL) ? (uint32_t)0UL : (uint32_t)((PriorityGroupTmp - 7UL) + (uint32_t)(__NVIC_PRIO_BITS));
 8000f56:	1d25      	adds	r5, r4, #4
  PreemptPriorityBits = ((7UL - PriorityGroupTmp) > (uint32_t)(__NVIC_PRIO_BITS)) ? (uint32_t)(__NVIC_PRIO_BITS) : (uint32_t)(7UL - PriorityGroupTmp);
 8000f58:	2b04      	cmp	r3, #4
 8000f5a:	bf28      	it	cs
 8000f5c:	2304      	movcs	r3, #4
  SubPriorityBits     = ((PriorityGroupTmp + (uint32_t)(__NVIC_PRIO_BITS)) < (uint32_t)7UL) ? (uint32_t)0UL : (uint32_t)((PriorityGroupTmp - 7UL) + (uint32_t)(__NVIC_PRIO_BITS));
 8000f5e:	2d06      	cmp	r5, #6

  return (
           ((PreemptPriority & (uint32_t)((1UL << (PreemptPriorityBits)) - 1UL)) << SubPriorityBits) |
 8000f60:	f04f 0501 	mov.w	r5, #1
  SubPriorityBits     = ((PriorityGroupTmp + (uint32_t)(__NVIC_PRIO_BITS)) < (uint32_t)7UL) ? (uint32_t)0UL : (uint32_t)((PriorityGroupTmp - 7UL) + (uint32_t)(__NVIC_PRIO_BITS));
 8000f64:	bf98      	it	ls
 8000f66:	2400      	movls	r4, #0
           ((PreemptPriority & (uint32_t)((1UL << (PreemptPriorityBits)) - 1UL)) << SubPriorityBits) |
 8000f68:	fa05 f303 	lsl.w	r3, r5, r3
 8000f6c:	f103 33ff 	add.w	r3, r3, #4294967295
  SubPriorityBits     = ((PriorityGroupTmp + (uint32_t)(__NVIC_PRIO_BITS)) < (uint32_t)7UL) ? (uint32_t)0UL : (uint32_t)((PriorityGroupTmp - 7UL) + (uint32_t)(__NVIC_PRIO_BITS));
 8000f70:	bf88      	it	hi
 8000f72:	3c03      	subhi	r4, #3
           ((PreemptPriority & (uint32_t)((1UL << (PreemptPriorityBits)) - 1UL)) << SubPriorityBits) |
 8000f74:	4019      	ands	r1, r3
 8000f76:	40a1      	lsls	r1, r4
           ((SubPriority     & (uint32_t)((1UL << (SubPriorityBits    )) - 1UL)))
 8000f78:	fa05 f404 	lsl.w	r4, r5, r4
 8000f7c:	3c01      	subs	r4, #1
 8000f7e:	4022      	ands	r2, r4
  if ((int32_t)(IRQn) >= 0)
 8000f80:	2800      	cmp	r0, #0
           ((PreemptPriority & (uint32_t)((1UL << (PreemptPriorityBits)) - 1UL)) << SubPriorityBits) |
 8000f82:	ea42 0201 	orr.w	r2, r2, r1
 8000f86:	ea4f 1202 	mov.w	r2, r2, lsl #4
    NVIC->IP[((uint32_t)IRQn)]               = (uint8_t)((priority << (8U - __NVIC_PRIO_BITS)) & (uint32_t)0xFFUL);
 8000f8a:	bfa9      	itett	ge
 8000f8c:	f100 4060 	addge.w	r0, r0, #3758096384	; 0xe0000000
    SCB->SHP[(((uint32_t)IRQn) & 0xFUL)-4UL] = (uint8_t)((priority << (8U - __NVIC_PRIO_BITS)) & (uint32_t)0xFFUL);
 8000f90:	4b06      	ldrlt	r3, [pc, #24]	; (8000fac <HAL_NVIC_SetPriority+0x64>)
    NVIC->IP[((uint32_t)IRQn)]               = (uint8_t)((priority << (8U - __NVIC_PRIO_BITS)) & (uint32_t)0xFFUL);
 8000f92:	b2d2      	uxtbge	r2, r2
 8000f94:	f500 4061 	addge.w	r0, r0, #57600	; 0xe100
    SCB->SHP[(((uint32_t)IRQn) & 0xFUL)-4UL] = (uint8_t)((priority << (8U - __NVIC_PRIO_BITS)) & (uint32_t)0xFFUL);
 8000f98:	bfbb      	ittet	lt
 8000f9a:	f000 000f 	andlt.w	r0, r0, #15
 8000f9e:	b2d2      	uxtblt	r2, r2
    NVIC->IP[((uint32_t)IRQn)]               = (uint8_t)((priority << (8U - __NVIC_PRIO_BITS)) & (uint32_t)0xFFUL);
 8000fa0:	f880 2300 	strbge.w	r2, [r0, #768]	; 0x300
    SCB->SHP[(((uint32_t)IRQn) & 0xFUL)-4UL] = (uint8_t)((priority << (8U - __NVIC_PRIO_BITS)) & (uint32_t)0xFFUL);
 8000fa4:	541a      	strblt	r2, [r3, r0]
 8000fa6:	bd30      	pop	{r4, r5, pc}
 8000fa8:	e000ed00 	.word	0xe000ed00
 8000fac:	e000ed14 	.word	0xe000ed14

08000fb0 <HAL_NVIC_EnableIRQ>:
  if ((int32_t)(IRQn) >= 0)
 8000fb0:	2800      	cmp	r0, #0
 8000fb2:	db08      	blt.n	8000fc6 <HAL_NVIC_EnableIRQ+0x16>
    NVIC->ISER[(((uint32_t)IRQn) >> 5UL)] = (uint32_t)(1UL << (((uint32_t)IRQn) & 0x1FUL));
 8000fb4:	2301      	movs	r3, #1
 8000fb6:	0942      	lsrs	r2, r0, #5
 8000fb8:	f000 001f 	and.w	r0, r0, #31
 8000fbc:	fa03 f000 	lsl.w	r0, r3, r0
 8000fc0:	4b01      	ldr	r3, [pc, #4]	; (8000fc8 <HAL_NVIC_EnableIRQ+0x18>)
 8000fc2:	f843 0022 	str.w	r0, [r3, r2, lsl #2]
 8000fc6:	4770      	bx	lr
 8000fc8:	e000e100 	.word	0xe000e100

08000fcc <HAL_SYSTICK_Config>:
           function <b>SysTick_Config</b> is not included. In this case, the file <b><i>device</i>.h</b>
           must contain a vendor-specific implementation of this function.
 */
__STATIC_INLINE uint32_t SysTick_Config(uint32_t ticks)
{
  if ((ticks - 1UL) > SysTick_LOAD_RELOAD_Msk)
 8000fcc:	3801      	subs	r0, #1
 8000fce:	f1b0 7f80 	cmp.w	r0, #16777216	; 0x1000000
 8000fd2:	d20a      	bcs.n	8000fea <HAL_SYSTICK_Config+0x1e>
    SCB->SHP[(((uint32_t)IRQn) & 0xFUL)-4UL] = (uint8_t)((priority << (8U - __NVIC_PRIO_BITS)) & (uint32_t)0xFFUL);
 8000fd4:	21f0      	movs	r1, #240	; 0xf0
  {
    return (1UL);                                                   /* Reload value impossible */
  }

  SysTick->LOAD  = (uint32_t)(ticks - 1UL);                         /* set reload register */
 8000fd6:	4b06      	ldr	r3, [pc, #24]	; (8000ff0 <HAL_SYSTICK_Config+0x24>)
    SCB->SHP[(((uint32_t)IRQn) & 0xFUL)-4UL] = (uint8_t)((priority << (8U - __NVIC_PRIO_BITS)) & (uint32_t)0xFFUL);
 8000fd8:	4a06      	ldr	r2, [pc, #24]	; (8000ff4 <HAL_SYSTICK_Config+0x28>)
  SysTick->LOAD  = (uint32_t)(ticks - 1UL);                         /* set reload register */
 8000fda:	6058      	str	r0, [r3, #4]
    SCB->SHP[(((uint32_t)IRQn) & 0xFUL)-4UL] = (uint8_t)((priority << (8U - __NVIC_PRIO_BITS)) & (uint32_t)0xFFUL);
 8000fdc:	f882 1023 	strb.w	r1, [r2, #35]	; 0x23
  NVIC_SetPriority (SysTick_IRQn, (1UL << __NVIC_PRIO_BITS) - 1UL); /* set Priority for Systick Interrupt */
  SysTick->VAL   = 0UL;                                             /* Load the SysTick Counter Value */
 8000fe0:	2000      	movs	r0, #0
  SysTick->CTRL  = SysTick_CTRL_CLKSOURCE_Msk |
 8000fe2:	2207      	movs	r2, #7
  SysTick->VAL   = 0UL;                                             /* Load the SysTick Counter Value */
 8000fe4:	6098      	str	r0, [r3, #8]
  SysTick->CTRL  = SysTick_CTRL_CLKSOURCE_Msk |
 8000fe6:	601a      	str	r2, [r3, #0]
 8000fe8:	4770      	bx	lr
    return (1UL);                                                   /* Reload value impossible */
 8000fea:	2001      	movs	r0, #1
  *                  - 1  Function failed.
  */
uint32_t HAL_SYSTICK_Config(uint32_t TicksNumb)
{
   return SysTick_Config(TicksNumb);
}
 8000fec:	4770      	bx	lr
 8000fee:	bf00      	nop
 8000ff0:	e000e010 	.word	0xe000e010
 8000ff4:	e000ed00 	.word	0xe000ed00

08000ff8 <HAL_DMA_Init>:
  * @param  hdma: Pointer to a DMA_HandleTypeDef structure that contains
  *               the configuration information for the specified DMA Channel.
  * @retval HAL status
  */
HAL_StatusTypeDef HAL_DMA_Init(DMA_HandleTypeDef *hdma)
{
 8000ff8:	b510      	push	{r4, lr}
  uint32_t tmp = 0U;

  /* Check the DMA handle allocation */
  if(hdma == NULL)
 8000ffa:	2800      	cmp	r0, #0
 8000ffc:	d032      	beq.n	8001064 <HAL_DMA_Init+0x6c>
  assert_param(IS_DMA_MODE(hdma->Init.Mode));
  assert_param(IS_DMA_PRIORITY(hdma->Init.Priority));

#if defined (DMA2)
  /* calculation of the channel index */
  if ((uint32_t)(hdma->Instance) < (uint32_t)(DMA2_Channel1))
 8000ffe:	6801      	ldr	r1, [r0, #0]
 8001000:	4b19      	ldr	r3, [pc, #100]	; (8001068 <HAL_DMA_Init+0x70>)
 8001002:	2414      	movs	r4, #20
 8001004:	4299      	cmp	r1, r3
 8001006:	d825      	bhi.n	8001054 <HAL_DMA_Init+0x5c>
  {
    /* DMA1 */
    hdma->ChannelIndex = (((uint32_t)hdma->Instance - (uint32_t)DMA1_Channel1) / ((uint32_t)DMA1_Channel2 - (uint32_t)DMA1_Channel1)) << 2;
 8001008:	4a18      	ldr	r2, [pc, #96]	; (800106c <HAL_DMA_Init+0x74>)
    hdma->DmaBaseAddress = DMA1;
 800100a:	f2a3 4307 	subw	r3, r3, #1031	; 0x407
    hdma->ChannelIndex = (((uint32_t)hdma->Instance - (uint32_t)DMA1_Channel1) / ((uint32_t)DMA1_Channel2 - (uint32_t)DMA1_Channel1)) << 2;
 800100e:	440a      	add	r2, r1
 8001010:	fbb2 f2f4 	udiv	r2, r2, r4
 8001014:	0092      	lsls	r2, r2, #2
 8001016:	6402      	str	r2, [r0, #64]	; 0x40
  tmp &= ((uint32_t)~(DMA_CCR_PL    | DMA_CCR_MSIZE  | DMA_CCR_PSIZE  | \
                      DMA_CCR_MINC  | DMA_CCR_PINC   | DMA_CCR_CIRC   | \
                      DMA_CCR_DIR));

  /* Prepare the DMA Channel configuration */
  tmp |=  hdma->Init.Direction        |
 8001018:	6884      	ldr	r4, [r0, #8]
    hdma->DmaBaseAddress = DMA2;
 800101a:	63c3      	str	r3, [r0, #60]	; 0x3c
  tmp |=  hdma->Init.Direction        |
 800101c:	6843      	ldr	r3, [r0, #4]
  tmp = hdma->Instance->CCR;
 800101e:	680a      	ldr	r2, [r1, #0]
  tmp |=  hdma->Init.Direction        |
 8001020:	4323      	orrs	r3, r4
          hdma->Init.PeriphInc           | hdma->Init.MemInc           |
 8001022:	68c4      	ldr	r4, [r0, #12]
  tmp &= ((uint32_t)~(DMA_CCR_PL    | DMA_CCR_MSIZE  | DMA_CCR_PSIZE  | \
 8001024:	f422 527f 	bic.w	r2, r2, #16320	; 0x3fc0
          hdma->Init.PeriphInc           | hdma->Init.MemInc           |
 8001028:	4323      	orrs	r3, r4
 800102a:	6904      	ldr	r4, [r0, #16]
  tmp &= ((uint32_t)~(DMA_CCR_PL    | DMA_CCR_MSIZE  | DMA_CCR_PSIZE  | \
 800102c:	f022 0230 	bic.w	r2, r2, #48	; 0x30
          hdma->Init.PeriphInc           | hdma->Init.MemInc           |
 8001030:	4323      	orrs	r3, r4
          hdma->Init.PeriphDataAlignment | hdma->Init.MemDataAlignment |
 8001032:	6944      	ldr	r4, [r0, #20]
 8001034:	4323      	orrs	r3, r4
 8001036:	6984      	ldr	r4, [r0, #24]
 8001038:	4323      	orrs	r3, r4
          hdma->Init.Mode                | hdma->Init.Priority;
 800103a:	69c4      	ldr	r4, [r0, #28]
 800103c:	4323      	orrs	r3, r4
  tmp |=  hdma->Init.Direction        |
 800103e:	4313      	orrs	r3, r2

  /* Write to DMA Channel CR register */
  hdma->Instance->CCR = tmp;
 8001040:	600b      	str	r3, [r1, #0]

  /* Initialise the error code */
  hdma->ErrorCode = HAL_DMA_ERROR_NONE;

  /* Initialize the DMA state*/
  hdma->State = HAL_DMA_STATE_READY;
 8001042:	2201      	movs	r2, #1
  hdma->ErrorCode = HAL_DMA_ERROR_NONE;
 8001044:	2300      	movs	r3, #0
  hdma->State = HAL_DMA_STATE_READY;
 8001046:	f880 2021 	strb.w	r2, [r0, #33]	; 0x21
  hdma->ErrorCode = HAL_DMA_ERROR_NONE;
 800104a:	6383      	str	r3, [r0, #56]	; 0x38
  /* Allocate lock resource and initialize it */
  hdma->Lock = HAL_UNLOCKED;
 800104c:	f880 3020 	strb.w	r3, [r0, #32]

  return HAL_OK;
 8001050:	4618      	mov	r0, r3
 8001052:	bd10      	pop	{r4, pc}
    hdma->ChannelIndex = (((uint32_t)hdma->Instance - (uint32_t)DMA2_Channel1) / ((uint32_t)DMA2_Channel2 - (uint32_t)DMA2_Channel1)) << 2;
 8001054:	4b06      	ldr	r3, [pc, #24]	; (8001070 <HAL_DMA_Init+0x78>)
 8001056:	440b      	add	r3, r1
 8001058:	fbb3 f3f4 	udiv	r3, r3, r4
 800105c:	009b      	lsls	r3, r3, #2
 800105e:	6403      	str	r3, [r0, #64]	; 0x40
    hdma->DmaBaseAddress = DMA2;
 8001060:	4b04      	ldr	r3, [pc, #16]	; (8001074 <HAL_DMA_Init+0x7c>)
 8001062:	e7d9      	b.n	8001018 <HAL_DMA_Init+0x20>
    return HAL_ERROR;
 8001064:	2001      	movs	r0, #1
}
 8001066:	bd10      	pop	{r4, pc}
 8001068:	40020407 	.word	0x40020407
 800106c:	bffdfff8 	.word	0xbffdfff8
 8001070:	bffdfbf8 	.word	0xbffdfbf8
 8001074:	40020400 	.word	0x40020400

08001078 <HAL_DMA_Start_IT>:
  * @param  DstAddress: The destination memory Buffer address
  * @param  DataLength: The length of data to be transferred from source to destination
  * @retval HAL status
  */
HAL_StatusTypeDef HAL_DMA_Start_IT(DMA_HandleTypeDef *hdma, uint32_t SrcAddress, uint32_t DstAddress, uint32_t DataLength)
{
 8001078:	b5f0      	push	{r4, r5, r6, r7, lr}

  /* Check the parameters */
  assert_param(IS_DMA_BUFFER_SIZE(DataLength));

  /* Process locked */
  __HAL_LOCK(hdma);
 800107a:	f890 4020 	ldrb.w	r4, [r0, #32]
 800107e:	2c01      	cmp	r4, #1
 8001080:	d035      	beq.n	80010ee <HAL_DMA_Start_IT+0x76>
 8001082:	2401      	movs	r4, #1
  
  if(HAL_DMA_STATE_READY == hdma->State)
 8001084:	f890 5021 	ldrb.w	r5, [r0, #33]	; 0x21
  __HAL_LOCK(hdma);
 8001088:	f880 4020 	strb.w	r4, [r0, #32]
  if(HAL_DMA_STATE_READY == hdma->State)
 800108c:	42a5      	cmp	r5, r4
 800108e:	f04f 0600 	mov.w	r6, #0
 8001092:	f04f 0402 	mov.w	r4, #2
 8001096:	d128      	bne.n	80010ea <HAL_DMA_Start_IT+0x72>
  {
    /* Change DMA peripheral state */
    hdma->State = HAL_DMA_STATE_BUSY;
 8001098:	f880 4021 	strb.w	r4, [r0, #33]	; 0x21
    hdma->ErrorCode = HAL_DMA_ERROR_NONE;
    
    /* Disable the peripheral */
    __HAL_DMA_DISABLE(hdma);
 800109c:	6804      	ldr	r4, [r0, #0]
    hdma->ErrorCode = HAL_DMA_ERROR_NONE;
 800109e:	6386      	str	r6, [r0, #56]	; 0x38
    __HAL_DMA_DISABLE(hdma);
 80010a0:	6826      	ldr	r6, [r4, #0]
  * @retval HAL status
  */
static void DMA_SetConfig(DMA_HandleTypeDef *hdma, uint32_t SrcAddress, uint32_t DstAddress, uint32_t DataLength)
{
  /* Clear all flags */
  hdma->DmaBaseAddress->IFCR = (DMA_ISR_GIF1 << hdma->ChannelIndex);
 80010a2:	6c07      	ldr	r7, [r0, #64]	; 0x40
    __HAL_DMA_DISABLE(hdma);
 80010a4:	f026 0601 	bic.w	r6, r6, #1
 80010a8:	6026      	str	r6, [r4, #0]
  hdma->DmaBaseAddress->IFCR = (DMA_ISR_GIF1 << hdma->ChannelIndex);
 80010aa:	6bc6      	ldr	r6, [r0, #60]	; 0x3c
 80010ac:	40bd      	lsls	r5, r7
 80010ae:	6075      	str	r5, [r6, #4]

  /* Configure DMA Channel data length */
  hdma->Instance->CNDTR = DataLength;
 80010b0:	6063      	str	r3, [r4, #4]

  /* Memory to Peripheral */
  if((hdma->Init.Direction) == DMA_MEMORY_TO_PERIPH)
 80010b2:	6843      	ldr	r3, [r0, #4]
 80010b4:	6805      	ldr	r5, [r0, #0]
 80010b6:	2b10      	cmp	r3, #16
    if(NULL != hdma->XferHalfCpltCallback)
 80010b8:	6ac3      	ldr	r3, [r0, #44]	; 0x2c
  {
    /* Configure DMA Channel destination address */
    hdma->Instance->CPAR = DstAddress;
 80010ba:	bf0b      	itete	eq
 80010bc:	60a2      	streq	r2, [r4, #8]
  }
  /* Peripheral to Memory */
  else
  {
    /* Configure DMA Channel source address */
    hdma->Instance->CPAR = SrcAddress;
 80010be:	60a1      	strne	r1, [r4, #8]
    hdma->Instance->CMAR = SrcAddress;
 80010c0:	60e1      	streq	r1, [r4, #12]

    /* Configure DMA Channel destination address */
    hdma->Instance->CMAR = DstAddress;
 80010c2:	60e2      	strne	r2, [r4, #12]
    if(NULL != hdma->XferHalfCpltCallback)
 80010c4:	b14b      	cbz	r3, 80010da <HAL_DMA_Start_IT+0x62>
      __HAL_DMA_ENABLE_IT(hdma, (DMA_IT_TC | DMA_IT_HT | DMA_IT_TE));
 80010c6:	6823      	ldr	r3, [r4, #0]
 80010c8:	f043 030e 	orr.w	r3, r3, #14
      __HAL_DMA_ENABLE_IT(hdma, (DMA_IT_TC | DMA_IT_TE));
 80010cc:	6023      	str	r3, [r4, #0]
    __HAL_DMA_ENABLE(hdma);
 80010ce:	682b      	ldr	r3, [r5, #0]
  HAL_StatusTypeDef status = HAL_OK;
 80010d0:	2000      	movs	r0, #0
    __HAL_DMA_ENABLE(hdma);
 80010d2:	f043 0301 	orr.w	r3, r3, #1
 80010d6:	602b      	str	r3, [r5, #0]
 80010d8:	bdf0      	pop	{r4, r5, r6, r7, pc}
      __HAL_DMA_DISABLE_IT(hdma, DMA_IT_HT);
 80010da:	6823      	ldr	r3, [r4, #0]
 80010dc:	f023 0304 	bic.w	r3, r3, #4
 80010e0:	6023      	str	r3, [r4, #0]
      __HAL_DMA_ENABLE_IT(hdma, (DMA_IT_TC | DMA_IT_TE));
 80010e2:	6823      	ldr	r3, [r4, #0]
 80010e4:	f043 030a 	orr.w	r3, r3, #10
 80010e8:	e7f0      	b.n	80010cc <HAL_DMA_Start_IT+0x54>
    __HAL_UNLOCK(hdma); 
 80010ea:	f880 6020 	strb.w	r6, [r0, #32]
  __HAL_LOCK(hdma);
 80010ee:	2002      	movs	r0, #2
}
 80010f0:	bdf0      	pop	{r4, r5, r6, r7, pc}
	...

080010f4 <HAL_DMA_IRQHandler>:
{
 80010f4:	b470      	push	{r4, r5, r6}
  if (((flag_it & (DMA_FLAG_HT1 << hdma->ChannelIndex)) != RESET) && ((source_it & DMA_IT_HT) != RESET))
 80010f6:	2504      	movs	r5, #4
  uint32_t flag_it = hdma->DmaBaseAddress->ISR;
 80010f8:	6bc6      	ldr	r6, [r0, #60]	; 0x3c
  if (((flag_it & (DMA_FLAG_HT1 << hdma->ChannelIndex)) != RESET) && ((source_it & DMA_IT_HT) != RESET))
 80010fa:	6c02      	ldr	r2, [r0, #64]	; 0x40
  uint32_t flag_it = hdma->DmaBaseAddress->ISR;
 80010fc:	6834      	ldr	r4, [r6, #0]
  uint32_t source_it = hdma->Instance->CCR;
 80010fe:	6803      	ldr	r3, [r0, #0]
  if (((flag_it & (DMA_FLAG_HT1 << hdma->ChannelIndex)) != RESET) && ((source_it & DMA_IT_HT) != RESET))
 8001100:	4095      	lsls	r5, r2
 8001102:	4225      	tst	r5, r4
  uint32_t source_it = hdma->Instance->CCR;
 8001104:	6819      	ldr	r1, [r3, #0]
  if (((flag_it & (DMA_FLAG_HT1 << hdma->ChannelIndex)) != RESET) && ((source_it & DMA_IT_HT) != RESET))
 8001106:	d055      	beq.n	80011b4 <HAL_DMA_IRQHandler+0xc0>
 8001108:	074d      	lsls	r5, r1, #29
 800110a:	d553      	bpl.n	80011b4 <HAL_DMA_IRQHandler+0xc0>
    if((hdma->Instance->CCR & DMA_CCR_CIRC) == 0U)
 800110c:	681a      	ldr	r2, [r3, #0]
 800110e:	0696      	lsls	r6, r2, #26
      __HAL_DMA_DISABLE_IT(hdma, DMA_IT_HT);
 8001110:	bf5e      	ittt	pl
 8001112:	681a      	ldrpl	r2, [r3, #0]
 8001114:	f022 0204 	bicpl.w	r2, r2, #4
 8001118:	601a      	strpl	r2, [r3, #0]
    __HAL_DMA_CLEAR_FLAG(hdma, __HAL_DMA_GET_HT_FLAG_INDEX(hdma));
 800111a:	4a60      	ldr	r2, [pc, #384]	; (800129c <HAL_DMA_IRQHandler+0x1a8>)
 800111c:	4293      	cmp	r3, r2
 800111e:	d91f      	bls.n	8001160 <HAL_DMA_IRQHandler+0x6c>
 8001120:	f502 7262 	add.w	r2, r2, #904	; 0x388
 8001124:	4293      	cmp	r3, r2
 8001126:	d014      	beq.n	8001152 <HAL_DMA_IRQHandler+0x5e>
 8001128:	3214      	adds	r2, #20
 800112a:	4293      	cmp	r3, r2
 800112c:	d013      	beq.n	8001156 <HAL_DMA_IRQHandler+0x62>
 800112e:	3214      	adds	r2, #20
 8001130:	4293      	cmp	r3, r2
 8001132:	d012      	beq.n	800115a <HAL_DMA_IRQHandler+0x66>
 8001134:	3214      	adds	r2, #20
 8001136:	4293      	cmp	r3, r2
 8001138:	bf0c      	ite	eq
 800113a:	f44f 4380 	moveq.w	r3, #16384	; 0x4000
 800113e:	f44f 2380 	movne.w	r3, #262144	; 0x40000
 8001142:	4a57      	ldr	r2, [pc, #348]	; (80012a0 <HAL_DMA_IRQHandler+0x1ac>)
 8001144:	6053      	str	r3, [r2, #4]
    if(hdma->XferHalfCpltCallback != NULL)
 8001146:	6ac3      	ldr	r3, [r0, #44]	; 0x2c
    if (hdma->XferErrorCallback != NULL)
 8001148:	2b00      	cmp	r3, #0
 800114a:	f000 80a5 	beq.w	8001298 <HAL_DMA_IRQHandler+0x1a4>
}
 800114e:	bc70      	pop	{r4, r5, r6}
      hdma->XferErrorCallback(hdma);
 8001150:	4718      	bx	r3
    __HAL_DMA_CLEAR_FLAG(hdma, __HAL_DMA_GET_HT_FLAG_INDEX(hdma));
 8001152:	2304      	movs	r3, #4
 8001154:	e7f5      	b.n	8001142 <HAL_DMA_IRQHandler+0x4e>
 8001156:	2340      	movs	r3, #64	; 0x40
 8001158:	e7f3      	b.n	8001142 <HAL_DMA_IRQHandler+0x4e>
 800115a:	f44f 6380 	mov.w	r3, #1024	; 0x400
 800115e:	e7f0      	b.n	8001142 <HAL_DMA_IRQHandler+0x4e>
 8001160:	4950      	ldr	r1, [pc, #320]	; (80012a4 <HAL_DMA_IRQHandler+0x1b0>)
 8001162:	428b      	cmp	r3, r1
 8001164:	d016      	beq.n	8001194 <HAL_DMA_IRQHandler+0xa0>
 8001166:	3114      	adds	r1, #20
 8001168:	428b      	cmp	r3, r1
 800116a:	d015      	beq.n	8001198 <HAL_DMA_IRQHandler+0xa4>
 800116c:	3114      	adds	r1, #20
 800116e:	428b      	cmp	r3, r1
 8001170:	d014      	beq.n	800119c <HAL_DMA_IRQHandler+0xa8>
 8001172:	3114      	adds	r1, #20
 8001174:	428b      	cmp	r3, r1
 8001176:	d014      	beq.n	80011a2 <HAL_DMA_IRQHandler+0xae>
 8001178:	3114      	adds	r1, #20
 800117a:	428b      	cmp	r3, r1
 800117c:	d014      	beq.n	80011a8 <HAL_DMA_IRQHandler+0xb4>
 800117e:	3114      	adds	r1, #20
 8001180:	428b      	cmp	r3, r1
 8001182:	d014      	beq.n	80011ae <HAL_DMA_IRQHandler+0xba>
 8001184:	4293      	cmp	r3, r2
 8001186:	bf14      	ite	ne
 8001188:	f44f 2380 	movne.w	r3, #262144	; 0x40000
 800118c:	f04f 6380 	moveq.w	r3, #67108864	; 0x4000000
 8001190:	4a45      	ldr	r2, [pc, #276]	; (80012a8 <HAL_DMA_IRQHandler+0x1b4>)
 8001192:	e7d7      	b.n	8001144 <HAL_DMA_IRQHandler+0x50>
 8001194:	2304      	movs	r3, #4
 8001196:	e7fb      	b.n	8001190 <HAL_DMA_IRQHandler+0x9c>
 8001198:	2340      	movs	r3, #64	; 0x40
 800119a:	e7f9      	b.n	8001190 <HAL_DMA_IRQHandler+0x9c>
 800119c:	f44f 6380 	mov.w	r3, #1024	; 0x400
 80011a0:	e7f6      	b.n	8001190 <HAL_DMA_IRQHandler+0x9c>
 80011a2:	f44f 4380 	mov.w	r3, #16384	; 0x4000
 80011a6:	e7f3      	b.n	8001190 <HAL_DMA_IRQHandler+0x9c>
 80011a8:	f44f 2380 	mov.w	r3, #262144	; 0x40000
 80011ac:	e7f0      	b.n	8001190 <HAL_DMA_IRQHandler+0x9c>
 80011ae:	f44f 0380 	mov.w	r3, #4194304	; 0x400000
 80011b2:	e7ed      	b.n	8001190 <HAL_DMA_IRQHandler+0x9c>
  else if (((flag_it & (DMA_FLAG_TC1 << hdma->ChannelIndex)) != RESET) && ((source_it & DMA_IT_TC) != RESET))
 80011b4:	2502      	movs	r5, #2
 80011b6:	4095      	lsls	r5, r2
 80011b8:	4225      	tst	r5, r4
 80011ba:	d057      	beq.n	800126c <HAL_DMA_IRQHandler+0x178>
 80011bc:	078d      	lsls	r5, r1, #30
 80011be:	d555      	bpl.n	800126c <HAL_DMA_IRQHandler+0x178>
    if((hdma->Instance->CCR & DMA_CCR_CIRC) == 0U)
 80011c0:	681a      	ldr	r2, [r3, #0]
 80011c2:	0694      	lsls	r4, r2, #26
 80011c4:	d406      	bmi.n	80011d4 <HAL_DMA_IRQHandler+0xe0>
      __HAL_DMA_DISABLE_IT(hdma, DMA_IT_TE | DMA_IT_TC);  
 80011c6:	681a      	ldr	r2, [r3, #0]
 80011c8:	f022 020a 	bic.w	r2, r2, #10
 80011cc:	601a      	str	r2, [r3, #0]
      hdma->State = HAL_DMA_STATE_READY;
 80011ce:	2201      	movs	r2, #1
 80011d0:	f880 2021 	strb.w	r2, [r0, #33]	; 0x21
      __HAL_DMA_CLEAR_FLAG(hdma, __HAL_DMA_GET_TC_FLAG_INDEX(hdma));
 80011d4:	4a31      	ldr	r2, [pc, #196]	; (800129c <HAL_DMA_IRQHandler+0x1a8>)
 80011d6:	4293      	cmp	r3, r2
 80011d8:	d91e      	bls.n	8001218 <HAL_DMA_IRQHandler+0x124>
 80011da:	f502 7262 	add.w	r2, r2, #904	; 0x388
 80011de:	4293      	cmp	r3, r2
 80011e0:	d013      	beq.n	800120a <HAL_DMA_IRQHandler+0x116>
 80011e2:	3214      	adds	r2, #20
 80011e4:	4293      	cmp	r3, r2
 80011e6:	d012      	beq.n	800120e <HAL_DMA_IRQHandler+0x11a>
 80011e8:	3214      	adds	r2, #20
 80011ea:	4293      	cmp	r3, r2
 80011ec:	d011      	beq.n	8001212 <HAL_DMA_IRQHandler+0x11e>
 80011ee:	3214      	adds	r2, #20
 80011f0:	4293      	cmp	r3, r2
 80011f2:	bf0c      	ite	eq
 80011f4:	f44f 5300 	moveq.w	r3, #8192	; 0x2000
 80011f8:	f44f 3300 	movne.w	r3, #131072	; 0x20000
 80011fc:	4a28      	ldr	r2, [pc, #160]	; (80012a0 <HAL_DMA_IRQHandler+0x1ac>)
 80011fe:	6053      	str	r3, [r2, #4]
    __HAL_UNLOCK(hdma);
 8001200:	2300      	movs	r3, #0
 8001202:	f880 3020 	strb.w	r3, [r0, #32]
    if(hdma->XferCpltCallback != NULL)
 8001206:	6a83      	ldr	r3, [r0, #40]	; 0x28
 8001208:	e79e      	b.n	8001148 <HAL_DMA_IRQHandler+0x54>
      __HAL_DMA_CLEAR_FLAG(hdma, __HAL_DMA_GET_TC_FLAG_INDEX(hdma));
 800120a:	2302      	movs	r3, #2
 800120c:	e7f6      	b.n	80011fc <HAL_DMA_IRQHandler+0x108>
 800120e:	2320      	movs	r3, #32
 8001210:	e7f4      	b.n	80011fc <HAL_DMA_IRQHandler+0x108>
 8001212:	f44f 7300 	mov.w	r3, #512	; 0x200
 8001216:	e7f1      	b.n	80011fc <HAL_DMA_IRQHandler+0x108>
 8001218:	4922      	ldr	r1, [pc, #136]	; (80012a4 <HAL_DMA_IRQHandler+0x1b0>)
 800121a:	428b      	cmp	r3, r1
 800121c:	d016      	beq.n	800124c <HAL_DMA_IRQHandler+0x158>
 800121e:	3114      	adds	r1, #20
 8001220:	428b      	cmp	r3, r1
 8001222:	d015      	beq.n	8001250 <HAL_DMA_IRQHandler+0x15c>
 8001224:	3114      	adds	r1, #20
 8001226:	428b      	cmp	r3, r1
 8001228:	d014      	beq.n	8001254 <HAL_DMA_IRQHandler+0x160>
 800122a:	3114      	adds	r1, #20
 800122c:	428b      	cmp	r3, r1
 800122e:	d014      	beq.n	800125a <HAL_DMA_IRQHandler+0x166>
 8001230:	3114      	adds	r1, #20
 8001232:	428b      	cmp	r3, r1
 8001234:	d014      	beq.n	8001260 <HAL_DMA_IRQHandler+0x16c>
 8001236:	3114      	adds	r1, #20
 8001238:	428b      	cmp	r3, r1
 800123a:	d014      	beq.n	8001266 <HAL_DMA_IRQHandler+0x172>
 800123c:	4293      	cmp	r3, r2
 800123e:	bf14      	ite	ne
 8001240:	f44f 3300 	movne.w	r3, #131072	; 0x20000
 8001244:	f04f 7300 	moveq.w	r3, #33554432	; 0x2000000
 8001248:	4a17      	ldr	r2, [pc, #92]	; (80012a8 <HAL_DMA_IRQHandler+0x1b4>)
 800124a:	e7d8      	b.n	80011fe <HAL_DMA_IRQHandler+0x10a>
 800124c:	2302      	movs	r3, #2
 800124e:	e7fb      	b.n	8001248 <HAL_DMA_IRQHandler+0x154>
 8001250:	2320      	movs	r3, #32
 8001252:	e7f9      	b.n	8001248 <HAL_DMA_IRQHandler+0x154>
 8001254:	f44f 7300 	mov.w	r3, #512	; 0x200
 8001258:	e7f6      	b.n	8001248 <HAL_DMA_IRQHandler+0x154>
 800125a:	f44f 5300 	mov.w	r3, #8192	; 0x2000
 800125e:	e7f3      	b.n	8001248 <HAL_DMA_IRQHandler+0x154>
 8001260:	f44f 3300 	mov.w	r3, #131072	; 0x20000
 8001264:	e7f0      	b.n	8001248 <HAL_DMA_IRQHandler+0x154>
 8001266:	f44f 1300 	mov.w	r3, #2097152	; 0x200000
 800126a:	e7ed      	b.n	8001248 <HAL_DMA_IRQHandler+0x154>
  else if (( RESET != (flag_it & (DMA_FLAG_TE1 << hdma->ChannelIndex))) && (RESET != (source_it & DMA_IT_TE)))
 800126c:	2508      	movs	r5, #8
 800126e:	4095      	lsls	r5, r2
 8001270:	4225      	tst	r5, r4
 8001272:	d011      	beq.n	8001298 <HAL_DMA_IRQHandler+0x1a4>
 8001274:	0709      	lsls	r1, r1, #28
 8001276:	d50f      	bpl.n	8001298 <HAL_DMA_IRQHandler+0x1a4>
    __HAL_DMA_DISABLE_IT(hdma, (DMA_IT_TC | DMA_IT_HT | DMA_IT_TE));
 8001278:	6819      	ldr	r1, [r3, #0]
 800127a:	f021 010e 	bic.w	r1, r1, #14
 800127e:	6019      	str	r1, [r3, #0]
    hdma->DmaBaseAddress->IFCR = (DMA_ISR_GIF1 << hdma->ChannelIndex);
 8001280:	2301      	movs	r3, #1
 8001282:	fa03 f202 	lsl.w	r2, r3, r2
 8001286:	6072      	str	r2, [r6, #4]
    hdma->ErrorCode = HAL_DMA_ERROR_TE;
 8001288:	6383      	str	r3, [r0, #56]	; 0x38
    hdma->State = HAL_DMA_STATE_READY;
 800128a:	f880 3021 	strb.w	r3, [r0, #33]	; 0x21
    __HAL_UNLOCK(hdma);
 800128e:	2300      	movs	r3, #0
 8001290:	f880 3020 	strb.w	r3, [r0, #32]
    if (hdma->XferErrorCallback != NULL)
 8001294:	6b03      	ldr	r3, [r0, #48]	; 0x30
 8001296:	e757      	b.n	8001148 <HAL_DMA_IRQHandler+0x54>
}
 8001298:	bc70      	pop	{r4, r5, r6}
 800129a:	4770      	bx	lr
 800129c:	40020080 	.word	0x40020080
 80012a0:	40020400 	.word	0x40020400
 80012a4:	40020008 	.word	0x40020008
 80012a8:	40020000 	.word	0x40020000

080012ac <HAL_GPIO_Init>:
  * @param  GPIO_Init: pointer to a GPIO_InitTypeDef structure that contains
  *         the configuration information for the specified GPIO peripheral.
  * @retval None
  */
void HAL_GPIO_Init(GPIO_TypeDef  *GPIOx, GPIO_InitTypeDef *GPIO_Init)
{
 80012ac:	e92d 4ff7 	stmdb	sp!, {r0, r1, r2, r4, r5, r6, r7, r8, r9, sl, fp, lr}
  uint32_t position = 0x00u;
  uint32_t ioposition;
  uint32_t iocurrent;
  uint32_t temp;
  uint32_t config = 0x00u;
 80012b0:	2400      	movs	r4, #0
  uint32_t position = 0x00u;
 80012b2:	4626      	mov	r6, r4
      /*--------------------- EXTI Mode Configuration ------------------------*/
      /* Configure the External Interrupt or event for the current IO */
      if ((GPIO_Init->Mode & EXTI_MODE) == EXTI_MODE)
      {
        /* Enable AFIO Clock */
        __HAL_RCC_AFIO_CLK_ENABLE();
 80012b4:	4f6c      	ldr	r7, [pc, #432]	; (8001468 <HAL_GPIO_Init+0x1bc>)
 80012b6:	4b6d      	ldr	r3, [pc, #436]	; (800146c <HAL_GPIO_Init+0x1c0>)
        temp = AFIO->EXTICR[position >> 2u];
        CLEAR_BIT(temp, (0x0Fu) << (4u * (position & 0x03u)));
        SET_BIT(temp, (GPIO_GET_INDEX(GPIOx)) << (4u * (position & 0x03u)));
 80012b8:	f8df e1b8 	ldr.w	lr, [pc, #440]	; 8001474 <HAL_GPIO_Init+0x1c8>
      switch (GPIO_Init->Mode)
 80012bc:	f8df c1b8 	ldr.w	ip, [pc, #440]	; 8001478 <HAL_GPIO_Init+0x1cc>
  while (((GPIO_Init->Pin) >> position) != 0x00u)
 80012c0:	680a      	ldr	r2, [r1, #0]
 80012c2:	fa32 f506 	lsrs.w	r5, r2, r6
 80012c6:	d102      	bne.n	80012ce <HAL_GPIO_Init+0x22>
      }
    }

	position++;
  }
}
 80012c8:	b003      	add	sp, #12
 80012ca:	e8bd 8ff0 	ldmia.w	sp!, {r4, r5, r6, r7, r8, r9, sl, fp, pc}
    ioposition = (0x01uL << position);
 80012ce:	f04f 0801 	mov.w	r8, #1
 80012d2:	fa08 f806 	lsl.w	r8, r8, r6
    iocurrent = (uint32_t)(GPIO_Init->Pin) & ioposition;
 80012d6:	ea02 0208 	and.w	r2, r2, r8
    if (iocurrent == ioposition)
 80012da:	4590      	cmp	r8, r2
 80012dc:	f040 8084 	bne.w	80013e8 <HAL_GPIO_Init+0x13c>
      switch (GPIO_Init->Mode)
 80012e0:	684d      	ldr	r5, [r1, #4]
 80012e2:	2d12      	cmp	r5, #18
 80012e4:	f000 80b1 	beq.w	800144a <HAL_GPIO_Init+0x19e>
 80012e8:	f200 8087 	bhi.w	80013fa <HAL_GPIO_Init+0x14e>
 80012ec:	2d02      	cmp	r5, #2
 80012ee:	f000 80a9 	beq.w	8001444 <HAL_GPIO_Init+0x198>
 80012f2:	d87b      	bhi.n	80013ec <HAL_GPIO_Init+0x140>
 80012f4:	2d00      	cmp	r5, #0
 80012f6:	f000 808c 	beq.w	8001412 <HAL_GPIO_Init+0x166>
 80012fa:	2d01      	cmp	r5, #1
 80012fc:	f000 80a0 	beq.w	8001440 <HAL_GPIO_Init+0x194>
      MODIFY_REG((*configregister), ((GPIO_CRL_MODE0 | GPIO_CRL_CNF0) << registeroffset), (config << registeroffset));
 8001300:	f04f 090f 	mov.w	r9, #15
      configregister = (iocurrent < GPIO_PIN_8) ? &GPIOx->CRL     : &GPIOx->CRH;
 8001304:	2aff      	cmp	r2, #255	; 0xff
 8001306:	bf93      	iteet	ls
 8001308:	4682      	movls	sl, r0
 800130a:	f106 4580 	addhi.w	r5, r6, #1073741824	; 0x40000000
 800130e:	3d08      	subhi	r5, #8
 8001310:	f8d0 b000 	ldrls.w	fp, [r0]
 8001314:	bf92      	itee	ls
 8001316:	00b5      	lslls	r5, r6, #2
 8001318:	f8d0 b004 	ldrhi.w	fp, [r0, #4]
 800131c:	00ad      	lslhi	r5, r5, #2
      MODIFY_REG((*configregister), ((GPIO_CRL_MODE0 | GPIO_CRL_CNF0) << registeroffset), (config << registeroffset));
 800131e:	fa09 f805 	lsl.w	r8, r9, r5
 8001322:	ea2b 0808 	bic.w	r8, fp, r8
 8001326:	fa04 f505 	lsl.w	r5, r4, r5
      configregister = (iocurrent < GPIO_PIN_8) ? &GPIOx->CRL     : &GPIOx->CRH;
 800132a:	bf88      	it	hi
 800132c:	f100 0a04 	addhi.w	sl, r0, #4
      MODIFY_REG((*configregister), ((GPIO_CRL_MODE0 | GPIO_CRL_CNF0) << registeroffset), (config << registeroffset));
 8001330:	ea48 0505 	orr.w	r5, r8, r5
 8001334:	f8ca 5000 	str.w	r5, [sl]
      if ((GPIO_Init->Mode & EXTI_MODE) == EXTI_MODE)
 8001338:	f8d1 a004 	ldr.w	sl, [r1, #4]
 800133c:	f01a 5f80 	tst.w	sl, #268435456	; 0x10000000
 8001340:	d052      	beq.n	80013e8 <HAL_GPIO_Init+0x13c>
        __HAL_RCC_AFIO_CLK_ENABLE();
 8001342:	69bd      	ldr	r5, [r7, #24]
 8001344:	f026 0803 	bic.w	r8, r6, #3
 8001348:	f045 0501 	orr.w	r5, r5, #1
 800134c:	61bd      	str	r5, [r7, #24]
 800134e:	69bd      	ldr	r5, [r7, #24]
 8001350:	f108 4880 	add.w	r8, r8, #1073741824	; 0x40000000
 8001354:	f005 0501 	and.w	r5, r5, #1
 8001358:	9501      	str	r5, [sp, #4]
 800135a:	f508 3880 	add.w	r8, r8, #65536	; 0x10000
        CLEAR_BIT(temp, (0x0Fu) << (4u * (position & 0x03u)));
 800135e:	f006 0b03 	and.w	fp, r6, #3
        __HAL_RCC_AFIO_CLK_ENABLE();
 8001362:	9d01      	ldr	r5, [sp, #4]
        CLEAR_BIT(temp, (0x0Fu) << (4u * (position & 0x03u)));
 8001364:	ea4f 0b8b 	mov.w	fp, fp, lsl #2
        temp = AFIO->EXTICR[position >> 2u];
 8001368:	f8d8 5008 	ldr.w	r5, [r8, #8]
        CLEAR_BIT(temp, (0x0Fu) << (4u * (position & 0x03u)));
 800136c:	fa09 f90b 	lsl.w	r9, r9, fp
 8001370:	ea25 0909 	bic.w	r9, r5, r9
        SET_BIT(temp, (GPIO_GET_INDEX(GPIOx)) << (4u * (position & 0x03u)));
 8001374:	4d3e      	ldr	r5, [pc, #248]	; (8001470 <HAL_GPIO_Init+0x1c4>)
 8001376:	42a8      	cmp	r0, r5
 8001378:	d06c      	beq.n	8001454 <HAL_GPIO_Init+0x1a8>
 800137a:	f505 6580 	add.w	r5, r5, #1024	; 0x400
 800137e:	42a8      	cmp	r0, r5
 8001380:	d06a      	beq.n	8001458 <HAL_GPIO_Init+0x1ac>
 8001382:	f505 6580 	add.w	r5, r5, #1024	; 0x400
 8001386:	42a8      	cmp	r0, r5
 8001388:	d068      	beq.n	800145c <HAL_GPIO_Init+0x1b0>
 800138a:	f505 6580 	add.w	r5, r5, #1024	; 0x400
 800138e:	42a8      	cmp	r0, r5
 8001390:	d066      	beq.n	8001460 <HAL_GPIO_Init+0x1b4>
 8001392:	f505 6580 	add.w	r5, r5, #1024	; 0x400
 8001396:	42a8      	cmp	r0, r5
 8001398:	d064      	beq.n	8001464 <HAL_GPIO_Init+0x1b8>
 800139a:	4570      	cmp	r0, lr
 800139c:	bf0c      	ite	eq
 800139e:	2505      	moveq	r5, #5
 80013a0:	2506      	movne	r5, #6
 80013a2:	fa05 f50b 	lsl.w	r5, r5, fp
 80013a6:	ea45 0509 	orr.w	r5, r5, r9
        AFIO->EXTICR[position >> 2u] = temp;
 80013aa:	f8c8 5008 	str.w	r5, [r8, #8]
          SET_BIT(EXTI->IMR, iocurrent);
 80013ae:	681d      	ldr	r5, [r3, #0]
        if ((GPIO_Init->Mode & GPIO_MODE_IT) == GPIO_MODE_IT)
 80013b0:	f41a 3f80 	tst.w	sl, #65536	; 0x10000
          SET_BIT(EXTI->IMR, iocurrent);
 80013b4:	bf14      	ite	ne
 80013b6:	4315      	orrne	r5, r2
          CLEAR_BIT(EXTI->IMR, iocurrent);
 80013b8:	4395      	biceq	r5, r2
 80013ba:	601d      	str	r5, [r3, #0]
          SET_BIT(EXTI->EMR, iocurrent);
 80013bc:	685d      	ldr	r5, [r3, #4]
        if ((GPIO_Init->Mode & GPIO_MODE_EVT) == GPIO_MODE_EVT)
 80013be:	f41a 3f00 	tst.w	sl, #131072	; 0x20000
          SET_BIT(EXTI->EMR, iocurrent);
 80013c2:	bf14      	ite	ne
 80013c4:	4315      	orrne	r5, r2
          CLEAR_BIT(EXTI->EMR, iocurrent);
 80013c6:	4395      	biceq	r5, r2
 80013c8:	605d      	str	r5, [r3, #4]
          SET_BIT(EXTI->RTSR, iocurrent);
 80013ca:	689d      	ldr	r5, [r3, #8]
        if ((GPIO_Init->Mode & RISING_EDGE) == RISING_EDGE)
 80013cc:	f41a 1f80 	tst.w	sl, #1048576	; 0x100000
          SET_BIT(EXTI->RTSR, iocurrent);
 80013d0:	bf14      	ite	ne
 80013d2:	4315      	orrne	r5, r2
          CLEAR_BIT(EXTI->RTSR, iocurrent);
 80013d4:	4395      	biceq	r5, r2
 80013d6:	609d      	str	r5, [r3, #8]
          SET_BIT(EXTI->FTSR, iocurrent);
 80013d8:	68dd      	ldr	r5, [r3, #12]
        if ((GPIO_Init->Mode & FALLING_EDGE) == FALLING_EDGE)
 80013da:	f41a 1f00 	tst.w	sl, #2097152	; 0x200000
          SET_BIT(EXTI->FTSR, iocurrent);
 80013de:	bf14      	ite	ne
 80013e0:	432a      	orrne	r2, r5
          CLEAR_BIT(EXTI->FTSR, iocurrent);
 80013e2:	ea25 0202 	biceq.w	r2, r5, r2
 80013e6:	60da      	str	r2, [r3, #12]
	position++;
 80013e8:	3601      	adds	r6, #1
 80013ea:	e769      	b.n	80012c0 <HAL_GPIO_Init+0x14>
      switch (GPIO_Init->Mode)
 80013ec:	2d03      	cmp	r5, #3
 80013ee:	d025      	beq.n	800143c <HAL_GPIO_Init+0x190>
 80013f0:	2d11      	cmp	r5, #17
 80013f2:	d185      	bne.n	8001300 <HAL_GPIO_Init+0x54>
          config = GPIO_Init->Speed + GPIO_CR_CNF_GP_OUTPUT_OD;
 80013f4:	68cc      	ldr	r4, [r1, #12]
 80013f6:	3404      	adds	r4, #4
          break;
 80013f8:	e782      	b.n	8001300 <HAL_GPIO_Init+0x54>
      switch (GPIO_Init->Mode)
 80013fa:	4565      	cmp	r5, ip
 80013fc:	d009      	beq.n	8001412 <HAL_GPIO_Init+0x166>
 80013fe:	d812      	bhi.n	8001426 <HAL_GPIO_Init+0x17a>
 8001400:	f8df 9078 	ldr.w	r9, [pc, #120]	; 800147c <HAL_GPIO_Init+0x1d0>
 8001404:	454d      	cmp	r5, r9
 8001406:	d004      	beq.n	8001412 <HAL_GPIO_Init+0x166>
 8001408:	f509 3980 	add.w	r9, r9, #65536	; 0x10000
 800140c:	454d      	cmp	r5, r9
 800140e:	f47f af77 	bne.w	8001300 <HAL_GPIO_Init+0x54>
          if (GPIO_Init->Pull == GPIO_NOPULL)
 8001412:	688c      	ldr	r4, [r1, #8]
 8001414:	b1e4      	cbz	r4, 8001450 <HAL_GPIO_Init+0x1a4>
          else if (GPIO_Init->Pull == GPIO_PULLUP)
 8001416:	2c01      	cmp	r4, #1
            GPIOx->BSRR = ioposition;
 8001418:	bf0c      	ite	eq
 800141a:	f8c0 8010 	streq.w	r8, [r0, #16]
            GPIOx->BRR = ioposition;
 800141e:	f8c0 8014 	strne.w	r8, [r0, #20]
            config = GPIO_CR_MODE_INPUT + GPIO_CR_CNF_INPUT_PU_PD;
 8001422:	2408      	movs	r4, #8
 8001424:	e76c      	b.n	8001300 <HAL_GPIO_Init+0x54>
      switch (GPIO_Init->Mode)
 8001426:	f8df 9058 	ldr.w	r9, [pc, #88]	; 8001480 <HAL_GPIO_Init+0x1d4>
 800142a:	454d      	cmp	r5, r9
 800142c:	d0f1      	beq.n	8001412 <HAL_GPIO_Init+0x166>
 800142e:	f509 3980 	add.w	r9, r9, #65536	; 0x10000
 8001432:	454d      	cmp	r5, r9
 8001434:	d0ed      	beq.n	8001412 <HAL_GPIO_Init+0x166>
 8001436:	f5a9 1980 	sub.w	r9, r9, #1048576	; 0x100000
 800143a:	e7e7      	b.n	800140c <HAL_GPIO_Init+0x160>
          config = GPIO_CR_MODE_INPUT + GPIO_CR_CNF_ANALOG;
 800143c:	2400      	movs	r4, #0
 800143e:	e75f      	b.n	8001300 <HAL_GPIO_Init+0x54>
          config = GPIO_Init->Speed + GPIO_CR_CNF_GP_OUTPUT_PP;
 8001440:	68cc      	ldr	r4, [r1, #12]
          break;
 8001442:	e75d      	b.n	8001300 <HAL_GPIO_Init+0x54>
          config = GPIO_Init->Speed + GPIO_CR_CNF_AF_OUTPUT_PP;
 8001444:	68cc      	ldr	r4, [r1, #12]
 8001446:	3408      	adds	r4, #8
          break;
 8001448:	e75a      	b.n	8001300 <HAL_GPIO_Init+0x54>
          config = GPIO_Init->Speed + GPIO_CR_CNF_AF_OUTPUT_OD;
 800144a:	68cc      	ldr	r4, [r1, #12]
 800144c:	340c      	adds	r4, #12
          break;
 800144e:	e757      	b.n	8001300 <HAL_GPIO_Init+0x54>
            config = GPIO_CR_MODE_INPUT + GPIO_CR_CNF_INPUT_FLOATING;
 8001450:	2404      	movs	r4, #4
 8001452:	e755      	b.n	8001300 <HAL_GPIO_Init+0x54>
        SET_BIT(temp, (GPIO_GET_INDEX(GPIOx)) << (4u * (position & 0x03u)));
 8001454:	2500      	movs	r5, #0
 8001456:	e7a4      	b.n	80013a2 <HAL_GPIO_Init+0xf6>
 8001458:	2501      	movs	r5, #1
 800145a:	e7a2      	b.n	80013a2 <HAL_GPIO_Init+0xf6>
 800145c:	2502      	movs	r5, #2
 800145e:	e7a0      	b.n	80013a2 <HAL_GPIO_Init+0xf6>
 8001460:	2503      	movs	r5, #3
 8001462:	e79e      	b.n	80013a2 <HAL_GPIO_Init+0xf6>
 8001464:	2504      	movs	r5, #4
 8001466:	e79c      	b.n	80013a2 <HAL_GPIO_Init+0xf6>
 8001468:	40021000 	.word	0x40021000
 800146c:	40010400 	.word	0x40010400
 8001470:	40010800 	.word	0x40010800
 8001474:	40011c00 	.word	0x40011c00
 8001478:	10210000 	.word	0x10210000
 800147c:	10110000 	.word	0x10110000
 8001480:	10310000 	.word	0x10310000

08001484 <HAL_GPIO_WritePin>:
{
  /* Check the parameters */
  assert_param(IS_GPIO_PIN(GPIO_Pin));
  assert_param(IS_GPIO_PIN_ACTION(PinState));

  if (PinState != GPIO_PIN_RESET)
 8001484:	b10a      	cbz	r2, 800148a <HAL_GPIO_WritePin+0x6>
  {
    GPIOx->BSRR = GPIO_Pin;
  }
  else
  {
    GPIOx->BSRR = (uint32_t)GPIO_Pin << 16u;
 8001486:	6101      	str	r1, [r0, #16]
 8001488:	4770      	bx	lr
 800148a:	0409      	lsls	r1, r1, #16
 800148c:	e7fb      	b.n	8001486 <HAL_GPIO_WritePin+0x2>

0800148e <HAL_GPIO_TogglePin>:
void HAL_GPIO_TogglePin(GPIO_TypeDef *GPIOx, uint16_t GPIO_Pin)
{
  /* Check the parameters */
  assert_param(IS_GPIO_PIN(GPIO_Pin));

  if ((GPIOx->ODR & GPIO_Pin) != 0x00u)
 800148e:	68c3      	ldr	r3, [r0, #12]
 8001490:	420b      	tst	r3, r1
  {
    GPIOx->BRR = (uint32_t)GPIO_Pin;
 8001492:	bf14      	ite	ne
 8001494:	6141      	strne	r1, [r0, #20]
  }
  else
  {
    GPIOx->BSRR = (uint32_t)GPIO_Pin;
 8001496:	6101      	streq	r1, [r0, #16]
 8001498:	4770      	bx	lr
	...

0800149c <HAL_GPIO_EXTI_IRQHandler>:
  * @brief  This function handles EXTI interrupt request.
  * @param  GPIO_Pin: Specifies the pins connected EXTI line
  * @retval None
  */
void HAL_GPIO_EXTI_IRQHandler(uint16_t GPIO_Pin)
{
 800149c:	b508      	push	{r3, lr}
  /* EXTI line interrupt detected */
  if (__HAL_GPIO_EXTI_GET_IT(GPIO_Pin) != 0x00u)
 800149e:	4b04      	ldr	r3, [pc, #16]	; (80014b0 <HAL_GPIO_EXTI_IRQHandler+0x14>)
 80014a0:	6959      	ldr	r1, [r3, #20]
 80014a2:	4201      	tst	r1, r0
 80014a4:	d002      	beq.n	80014ac <HAL_GPIO_EXTI_IRQHandler+0x10>
  {
    __HAL_GPIO_EXTI_CLEAR_IT(GPIO_Pin);
 80014a6:	6158      	str	r0, [r3, #20]
    HAL_GPIO_EXTI_Callback(GPIO_Pin);
 80014a8:	f002 fbe2 	bl	8003c70 <HAL_GPIO_EXTI_Callback>
 80014ac:	bd08      	pop	{r3, pc}
 80014ae:	bf00      	nop
 80014b0:	40010400 	.word	0x40010400

080014b4 <I2C_IsAcknowledgeFailed>:
  *                the configuration information for the specified I2C.
  * @retval HAL status
  */
static HAL_StatusTypeDef I2C_IsAcknowledgeFailed(I2C_HandleTypeDef *hi2c)
{
  if (__HAL_I2C_GET_FLAG(hi2c, I2C_FLAG_AF) == SET)
 80014b4:	6801      	ldr	r1, [r0, #0]
 80014b6:	2200      	movs	r2, #0
 80014b8:	694b      	ldr	r3, [r1, #20]
 80014ba:	f413 6380 	ands.w	r3, r3, #1024	; 0x400
 80014be:	d010      	beq.n	80014e2 <I2C_IsAcknowledgeFailed+0x2e>
  {
    /* Clear NACKF Flag */
    __HAL_I2C_CLEAR_FLAG(hi2c, I2C_FLAG_AF);
 80014c0:	f46f 6380 	mvn.w	r3, #1024	; 0x400
 80014c4:	614b      	str	r3, [r1, #20]

    hi2c->PreviousState       = I2C_STATE_NONE;
    hi2c->State               = HAL_I2C_STATE_READY;
 80014c6:	2320      	movs	r3, #32
    hi2c->PreviousState       = I2C_STATE_NONE;
 80014c8:	6302      	str	r2, [r0, #48]	; 0x30
    hi2c->State               = HAL_I2C_STATE_READY;
 80014ca:	f880 303d 	strb.w	r3, [r0, #61]	; 0x3d
    hi2c->Mode                = HAL_I2C_MODE_NONE;
 80014ce:	f880 203e 	strb.w	r2, [r0, #62]	; 0x3e
    hi2c->ErrorCode           |= HAL_I2C_ERROR_AF;
 80014d2:	6c03      	ldr	r3, [r0, #64]	; 0x40

    /* Process Unlocked */
    __HAL_UNLOCK(hi2c);
 80014d4:	f880 203c 	strb.w	r2, [r0, #60]	; 0x3c
    hi2c->ErrorCode           |= HAL_I2C_ERROR_AF;
 80014d8:	f043 0304 	orr.w	r3, r3, #4
 80014dc:	6403      	str	r3, [r0, #64]	; 0x40

    return HAL_ERROR;
 80014de:	2001      	movs	r0, #1
 80014e0:	4770      	bx	lr
  }
  return HAL_OK;
 80014e2:	4618      	mov	r0, r3
}
 80014e4:	4770      	bx	lr

080014e6 <I2C_WaitOnMasterAddressFlagUntilTimeout>:
{
 80014e6:	e92d 43f8 	stmdb	sp!, {r3, r4, r5, r6, r7, r8, r9, lr}
 80014ea:	4604      	mov	r4, r0
 80014ec:	4617      	mov	r7, r2
 80014ee:	4699      	mov	r9, r3
  while (__HAL_I2C_GET_FLAG(hi2c, Flag) == RESET)
 80014f0:	f3c1 4807 	ubfx	r8, r1, #16, #8
 80014f4:	b28e      	uxth	r6, r1
 80014f6:	6825      	ldr	r5, [r4, #0]
 80014f8:	f1b8 0f01 	cmp.w	r8, #1
 80014fc:	bf0c      	ite	eq
 80014fe:	696b      	ldreq	r3, [r5, #20]
 8001500:	69ab      	ldrne	r3, [r5, #24]
 8001502:	ea36 0303 	bics.w	r3, r6, r3
 8001506:	bf14      	ite	ne
 8001508:	2001      	movne	r0, #1
 800150a:	2000      	moveq	r0, #0
 800150c:	b908      	cbnz	r0, 8001512 <I2C_WaitOnMasterAddressFlagUntilTimeout+0x2c>
}
 800150e:	e8bd 83f8 	ldmia.w	sp!, {r3, r4, r5, r6, r7, r8, r9, pc}
    if (__HAL_I2C_GET_FLAG(hi2c, I2C_FLAG_AF) == SET)
 8001512:	696b      	ldr	r3, [r5, #20]
 8001514:	055a      	lsls	r2, r3, #21
 8001516:	d516      	bpl.n	8001546 <I2C_WaitOnMasterAddressFlagUntilTimeout+0x60>
      SET_BIT(hi2c->Instance->CR1, I2C_CR1_STOP);
 8001518:	682b      	ldr	r3, [r5, #0]
      hi2c->State               = HAL_I2C_STATE_READY;
 800151a:	2220      	movs	r2, #32
      SET_BIT(hi2c->Instance->CR1, I2C_CR1_STOP);
 800151c:	f443 7300 	orr.w	r3, r3, #512	; 0x200
 8001520:	602b      	str	r3, [r5, #0]
      __HAL_I2C_CLEAR_FLAG(hi2c, I2C_FLAG_AF);
 8001522:	f46f 6380 	mvn.w	r3, #1024	; 0x400
 8001526:	616b      	str	r3, [r5, #20]
      hi2c->PreviousState       = I2C_STATE_NONE;
 8001528:	2300      	movs	r3, #0
 800152a:	6323      	str	r3, [r4, #48]	; 0x30
      hi2c->State               = HAL_I2C_STATE_READY;
 800152c:	f884 203d 	strb.w	r2, [r4, #61]	; 0x3d
      hi2c->Mode                = HAL_I2C_MODE_NONE;
 8001530:	f884 303e 	strb.w	r3, [r4, #62]	; 0x3e
      hi2c->ErrorCode           |= HAL_I2C_ERROR_AF;
 8001534:	6c22      	ldr	r2, [r4, #64]	; 0x40
 8001536:	f042 0204 	orr.w	r2, r2, #4
        hi2c->ErrorCode           |= HAL_I2C_ERROR_TIMEOUT;
 800153a:	6422      	str	r2, [r4, #64]	; 0x40
        __HAL_UNLOCK(hi2c);
 800153c:	f884 303c 	strb.w	r3, [r4, #60]	; 0x3c
        return HAL_ERROR;
 8001540:	2001      	movs	r0, #1
 8001542:	e8bd 83f8 	ldmia.w	sp!, {r3, r4, r5, r6, r7, r8, r9, pc}
    if (Timeout != HAL_MAX_DELAY)
 8001546:	1c7b      	adds	r3, r7, #1
 8001548:	d0d5      	beq.n	80014f6 <I2C_WaitOnMasterAddressFlagUntilTimeout+0x10>
      if (((HAL_GetTick() - Tickstart) > Timeout) || (Timeout == 0U))
 800154a:	f7ff faa1 	bl	8000a90 <HAL_GetTick>
 800154e:	eba0 0009 	sub.w	r0, r0, r9
 8001552:	4287      	cmp	r7, r0
 8001554:	d301      	bcc.n	800155a <I2C_WaitOnMasterAddressFlagUntilTimeout+0x74>
 8001556:	2f00      	cmp	r7, #0
 8001558:	d1cd      	bne.n	80014f6 <I2C_WaitOnMasterAddressFlagUntilTimeout+0x10>
        hi2c->PreviousState       = I2C_STATE_NONE;
 800155a:	2300      	movs	r3, #0
        hi2c->State               = HAL_I2C_STATE_READY;
 800155c:	2220      	movs	r2, #32
        hi2c->PreviousState       = I2C_STATE_NONE;
 800155e:	6323      	str	r3, [r4, #48]	; 0x30
        hi2c->State               = HAL_I2C_STATE_READY;
 8001560:	f884 203d 	strb.w	r2, [r4, #61]	; 0x3d
        hi2c->Mode                = HAL_I2C_MODE_NONE;
 8001564:	f884 303e 	strb.w	r3, [r4, #62]	; 0x3e
        hi2c->ErrorCode           |= HAL_I2C_ERROR_TIMEOUT;
 8001568:	6c22      	ldr	r2, [r4, #64]	; 0x40
 800156a:	f042 0220 	orr.w	r2, r2, #32
 800156e:	e7e4      	b.n	800153a <I2C_WaitOnMasterAddressFlagUntilTimeout+0x54>

08001570 <I2C_WaitOnBTFFlagUntilTimeout>:
{
 8001570:	b570      	push	{r4, r5, r6, lr}
 8001572:	4604      	mov	r4, r0
 8001574:	460d      	mov	r5, r1
 8001576:	4616      	mov	r6, r2
  while (__HAL_I2C_GET_FLAG(hi2c, I2C_FLAG_BTF) == RESET)
 8001578:	6823      	ldr	r3, [r4, #0]
 800157a:	695b      	ldr	r3, [r3, #20]
 800157c:	075b      	lsls	r3, r3, #29
 800157e:	d501      	bpl.n	8001584 <I2C_WaitOnBTFFlagUntilTimeout+0x14>
  return HAL_OK;
 8001580:	2000      	movs	r0, #0
 8001582:	bd70      	pop	{r4, r5, r6, pc}
    if (I2C_IsAcknowledgeFailed(hi2c) != HAL_OK)
 8001584:	4620      	mov	r0, r4
 8001586:	f7ff ff95 	bl	80014b4 <I2C_IsAcknowledgeFailed>
 800158a:	b9a8      	cbnz	r0, 80015b8 <I2C_WaitOnBTFFlagUntilTimeout+0x48>
    if (Timeout != HAL_MAX_DELAY)
 800158c:	1c6a      	adds	r2, r5, #1
 800158e:	d0f3      	beq.n	8001578 <I2C_WaitOnBTFFlagUntilTimeout+0x8>
      if (((HAL_GetTick() - Tickstart) > Timeout) || (Timeout == 0U))
 8001590:	f7ff fa7e 	bl	8000a90 <HAL_GetTick>
 8001594:	1b80      	subs	r0, r0, r6
 8001596:	4285      	cmp	r5, r0
 8001598:	d301      	bcc.n	800159e <I2C_WaitOnBTFFlagUntilTimeout+0x2e>
 800159a:	2d00      	cmp	r5, #0
 800159c:	d1ec      	bne.n	8001578 <I2C_WaitOnBTFFlagUntilTimeout+0x8>
      hi2c->PreviousState       = I2C_STATE_NONE;
 800159e:	2300      	movs	r3, #0
      hi2c->State               = HAL_I2C_STATE_READY;
 80015a0:	2220      	movs	r2, #32
      hi2c->PreviousState       = I2C_STATE_NONE;
 80015a2:	6323      	str	r3, [r4, #48]	; 0x30
      hi2c->State               = HAL_I2C_STATE_READY;
 80015a4:	f884 203d 	strb.w	r2, [r4, #61]	; 0x3d
      hi2c->Mode                = HAL_I2C_MODE_NONE;
 80015a8:	f884 303e 	strb.w	r3, [r4, #62]	; 0x3e
      hi2c->ErrorCode           |= HAL_I2C_ERROR_TIMEOUT;
 80015ac:	6c22      	ldr	r2, [r4, #64]	; 0x40
      __HAL_UNLOCK(hi2c);
 80015ae:	f884 303c 	strb.w	r3, [r4, #60]	; 0x3c
      hi2c->ErrorCode           |= HAL_I2C_ERROR_TIMEOUT;
 80015b2:	f042 0220 	orr.w	r2, r2, #32
 80015b6:	6422      	str	r2, [r4, #64]	; 0x40
      return HAL_ERROR;
 80015b8:	2001      	movs	r0, #1
}
 80015ba:	bd70      	pop	{r4, r5, r6, pc}

080015bc <I2C_WaitOnRXNEFlagUntilTimeout>:
{
 80015bc:	b570      	push	{r4, r5, r6, lr}
 80015be:	4604      	mov	r4, r0
 80015c0:	460d      	mov	r5, r1
 80015c2:	4616      	mov	r6, r2
  while (__HAL_I2C_GET_FLAG(hi2c, I2C_FLAG_RXNE) == RESET)
 80015c4:	6820      	ldr	r0, [r4, #0]
 80015c6:	6943      	ldr	r3, [r0, #20]
 80015c8:	f013 0340 	ands.w	r3, r3, #64	; 0x40
 80015cc:	d001      	beq.n	80015d2 <I2C_WaitOnRXNEFlagUntilTimeout+0x16>
  return HAL_OK;
 80015ce:	2000      	movs	r0, #0
}
 80015d0:	bd70      	pop	{r4, r5, r6, pc}
    if (__HAL_I2C_GET_FLAG(hi2c, I2C_FLAG_STOPF) == SET)
 80015d2:	6942      	ldr	r2, [r0, #20]
 80015d4:	06d2      	lsls	r2, r2, #27
 80015d6:	d50e      	bpl.n	80015f6 <I2C_WaitOnRXNEFlagUntilTimeout+0x3a>
      __HAL_I2C_CLEAR_FLAG(hi2c, I2C_FLAG_STOPF);
 80015d8:	f06f 0210 	mvn.w	r2, #16
 80015dc:	6142      	str	r2, [r0, #20]
      hi2c->State               = HAL_I2C_STATE_READY;
 80015de:	2220      	movs	r2, #32
      hi2c->PreviousState       = I2C_STATE_NONE;
 80015e0:	6323      	str	r3, [r4, #48]	; 0x30
      hi2c->State               = HAL_I2C_STATE_READY;
 80015e2:	f884 203d 	strb.w	r2, [r4, #61]	; 0x3d
      hi2c->Mode                = HAL_I2C_MODE_NONE;
 80015e6:	f884 303e 	strb.w	r3, [r4, #62]	; 0x3e
      hi2c->ErrorCode           |= HAL_I2C_ERROR_NONE;
 80015ea:	6c22      	ldr	r2, [r4, #64]	; 0x40
      hi2c->ErrorCode           |= HAL_I2C_ERROR_TIMEOUT;
 80015ec:	6422      	str	r2, [r4, #64]	; 0x40
      __HAL_UNLOCK(hi2c);
 80015ee:	f884 303c 	strb.w	r3, [r4, #60]	; 0x3c
 80015f2:	2001      	movs	r0, #1
 80015f4:	bd70      	pop	{r4, r5, r6, pc}
    if (((HAL_GetTick() - Tickstart) > Timeout) || (Timeout == 0U))
 80015f6:	f7ff fa4b 	bl	8000a90 <HAL_GetTick>
 80015fa:	1b80      	subs	r0, r0, r6
 80015fc:	42a8      	cmp	r0, r5
 80015fe:	d801      	bhi.n	8001604 <I2C_WaitOnRXNEFlagUntilTimeout+0x48>
 8001600:	2d00      	cmp	r5, #0
 8001602:	d1df      	bne.n	80015c4 <I2C_WaitOnRXNEFlagUntilTimeout+0x8>
      hi2c->PreviousState       = I2C_STATE_NONE;
 8001604:	2300      	movs	r3, #0
      hi2c->State               = HAL_I2C_STATE_READY;
 8001606:	2220      	movs	r2, #32
      hi2c->PreviousState       = I2C_STATE_NONE;
 8001608:	6323      	str	r3, [r4, #48]	; 0x30
      hi2c->State               = HAL_I2C_STATE_READY;
 800160a:	f884 203d 	strb.w	r2, [r4, #61]	; 0x3d
      hi2c->Mode                = HAL_I2C_MODE_NONE;
 800160e:	f884 303e 	strb.w	r3, [r4, #62]	; 0x3e
      hi2c->ErrorCode           |= HAL_I2C_ERROR_TIMEOUT;
 8001612:	6c22      	ldr	r2, [r4, #64]	; 0x40
 8001614:	f042 0220 	orr.w	r2, r2, #32
 8001618:	e7e8      	b.n	80015ec <I2C_WaitOnRXNEFlagUntilTimeout+0x30>

0800161a <I2C_WaitOnFlagUntilTimeout>:
{
 800161a:	e92d 43f8 	stmdb	sp!, {r3, r4, r5, r6, r7, r8, r9, lr}
 800161e:	4604      	mov	r4, r0
 8001620:	4690      	mov	r8, r2
 8001622:	461f      	mov	r7, r3
 8001624:	9e08      	ldr	r6, [sp, #32]
  while (__HAL_I2C_GET_FLAG(hi2c, Flag) == Status)
 8001626:	f3c1 4907 	ubfx	r9, r1, #16, #8
 800162a:	b28d      	uxth	r5, r1
 800162c:	6823      	ldr	r3, [r4, #0]
 800162e:	f1b9 0f01 	cmp.w	r9, #1
 8001632:	bf0c      	ite	eq
 8001634:	695b      	ldreq	r3, [r3, #20]
 8001636:	699b      	ldrne	r3, [r3, #24]
 8001638:	ea35 0303 	bics.w	r3, r5, r3
 800163c:	bf0c      	ite	eq
 800163e:	2301      	moveq	r3, #1
 8001640:	2300      	movne	r3, #0
 8001642:	4543      	cmp	r3, r8
 8001644:	d002      	beq.n	800164c <I2C_WaitOnFlagUntilTimeout+0x32>
  return HAL_OK;
 8001646:	2000      	movs	r0, #0
}
 8001648:	e8bd 83f8 	ldmia.w	sp!, {r3, r4, r5, r6, r7, r8, r9, pc}
    if (Timeout != HAL_MAX_DELAY)
 800164c:	1c7b      	adds	r3, r7, #1
 800164e:	d0ed      	beq.n	800162c <I2C_WaitOnFlagUntilTimeout+0x12>
      if (((HAL_GetTick() - Tickstart) > Timeout) || (Timeout == 0U))
 8001650:	f7ff fa1e 	bl	8000a90 <HAL_GetTick>
 8001654:	1b80      	subs	r0, r0, r6
 8001656:	4287      	cmp	r7, r0
 8001658:	d301      	bcc.n	800165e <I2C_WaitOnFlagUntilTimeout+0x44>
 800165a:	2f00      	cmp	r7, #0
 800165c:	d1e6      	bne.n	800162c <I2C_WaitOnFlagUntilTimeout+0x12>
      hi2c->PreviousState       = I2C_STATE_NONE;
 800165e:	2300      	movs	r3, #0
      hi2c->State               = HAL_I2C_STATE_READY;
 8001660:	2220      	movs	r2, #32
      hi2c->PreviousState       = I2C_STATE_NONE;
 8001662:	6323      	str	r3, [r4, #48]	; 0x30
      hi2c->State               = HAL_I2C_STATE_READY;
 8001664:	f884 203d 	strb.w	r2, [r4, #61]	; 0x3d
      hi2c->Mode                = HAL_I2C_MODE_NONE;
 8001668:	f884 303e 	strb.w	r3, [r4, #62]	; 0x3e
      hi2c->ErrorCode           |= HAL_I2C_ERROR_TIMEOUT;
 800166c:	6c22      	ldr	r2, [r4, #64]	; 0x40
      __HAL_UNLOCK(hi2c);
 800166e:	f884 303c 	strb.w	r3, [r4, #60]	; 0x3c
      hi2c->ErrorCode           |= HAL_I2C_ERROR_TIMEOUT;
 8001672:	f042 0220 	orr.w	r2, r2, #32
 8001676:	6422      	str	r2, [r4, #64]	; 0x40
      __HAL_UNLOCK(hi2c);
 8001678:	2001      	movs	r0, #1
 800167a:	e8bd 83f8 	ldmia.w	sp!, {r3, r4, r5, r6, r7, r8, r9, pc}

0800167e <I2C_WaitOnTXEFlagUntilTimeout>:
{
 800167e:	b570      	push	{r4, r5, r6, lr}
 8001680:	4604      	mov	r4, r0
 8001682:	460d      	mov	r5, r1
 8001684:	4616      	mov	r6, r2
  while (__HAL_I2C_GET_FLAG(hi2c, I2C_FLAG_TXE) == RESET)
 8001686:	6823      	ldr	r3, [r4, #0]
 8001688:	695b      	ldr	r3, [r3, #20]
 800168a:	061b      	lsls	r3, r3, #24
 800168c:	d501      	bpl.n	8001692 <I2C_WaitOnTXEFlagUntilTimeout+0x14>
  return HAL_OK;
 800168e:	2000      	movs	r0, #0
 8001690:	bd70      	pop	{r4, r5, r6, pc}
    if (I2C_IsAcknowledgeFailed(hi2c) != HAL_OK)
 8001692:	4620      	mov	r0, r4
 8001694:	f7ff ff0e 	bl	80014b4 <I2C_IsAcknowledgeFailed>
 8001698:	b9a8      	cbnz	r0, 80016c6 <I2C_WaitOnTXEFlagUntilTimeout+0x48>
    if (Timeout != HAL_MAX_DELAY)
 800169a:	1c6a      	adds	r2, r5, #1
 800169c:	d0f3      	beq.n	8001686 <I2C_WaitOnTXEFlagUntilTimeout+0x8>
      if (((HAL_GetTick() - Tickstart) > Timeout) || (Timeout == 0U))
 800169e:	f7ff f9f7 	bl	8000a90 <HAL_GetTick>
 80016a2:	1b80      	subs	r0, r0, r6
 80016a4:	4285      	cmp	r5, r0
 80016a6:	d301      	bcc.n	80016ac <I2C_WaitOnTXEFlagUntilTimeout+0x2e>
 80016a8:	2d00      	cmp	r5, #0
 80016aa:	d1ec      	bne.n	8001686 <I2C_WaitOnTXEFlagUntilTimeout+0x8>
      hi2c->PreviousState       = I2C_STATE_NONE;
 80016ac:	2300      	movs	r3, #0
      hi2c->State               = HAL_I2C_STATE_READY;
 80016ae:	2220      	movs	r2, #32
      hi2c->PreviousState       = I2C_STATE_NONE;
 80016b0:	6323      	str	r3, [r4, #48]	; 0x30
      hi2c->State               = HAL_I2C_STATE_READY;
 80016b2:	f884 203d 	strb.w	r2, [r4, #61]	; 0x3d
      hi2c->Mode                = HAL_I2C_MODE_NONE;
 80016b6:	f884 303e 	strb.w	r3, [r4, #62]	; 0x3e
      hi2c->ErrorCode           |= HAL_I2C_ERROR_TIMEOUT;
 80016ba:	6c22      	ldr	r2, [r4, #64]	; 0x40
      __HAL_UNLOCK(hi2c);
 80016bc:	f884 303c 	strb.w	r3, [r4, #60]	; 0x3c
      hi2c->ErrorCode           |= HAL_I2C_ERROR_TIMEOUT;
 80016c0:	f042 0220 	orr.w	r2, r2, #32
 80016c4:	6422      	str	r2, [r4, #64]	; 0x40
      return HAL_ERROR;
 80016c6:	2001      	movs	r0, #1
}
 80016c8:	bd70      	pop	{r4, r5, r6, pc}
	...

080016cc <I2C_RequestMemoryWrite>:
{
 80016cc:	e92d 41ff 	stmdb	sp!, {r0, r1, r2, r3, r4, r5, r6, r7, r8, lr}
 80016d0:	4615      	mov	r5, r2
  SET_BIT(hi2c->Instance->CR1, I2C_CR1_START);
 80016d2:	6802      	ldr	r2, [r0, #0]
{
 80016d4:	4698      	mov	r8, r3
  SET_BIT(hi2c->Instance->CR1, I2C_CR1_START);
 80016d6:	6813      	ldr	r3, [r2, #0]
{
 80016d8:	9e0b      	ldr	r6, [sp, #44]	; 0x2c
  SET_BIT(hi2c->Instance->CR1, I2C_CR1_START);
 80016da:	f443 7380 	orr.w	r3, r3, #256	; 0x100
 80016de:	6013      	str	r3, [r2, #0]
{
 80016e0:	460f      	mov	r7, r1
  if (I2C_WaitOnFlagUntilTimeout(hi2c, I2C_FLAG_SB, RESET, Timeout, Tickstart) != HAL_OK)
 80016e2:	9600      	str	r6, [sp, #0]
 80016e4:	9b0a      	ldr	r3, [sp, #40]	; 0x28
 80016e6:	2200      	movs	r2, #0
 80016e8:	f04f 1101 	mov.w	r1, #65537	; 0x10001
{
 80016ec:	4604      	mov	r4, r0
  if (I2C_WaitOnFlagUntilTimeout(hi2c, I2C_FLAG_SB, RESET, Timeout, Tickstart) != HAL_OK)
 80016ee:	f7ff ff94 	bl	800161a <I2C_WaitOnFlagUntilTimeout>
 80016f2:	b118      	cbz	r0, 80016fc <I2C_RequestMemoryWrite+0x30>
      return HAL_ERROR;
 80016f4:	2001      	movs	r0, #1
}
 80016f6:	b004      	add	sp, #16
 80016f8:	e8bd 81f0 	ldmia.w	sp!, {r4, r5, r6, r7, r8, pc}
  hi2c->Instance->DR = I2C_7BIT_ADD_WRITE(DevAddress);
 80016fc:	6823      	ldr	r3, [r4, #0]
 80016fe:	f007 07fe 	and.w	r7, r7, #254	; 0xfe
 8001702:	611f      	str	r7, [r3, #16]
  if (I2C_WaitOnMasterAddressFlagUntilTimeout(hi2c, I2C_FLAG_ADDR, Timeout, Tickstart) != HAL_OK)
 8001704:	9a0a      	ldr	r2, [sp, #40]	; 0x28
 8001706:	4633      	mov	r3, r6
 8001708:	4916      	ldr	r1, [pc, #88]	; (8001764 <I2C_RequestMemoryWrite+0x98>)
 800170a:	4620      	mov	r0, r4
 800170c:	f7ff feeb 	bl	80014e6 <I2C_WaitOnMasterAddressFlagUntilTimeout>
 8001710:	2800      	cmp	r0, #0
 8001712:	d1ef      	bne.n	80016f4 <I2C_RequestMemoryWrite+0x28>
  __HAL_I2C_CLEAR_ADDRFLAG(hi2c);
 8001714:	6823      	ldr	r3, [r4, #0]
 8001716:	9003      	str	r0, [sp, #12]
 8001718:	695a      	ldr	r2, [r3, #20]
  if (I2C_WaitOnTXEFlagUntilTimeout(hi2c, Timeout, Tickstart) != HAL_OK)
 800171a:	990a      	ldr	r1, [sp, #40]	; 0x28
  __HAL_I2C_CLEAR_ADDRFLAG(hi2c);
 800171c:	9203      	str	r2, [sp, #12]
 800171e:	699b      	ldr	r3, [r3, #24]
  if (I2C_WaitOnTXEFlagUntilTimeout(hi2c, Timeout, Tickstart) != HAL_OK)
 8001720:	4632      	mov	r2, r6
  __HAL_I2C_CLEAR_ADDRFLAG(hi2c);
 8001722:	9303      	str	r3, [sp, #12]
  if (I2C_WaitOnTXEFlagUntilTimeout(hi2c, Timeout, Tickstart) != HAL_OK)
 8001724:	4620      	mov	r0, r4
  __HAL_I2C_CLEAR_ADDRFLAG(hi2c);
 8001726:	9b03      	ldr	r3, [sp, #12]
  if (I2C_WaitOnTXEFlagUntilTimeout(hi2c, Timeout, Tickstart) != HAL_OK)
 8001728:	f7ff ffa9 	bl	800167e <I2C_WaitOnTXEFlagUntilTimeout>
 800172c:	b140      	cbz	r0, 8001740 <I2C_RequestMemoryWrite+0x74>
      if (hi2c->ErrorCode == HAL_I2C_ERROR_AF)
 800172e:	6c23      	ldr	r3, [r4, #64]	; 0x40
 8001730:	2b04      	cmp	r3, #4
        SET_BIT(hi2c->Instance->CR1, I2C_CR1_STOP);
 8001732:	bf01      	itttt	eq
 8001734:	6822      	ldreq	r2, [r4, #0]
 8001736:	6813      	ldreq	r3, [r2, #0]
 8001738:	f443 7300 	orreq.w	r3, r3, #512	; 0x200
 800173c:	6013      	streq	r3, [r2, #0]
 800173e:	e7d9      	b.n	80016f4 <I2C_RequestMemoryWrite+0x28>
  if (MemAddSize == I2C_MEMADD_SIZE_8BIT)
 8001740:	f1b8 0f01 	cmp.w	r8, #1
 8001744:	6823      	ldr	r3, [r4, #0]
 8001746:	d102      	bne.n	800174e <I2C_RequestMemoryWrite+0x82>
    hi2c->Instance->DR = I2C_MEM_ADD_LSB(MemAddress);
 8001748:	b2ed      	uxtb	r5, r5
 800174a:	611d      	str	r5, [r3, #16]
 800174c:	e7d3      	b.n	80016f6 <I2C_RequestMemoryWrite+0x2a>
    hi2c->Instance->DR = I2C_MEM_ADD_MSB(MemAddress);
 800174e:	0a2a      	lsrs	r2, r5, #8
 8001750:	611a      	str	r2, [r3, #16]
    if (I2C_WaitOnTXEFlagUntilTimeout(hi2c, Timeout, Tickstart) != HAL_OK)
 8001752:	990a      	ldr	r1, [sp, #40]	; 0x28
 8001754:	4632      	mov	r2, r6
 8001756:	4620      	mov	r0, r4
 8001758:	f7ff ff91 	bl	800167e <I2C_WaitOnTXEFlagUntilTimeout>
 800175c:	2800      	cmp	r0, #0
 800175e:	d1e6      	bne.n	800172e <I2C_RequestMemoryWrite+0x62>
    hi2c->Instance->DR = I2C_MEM_ADD_LSB(MemAddress);
 8001760:	6823      	ldr	r3, [r4, #0]
 8001762:	e7f1      	b.n	8001748 <I2C_RequestMemoryWrite+0x7c>
 8001764:	00010002 	.word	0x00010002

08001768 <I2C_RequestMemoryRead>:
{
 8001768:	e92d 41ff 	stmdb	sp!, {r0, r1, r2, r3, r4, r5, r6, r7, r8, lr}
 800176c:	4698      	mov	r8, r3
  SET_BIT(hi2c->Instance->CR1, I2C_CR1_ACK);
 800176e:	6803      	ldr	r3, [r0, #0]
{
 8001770:	4616      	mov	r6, r2
  SET_BIT(hi2c->Instance->CR1, I2C_CR1_ACK);
 8001772:	681a      	ldr	r2, [r3, #0]
{
 8001774:	9d0b      	ldr	r5, [sp, #44]	; 0x2c
  SET_BIT(hi2c->Instance->CR1, I2C_CR1_ACK);
 8001776:	f442 6280 	orr.w	r2, r2, #1024	; 0x400
 800177a:	601a      	str	r2, [r3, #0]
  SET_BIT(hi2c->Instance->CR1, I2C_CR1_START);
 800177c:	681a      	ldr	r2, [r3, #0]
{
 800177e:	460f      	mov	r7, r1
  SET_BIT(hi2c->Instance->CR1, I2C_CR1_START);
 8001780:	f442 7280 	orr.w	r2, r2, #256	; 0x100
 8001784:	601a      	str	r2, [r3, #0]
  if (I2C_WaitOnFlagUntilTimeout(hi2c, I2C_FLAG_SB, RESET, Timeout, Tickstart) != HAL_OK)
 8001786:	f04f 1101 	mov.w	r1, #65537	; 0x10001
 800178a:	9500      	str	r5, [sp, #0]
 800178c:	9b0a      	ldr	r3, [sp, #40]	; 0x28
 800178e:	2200      	movs	r2, #0
{
 8001790:	4604      	mov	r4, r0
  if (I2C_WaitOnFlagUntilTimeout(hi2c, I2C_FLAG_SB, RESET, Timeout, Tickstart) != HAL_OK)
 8001792:	f7ff ff42 	bl	800161a <I2C_WaitOnFlagUntilTimeout>
 8001796:	b118      	cbz	r0, 80017a0 <I2C_RequestMemoryRead+0x38>
    return HAL_ERROR;
 8001798:	2001      	movs	r0, #1
}
 800179a:	b004      	add	sp, #16
 800179c:	e8bd 81f0 	ldmia.w	sp!, {r4, r5, r6, r7, r8, pc}
  hi2c->Instance->DR = I2C_7BIT_ADD_WRITE(DevAddress);
 80017a0:	6823      	ldr	r3, [r4, #0]
 80017a2:	b2ff      	uxtb	r7, r7
 80017a4:	f007 02fe 	and.w	r2, r7, #254	; 0xfe
 80017a8:	611a      	str	r2, [r3, #16]
  if (I2C_WaitOnMasterAddressFlagUntilTimeout(hi2c, I2C_FLAG_ADDR, Timeout, Tickstart) != HAL_OK)
 80017aa:	4929      	ldr	r1, [pc, #164]	; (8001850 <I2C_RequestMemoryRead+0xe8>)
 80017ac:	462b      	mov	r3, r5
 80017ae:	9a0a      	ldr	r2, [sp, #40]	; 0x28
 80017b0:	4620      	mov	r0, r4
 80017b2:	f7ff fe98 	bl	80014e6 <I2C_WaitOnMasterAddressFlagUntilTimeout>
 80017b6:	2800      	cmp	r0, #0
 80017b8:	d1ee      	bne.n	8001798 <I2C_RequestMemoryRead+0x30>
  __HAL_I2C_CLEAR_ADDRFLAG(hi2c);
 80017ba:	6823      	ldr	r3, [r4, #0]
 80017bc:	9003      	str	r0, [sp, #12]
 80017be:	695a      	ldr	r2, [r3, #20]
  if (I2C_WaitOnTXEFlagUntilTimeout(hi2c, Timeout, Tickstart) != HAL_OK)
 80017c0:	990a      	ldr	r1, [sp, #40]	; 0x28
  __HAL_I2C_CLEAR_ADDRFLAG(hi2c);
 80017c2:	9203      	str	r2, [sp, #12]
 80017c4:	699b      	ldr	r3, [r3, #24]
  if (I2C_WaitOnTXEFlagUntilTimeout(hi2c, Timeout, Tickstart) != HAL_OK)
 80017c6:	462a      	mov	r2, r5
  __HAL_I2C_CLEAR_ADDRFLAG(hi2c);
 80017c8:	9303      	str	r3, [sp, #12]
  if (I2C_WaitOnTXEFlagUntilTimeout(hi2c, Timeout, Tickstart) != HAL_OK)
 80017ca:	4620      	mov	r0, r4
  __HAL_I2C_CLEAR_ADDRFLAG(hi2c);
 80017cc:	9b03      	ldr	r3, [sp, #12]
  if (I2C_WaitOnTXEFlagUntilTimeout(hi2c, Timeout, Tickstart) != HAL_OK)
 80017ce:	f7ff ff56 	bl	800167e <I2C_WaitOnTXEFlagUntilTimeout>
 80017d2:	b140      	cbz	r0, 80017e6 <I2C_RequestMemoryRead+0x7e>
    if (hi2c->ErrorCode == HAL_I2C_ERROR_AF)
 80017d4:	6c23      	ldr	r3, [r4, #64]	; 0x40
 80017d6:	2b04      	cmp	r3, #4
      SET_BIT(hi2c->Instance->CR1, I2C_CR1_STOP);
 80017d8:	bf01      	itttt	eq
 80017da:	6822      	ldreq	r2, [r4, #0]
 80017dc:	6813      	ldreq	r3, [r2, #0]
 80017de:	f443 7300 	orreq.w	r3, r3, #512	; 0x200
 80017e2:	6013      	streq	r3, [r2, #0]
 80017e4:	e7d8      	b.n	8001798 <I2C_RequestMemoryRead+0x30>
  if (MemAddSize == I2C_MEMADD_SIZE_8BIT)
 80017e6:	f1b8 0f01 	cmp.w	r8, #1
 80017ea:	6823      	ldr	r3, [r4, #0]
 80017ec:	d125      	bne.n	800183a <I2C_RequestMemoryRead+0xd2>
    hi2c->Instance->DR = I2C_MEM_ADD_LSB(MemAddress);
 80017ee:	b2f6      	uxtb	r6, r6
 80017f0:	611e      	str	r6, [r3, #16]
  if (I2C_WaitOnTXEFlagUntilTimeout(hi2c, Timeout, Tickstart) != HAL_OK)
 80017f2:	462a      	mov	r2, r5
 80017f4:	990a      	ldr	r1, [sp, #40]	; 0x28
 80017f6:	4620      	mov	r0, r4
 80017f8:	f7ff ff41 	bl	800167e <I2C_WaitOnTXEFlagUntilTimeout>
 80017fc:	4602      	mov	r2, r0
 80017fe:	2800      	cmp	r0, #0
 8001800:	d1e8      	bne.n	80017d4 <I2C_RequestMemoryRead+0x6c>
  SET_BIT(hi2c->Instance->CR1, I2C_CR1_START);
 8001802:	6821      	ldr	r1, [r4, #0]
  if (I2C_WaitOnFlagUntilTimeout(hi2c, I2C_FLAG_SB, RESET, Timeout, Tickstart) != HAL_OK)
 8001804:	4620      	mov	r0, r4
  SET_BIT(hi2c->Instance->CR1, I2C_CR1_START);
 8001806:	680b      	ldr	r3, [r1, #0]
 8001808:	f443 7380 	orr.w	r3, r3, #256	; 0x100
 800180c:	600b      	str	r3, [r1, #0]
  if (I2C_WaitOnFlagUntilTimeout(hi2c, I2C_FLAG_SB, RESET, Timeout, Tickstart) != HAL_OK)
 800180e:	9500      	str	r5, [sp, #0]
 8001810:	9b0a      	ldr	r3, [sp, #40]	; 0x28
 8001812:	f04f 1101 	mov.w	r1, #65537	; 0x10001
 8001816:	f7ff ff00 	bl	800161a <I2C_WaitOnFlagUntilTimeout>
 800181a:	2800      	cmp	r0, #0
 800181c:	d1bc      	bne.n	8001798 <I2C_RequestMemoryRead+0x30>
  hi2c->Instance->DR = I2C_7BIT_ADD_READ(DevAddress);
 800181e:	6823      	ldr	r3, [r4, #0]
 8001820:	f047 0701 	orr.w	r7, r7, #1
 8001824:	611f      	str	r7, [r3, #16]
  if (I2C_WaitOnMasterAddressFlagUntilTimeout(hi2c, I2C_FLAG_ADDR, Timeout, Tickstart) != HAL_OK)
 8001826:	9a0a      	ldr	r2, [sp, #40]	; 0x28
 8001828:	462b      	mov	r3, r5
 800182a:	4909      	ldr	r1, [pc, #36]	; (8001850 <I2C_RequestMemoryRead+0xe8>)
 800182c:	4620      	mov	r0, r4
 800182e:	f7ff fe5a 	bl	80014e6 <I2C_WaitOnMasterAddressFlagUntilTimeout>
    return HAL_ERROR;
 8001832:	3000      	adds	r0, #0
 8001834:	bf18      	it	ne
 8001836:	2001      	movne	r0, #1
 8001838:	e7af      	b.n	800179a <I2C_RequestMemoryRead+0x32>
    hi2c->Instance->DR = I2C_MEM_ADD_MSB(MemAddress);
 800183a:	0a32      	lsrs	r2, r6, #8
 800183c:	611a      	str	r2, [r3, #16]
    if (I2C_WaitOnTXEFlagUntilTimeout(hi2c, Timeout, Tickstart) != HAL_OK)
 800183e:	990a      	ldr	r1, [sp, #40]	; 0x28
 8001840:	462a      	mov	r2, r5
 8001842:	4620      	mov	r0, r4
 8001844:	f7ff ff1b 	bl	800167e <I2C_WaitOnTXEFlagUntilTimeout>
 8001848:	2800      	cmp	r0, #0
 800184a:	d1c3      	bne.n	80017d4 <I2C_RequestMemoryRead+0x6c>
    hi2c->Instance->DR = I2C_MEM_ADD_LSB(MemAddress);
 800184c:	6823      	ldr	r3, [r4, #0]
 800184e:	e7ce      	b.n	80017ee <I2C_RequestMemoryRead+0x86>
 8001850:	00010002 	.word	0x00010002

08001854 <HAL_I2C_Init>:
{
 8001854:	b570      	push	{r4, r5, r6, lr}
  if (hi2c == NULL)
 8001856:	4604      	mov	r4, r0
 8001858:	b908      	cbnz	r0, 800185e <HAL_I2C_Init+0xa>
    return HAL_ERROR;
 800185a:	2001      	movs	r0, #1
 800185c:	bd70      	pop	{r4, r5, r6, pc}
  if (hi2c->State == HAL_I2C_STATE_RESET)
 800185e:	f890 303d 	ldrb.w	r3, [r0, #61]	; 0x3d
 8001862:	f003 02ff 	and.w	r2, r3, #255	; 0xff
 8001866:	b91b      	cbnz	r3, 8001870 <HAL_I2C_Init+0x1c>
    hi2c->Lock = HAL_UNLOCKED;
 8001868:	f880 203c 	strb.w	r2, [r0, #60]	; 0x3c
    HAL_I2C_MspInit(hi2c);
 800186c:	f003 fdee 	bl	800544c <HAL_I2C_MspInit>
  hi2c->State = HAL_I2C_STATE_BUSY;
 8001870:	2324      	movs	r3, #36	; 0x24
  __HAL_I2C_DISABLE(hi2c);
 8001872:	6822      	ldr	r2, [r4, #0]
  hi2c->State = HAL_I2C_STATE_BUSY;
 8001874:	f884 303d 	strb.w	r3, [r4, #61]	; 0x3d
  __HAL_I2C_DISABLE(hi2c);
 8001878:	6813      	ldr	r3, [r2, #0]
 800187a:	f023 0301 	bic.w	r3, r3, #1
 800187e:	6013      	str	r3, [r2, #0]
  pclk1 = HAL_RCC_GetPCLK1Freq();
 8001880:	f000 ff9e 	bl	80027c0 <HAL_RCC_GetPCLK1Freq>
  if (I2C_MIN_PCLK_FREQ(pclk1, hi2c->Init.ClockSpeed) == 1U)
 8001884:	6865      	ldr	r5, [r4, #4]
 8001886:	4b41      	ldr	r3, [pc, #260]	; (800198c <HAL_I2C_Init+0x138>)
 8001888:	429d      	cmp	r5, r3
 800188a:	d84d      	bhi.n	8001928 <HAL_I2C_Init+0xd4>
 800188c:	4b40      	ldr	r3, [pc, #256]	; (8001990 <HAL_I2C_Init+0x13c>)
 800188e:	4298      	cmp	r0, r3
 8001890:	d9e3      	bls.n	800185a <HAL_I2C_Init+0x6>
  freqrange = I2C_FREQRANGE(pclk1);
 8001892:	4940      	ldr	r1, [pc, #256]	; (8001994 <HAL_I2C_Init+0x140>)
  MODIFY_REG(hi2c->Instance->CR2, I2C_CR2_FREQ, freqrange);
 8001894:	6822      	ldr	r2, [r4, #0]
  freqrange = I2C_FREQRANGE(pclk1);
 8001896:	fbb0 f1f1 	udiv	r1, r0, r1
  MODIFY_REG(hi2c->Instance->CR2, I2C_CR2_FREQ, freqrange);
 800189a:	6853      	ldr	r3, [r2, #4]
 800189c:	f023 033f 	bic.w	r3, r3, #63	; 0x3f
 80018a0:	430b      	orrs	r3, r1
 80018a2:	6053      	str	r3, [r2, #4]
  MODIFY_REG(hi2c->Instance->TRISE, I2C_TRISE_TRISE, I2C_RISE_TIME(freqrange, hi2c->Init.ClockSpeed));
 80018a4:	6a13      	ldr	r3, [r2, #32]
 80018a6:	f023 033f 	bic.w	r3, r3, #63	; 0x3f
 80018aa:	3101      	adds	r1, #1
 80018ac:	4319      	orrs	r1, r3
 80018ae:	6211      	str	r1, [r2, #32]
  MODIFY_REG(hi2c->Instance->CCR, (I2C_CCR_FS | I2C_CCR_DUTY | I2C_CCR_CCR), I2C_SPEED(pclk1, hi2c->Init.ClockSpeed, hi2c->Init.DutyCycle));
 80018b0:	69d1      	ldr	r1, [r2, #28]
 80018b2:	4b36      	ldr	r3, [pc, #216]	; (800198c <HAL_I2C_Init+0x138>)
 80018b4:	f421 414f 	bic.w	r1, r1, #52992	; 0xcf00
 80018b8:	429d      	cmp	r5, r3
 80018ba:	f021 01ff 	bic.w	r1, r1, #255	; 0xff
 80018be:	f100 30ff 	add.w	r0, r0, #4294967295
 80018c2:	d848      	bhi.n	8001956 <HAL_I2C_Init+0x102>
 80018c4:	006d      	lsls	r5, r5, #1
 80018c6:	fbb0 f0f5 	udiv	r0, r0, r5
 80018ca:	3001      	adds	r0, #1
 80018cc:	f3c0 030b 	ubfx	r3, r0, #0, #12
 80018d0:	2b04      	cmp	r3, #4
 80018d2:	bf38      	it	cc
 80018d4:	2304      	movcc	r3, #4
 80018d6:	430b      	orrs	r3, r1
 80018d8:	61d3      	str	r3, [r2, #28]
  MODIFY_REG(hi2c->Instance->CR1, (I2C_CR1_ENGC | I2C_CR1_NOSTRETCH), (hi2c->Init.GeneralCallMode | hi2c->Init.NoStretchMode));
 80018da:	6811      	ldr	r1, [r2, #0]
 80018dc:	6a20      	ldr	r0, [r4, #32]
 80018de:	69e3      	ldr	r3, [r4, #28]
 80018e0:	f021 01c0 	bic.w	r1, r1, #192	; 0xc0
 80018e4:	4303      	orrs	r3, r0
 80018e6:	430b      	orrs	r3, r1
 80018e8:	6013      	str	r3, [r2, #0]
  MODIFY_REG(hi2c->Instance->OAR1, (I2C_OAR1_ADDMODE | I2C_OAR1_ADD8_9 | I2C_OAR1_ADD1_7 | I2C_OAR1_ADD0), (hi2c->Init.AddressingMode | hi2c->Init.OwnAddress1));
 80018ea:	6891      	ldr	r1, [r2, #8]
 80018ec:	68e0      	ldr	r0, [r4, #12]
 80018ee:	6923      	ldr	r3, [r4, #16]
 80018f0:	f421 4103 	bic.w	r1, r1, #33536	; 0x8300
 80018f4:	4303      	orrs	r3, r0
 80018f6:	f021 01ff 	bic.w	r1, r1, #255	; 0xff
 80018fa:	430b      	orrs	r3, r1
 80018fc:	6093      	str	r3, [r2, #8]
  MODIFY_REG(hi2c->Instance->OAR2, (I2C_OAR2_ENDUAL | I2C_OAR2_ADD2), (hi2c->Init.DualAddressMode | hi2c->Init.OwnAddress2));
 80018fe:	68d1      	ldr	r1, [r2, #12]
 8001900:	69a0      	ldr	r0, [r4, #24]
 8001902:	6963      	ldr	r3, [r4, #20]
 8001904:	f021 01ff 	bic.w	r1, r1, #255	; 0xff
 8001908:	4303      	orrs	r3, r0
 800190a:	430b      	orrs	r3, r1
 800190c:	60d3      	str	r3, [r2, #12]
  __HAL_I2C_ENABLE(hi2c);
 800190e:	6813      	ldr	r3, [r2, #0]
  hi2c->ErrorCode = HAL_I2C_ERROR_NONE;
 8001910:	2000      	movs	r0, #0
  __HAL_I2C_ENABLE(hi2c);
 8001912:	f043 0301 	orr.w	r3, r3, #1
 8001916:	6013      	str	r3, [r2, #0]
  hi2c->State = HAL_I2C_STATE_READY;
 8001918:	2320      	movs	r3, #32
  hi2c->ErrorCode = HAL_I2C_ERROR_NONE;
 800191a:	6420      	str	r0, [r4, #64]	; 0x40
  hi2c->State = HAL_I2C_STATE_READY;
 800191c:	f884 303d 	strb.w	r3, [r4, #61]	; 0x3d
  hi2c->PreviousState = I2C_STATE_NONE;
 8001920:	6320      	str	r0, [r4, #48]	; 0x30
  hi2c->Mode = HAL_I2C_MODE_NONE;
 8001922:	f884 003e 	strb.w	r0, [r4, #62]	; 0x3e
  return HAL_OK;
 8001926:	bd70      	pop	{r4, r5, r6, pc}
  if (I2C_MIN_PCLK_FREQ(pclk1, hi2c->Init.ClockSpeed) == 1U)
 8001928:	4b1b      	ldr	r3, [pc, #108]	; (8001998 <HAL_I2C_Init+0x144>)
 800192a:	4298      	cmp	r0, r3
 800192c:	d995      	bls.n	800185a <HAL_I2C_Init+0x6>
  freqrange = I2C_FREQRANGE(pclk1);
 800192e:	4e19      	ldr	r6, [pc, #100]	; (8001994 <HAL_I2C_Init+0x140>)
  MODIFY_REG(hi2c->Instance->TRISE, I2C_TRISE_TRISE, I2C_RISE_TIME(freqrange, hi2c->Init.ClockSpeed));
 8001930:	f44f 7196 	mov.w	r1, #300	; 0x12c
  freqrange = I2C_FREQRANGE(pclk1);
 8001934:	fbb0 f6f6 	udiv	r6, r0, r6
  MODIFY_REG(hi2c->Instance->CR2, I2C_CR2_FREQ, freqrange);
 8001938:	6822      	ldr	r2, [r4, #0]
  MODIFY_REG(hi2c->Instance->TRISE, I2C_TRISE_TRISE, I2C_RISE_TIME(freqrange, hi2c->Init.ClockSpeed));
 800193a:	4371      	muls	r1, r6
  MODIFY_REG(hi2c->Instance->CR2, I2C_CR2_FREQ, freqrange);
 800193c:	6853      	ldr	r3, [r2, #4]
 800193e:	f023 033f 	bic.w	r3, r3, #63	; 0x3f
 8001942:	4333      	orrs	r3, r6
  MODIFY_REG(hi2c->Instance->TRISE, I2C_TRISE_TRISE, I2C_RISE_TIME(freqrange, hi2c->Init.ClockSpeed));
 8001944:	f44f 767a 	mov.w	r6, #1000	; 0x3e8
  MODIFY_REG(hi2c->Instance->CR2, I2C_CR2_FREQ, freqrange);
 8001948:	6053      	str	r3, [r2, #4]
  MODIFY_REG(hi2c->Instance->TRISE, I2C_TRISE_TRISE, I2C_RISE_TIME(freqrange, hi2c->Init.ClockSpeed));
 800194a:	6a13      	ldr	r3, [r2, #32]
 800194c:	fbb1 f1f6 	udiv	r1, r1, r6
 8001950:	f023 033f 	bic.w	r3, r3, #63	; 0x3f
 8001954:	e7a9      	b.n	80018aa <HAL_I2C_Init+0x56>
  MODIFY_REG(hi2c->Instance->CCR, (I2C_CCR_FS | I2C_CCR_DUTY | I2C_CCR_CCR), I2C_SPEED(pclk1, hi2c->Init.ClockSpeed, hi2c->Init.DutyCycle));
 8001956:	68a3      	ldr	r3, [r4, #8]
 8001958:	b953      	cbnz	r3, 8001970 <HAL_I2C_Init+0x11c>
 800195a:	eb05 0345 	add.w	r3, r5, r5, lsl #1
 800195e:	fbb0 f0f3 	udiv	r0, r0, r3
 8001962:	1c43      	adds	r3, r0, #1
 8001964:	f3c3 030b 	ubfx	r3, r3, #0, #12
 8001968:	b16b      	cbz	r3, 8001986 <HAL_I2C_Init+0x132>
 800196a:	f443 4300 	orr.w	r3, r3, #32768	; 0x8000
 800196e:	e7b2      	b.n	80018d6 <HAL_I2C_Init+0x82>
 8001970:	2319      	movs	r3, #25
 8001972:	436b      	muls	r3, r5
 8001974:	fbb0 f0f3 	udiv	r0, r0, r3
 8001978:	1c43      	adds	r3, r0, #1
 800197a:	f3c3 030b 	ubfx	r3, r3, #0, #12
 800197e:	b113      	cbz	r3, 8001986 <HAL_I2C_Init+0x132>
 8001980:	f443 4340 	orr.w	r3, r3, #49152	; 0xc000
 8001984:	e7a7      	b.n	80018d6 <HAL_I2C_Init+0x82>
 8001986:	2301      	movs	r3, #1
 8001988:	e7a5      	b.n	80018d6 <HAL_I2C_Init+0x82>
 800198a:	bf00      	nop
 800198c:	000186a0 	.word	0x000186a0
 8001990:	001e847f 	.word	0x001e847f
 8001994:	000f4240 	.word	0x000f4240
 8001998:	003d08ff 	.word	0x003d08ff

0800199c <HAL_I2C_Master_Transmit>:
{
 800199c:	e92d 41ff 	stmdb	sp!, {r0, r1, r2, r3, r4, r5, r6, r7, r8, lr}
 80019a0:	4604      	mov	r4, r0
 80019a2:	461f      	mov	r7, r3
 80019a4:	460d      	mov	r5, r1
 80019a6:	4690      	mov	r8, r2
  uint32_t tickstart = HAL_GetTick();
 80019a8:	f7ff f872 	bl	8000a90 <HAL_GetTick>
  if (hi2c->State == HAL_I2C_STATE_READY)
 80019ac:	f894 303d 	ldrb.w	r3, [r4, #61]	; 0x3d
  uint32_t tickstart = HAL_GetTick();
 80019b0:	4606      	mov	r6, r0
  if (hi2c->State == HAL_I2C_STATE_READY)
 80019b2:	2b20      	cmp	r3, #32
 80019b4:	d004      	beq.n	80019c0 <HAL_I2C_Master_Transmit+0x24>
    return HAL_BUSY;
 80019b6:	2502      	movs	r5, #2
}
 80019b8:	4628      	mov	r0, r5
 80019ba:	b004      	add	sp, #16
 80019bc:	e8bd 81f0 	ldmia.w	sp!, {r4, r5, r6, r7, r8, pc}
    if (I2C_WaitOnFlagUntilTimeout(hi2c, I2C_FLAG_BUSY, SET, I2C_TIMEOUT_BUSY_FLAG, tickstart) != HAL_OK)
 80019c0:	9000      	str	r0, [sp, #0]
 80019c2:	2319      	movs	r3, #25
 80019c4:	2201      	movs	r2, #1
 80019c6:	4958      	ldr	r1, [pc, #352]	; (8001b28 <HAL_I2C_Master_Transmit+0x18c>)
 80019c8:	4620      	mov	r0, r4
 80019ca:	f7ff fe26 	bl	800161a <I2C_WaitOnFlagUntilTimeout>
 80019ce:	2800      	cmp	r0, #0
 80019d0:	d1f1      	bne.n	80019b6 <HAL_I2C_Master_Transmit+0x1a>
    __HAL_LOCK(hi2c);
 80019d2:	f894 303c 	ldrb.w	r3, [r4, #60]	; 0x3c
 80019d6:	2b01      	cmp	r3, #1
 80019d8:	d0ed      	beq.n	80019b6 <HAL_I2C_Master_Transmit+0x1a>
 80019da:	2301      	movs	r3, #1
 80019dc:	f884 303c 	strb.w	r3, [r4, #60]	; 0x3c
    if ((hi2c->Instance->CR1 & I2C_CR1_PE) != I2C_CR1_PE)
 80019e0:	6823      	ldr	r3, [r4, #0]
 80019e2:	681a      	ldr	r2, [r3, #0]
 80019e4:	07d2      	lsls	r2, r2, #31
      __HAL_I2C_ENABLE(hi2c);
 80019e6:	bf5e      	ittt	pl
 80019e8:	681a      	ldrpl	r2, [r3, #0]
 80019ea:	f042 0201 	orrpl.w	r2, r2, #1
 80019ee:	601a      	strpl	r2, [r3, #0]
    CLEAR_BIT(hi2c->Instance->CR1, I2C_CR1_POS);
 80019f0:	681a      	ldr	r2, [r3, #0]
 80019f2:	f422 6200 	bic.w	r2, r2, #2048	; 0x800
 80019f6:	601a      	str	r2, [r3, #0]
    hi2c->State       = HAL_I2C_STATE_BUSY_TX;
 80019f8:	2221      	movs	r2, #33	; 0x21
 80019fa:	f884 203d 	strb.w	r2, [r4, #61]	; 0x3d
    hi2c->Mode        = HAL_I2C_MODE_MASTER;
 80019fe:	2210      	movs	r2, #16
 8001a00:	f884 203e 	strb.w	r2, [r4, #62]	; 0x3e
    hi2c->ErrorCode   = HAL_I2C_ERROR_NONE;
 8001a04:	2200      	movs	r2, #0
 8001a06:	6422      	str	r2, [r4, #64]	; 0x40
    hi2c->XferCount   = Size;
 8001a08:	8567      	strh	r7, [r4, #42]	; 0x2a
    hi2c->XferSize    = hi2c->XferCount;
 8001a0a:	8d62      	ldrh	r2, [r4, #42]	; 0x2a
    hi2c->pBuffPtr    = pData;
 8001a0c:	f8c4 8024 	str.w	r8, [r4, #36]	; 0x24
    hi2c->XferSize    = hi2c->XferCount;
 8001a10:	8522      	strh	r2, [r4, #40]	; 0x28
    hi2c->XferOptions = I2C_NO_OPTION_FRAME;
 8001a12:	4a46      	ldr	r2, [pc, #280]	; (8001b2c <HAL_I2C_Master_Transmit+0x190>)
 8001a14:	62e2      	str	r2, [r4, #44]	; 0x2c
  uint32_t CurrentXferOptions = hi2c->XferOptions;
 8001a16:	6ae2      	ldr	r2, [r4, #44]	; 0x2c
  if ((CurrentXferOptions == I2C_FIRST_AND_LAST_FRAME) || (CurrentXferOptions == I2C_FIRST_FRAME) || (CurrentXferOptions == I2C_NO_OPTION_FRAME))
 8001a18:	2a08      	cmp	r2, #8
 8001a1a:	d004      	beq.n	8001a26 <HAL_I2C_Master_Transmit+0x8a>
 8001a1c:	2a01      	cmp	r2, #1
 8001a1e:	d002      	beq.n	8001a26 <HAL_I2C_Master_Transmit+0x8a>
 8001a20:	f512 3f80 	cmn.w	r2, #65536	; 0x10000
 8001a24:	d104      	bne.n	8001a30 <HAL_I2C_Master_Transmit+0x94>
    SET_BIT(hi2c->Instance->CR1, I2C_CR1_START);
 8001a26:	681a      	ldr	r2, [r3, #0]
 8001a28:	f442 7280 	orr.w	r2, r2, #256	; 0x100
 8001a2c:	601a      	str	r2, [r3, #0]
 8001a2e:	e002      	b.n	8001a36 <HAL_I2C_Master_Transmit+0x9a>
  else if (hi2c->PreviousState == I2C_STATE_MASTER_BUSY_RX)
 8001a30:	6b22      	ldr	r2, [r4, #48]	; 0x30
 8001a32:	2a12      	cmp	r2, #18
 8001a34:	d0f7      	beq.n	8001a26 <HAL_I2C_Master_Transmit+0x8a>
  if (I2C_WaitOnFlagUntilTimeout(hi2c, I2C_FLAG_SB, RESET, Timeout, Tickstart) != HAL_OK)
 8001a36:	9600      	str	r6, [sp, #0]
 8001a38:	9b0a      	ldr	r3, [sp, #40]	; 0x28
 8001a3a:	2200      	movs	r2, #0
 8001a3c:	f04f 1101 	mov.w	r1, #65537	; 0x10001
 8001a40:	4620      	mov	r0, r4
 8001a42:	f7ff fdea 	bl	800161a <I2C_WaitOnFlagUntilTimeout>
 8001a46:	b108      	cbz	r0, 8001a4c <HAL_I2C_Master_Transmit+0xb0>
        return HAL_ERROR;
 8001a48:	2501      	movs	r5, #1
 8001a4a:	e7b5      	b.n	80019b8 <HAL_I2C_Master_Transmit+0x1c>
  if (hi2c->Init.AddressingMode == I2C_ADDRESSINGMODE_7BIT)
 8001a4c:	6923      	ldr	r3, [r4, #16]
 8001a4e:	6822      	ldr	r2, [r4, #0]
 8001a50:	f5b3 4f80 	cmp.w	r3, #16384	; 0x4000
 8001a54:	d113      	bne.n	8001a7e <HAL_I2C_Master_Transmit+0xe2>
    hi2c->Instance->DR = I2C_7BIT_ADD_WRITE(DevAddress);
 8001a56:	f005 05fe 	and.w	r5, r5, #254	; 0xfe
 8001a5a:	6115      	str	r5, [r2, #16]
  if (I2C_WaitOnMasterAddressFlagUntilTimeout(hi2c, I2C_FLAG_ADDR, Timeout, Tickstart) != HAL_OK)
 8001a5c:	4633      	mov	r3, r6
 8001a5e:	9a0a      	ldr	r2, [sp, #40]	; 0x28
 8001a60:	4933      	ldr	r1, [pc, #204]	; (8001b30 <HAL_I2C_Master_Transmit+0x194>)
 8001a62:	4620      	mov	r0, r4
 8001a64:	f7ff fd3f 	bl	80014e6 <I2C_WaitOnMasterAddressFlagUntilTimeout>
 8001a68:	4605      	mov	r5, r0
 8001a6a:	2800      	cmp	r0, #0
 8001a6c:	d1ec      	bne.n	8001a48 <HAL_I2C_Master_Transmit+0xac>
    __HAL_I2C_CLEAR_ADDRFLAG(hi2c);
 8001a6e:	6823      	ldr	r3, [r4, #0]
 8001a70:	9003      	str	r0, [sp, #12]
 8001a72:	695a      	ldr	r2, [r3, #20]
 8001a74:	9203      	str	r2, [sp, #12]
 8001a76:	699b      	ldr	r3, [r3, #24]
 8001a78:	9303      	str	r3, [sp, #12]
 8001a7a:	9b03      	ldr	r3, [sp, #12]
    while (hi2c->XferSize > 0U)
 8001a7c:	e044      	b.n	8001b08 <HAL_I2C_Master_Transmit+0x16c>
    hi2c->Instance->DR = I2C_10BIT_HEADER_WRITE(DevAddress);
 8001a7e:	11eb      	asrs	r3, r5, #7
 8001a80:	f003 0306 	and.w	r3, r3, #6
 8001a84:	f043 03f0 	orr.w	r3, r3, #240	; 0xf0
 8001a88:	6113      	str	r3, [r2, #16]
    if (I2C_WaitOnMasterAddressFlagUntilTimeout(hi2c, I2C_FLAG_ADD10, Timeout, Tickstart) != HAL_OK)
 8001a8a:	492a      	ldr	r1, [pc, #168]	; (8001b34 <HAL_I2C_Master_Transmit+0x198>)
 8001a8c:	4633      	mov	r3, r6
 8001a8e:	9a0a      	ldr	r2, [sp, #40]	; 0x28
 8001a90:	4620      	mov	r0, r4
 8001a92:	f7ff fd28 	bl	80014e6 <I2C_WaitOnMasterAddressFlagUntilTimeout>
 8001a96:	2800      	cmp	r0, #0
 8001a98:	d1d6      	bne.n	8001a48 <HAL_I2C_Master_Transmit+0xac>
    hi2c->Instance->DR = I2C_10BIT_ADDRESS(DevAddress);
 8001a9a:	6823      	ldr	r3, [r4, #0]
 8001a9c:	b2ed      	uxtb	r5, r5
 8001a9e:	611d      	str	r5, [r3, #16]
 8001aa0:	e7dc      	b.n	8001a5c <HAL_I2C_Master_Transmit+0xc0>
      if (I2C_WaitOnTXEFlagUntilTimeout(hi2c, Timeout, tickstart) != HAL_OK)
 8001aa2:	4632      	mov	r2, r6
 8001aa4:	990a      	ldr	r1, [sp, #40]	; 0x28
 8001aa6:	4620      	mov	r0, r4
 8001aa8:	f7ff fde9 	bl	800167e <I2C_WaitOnTXEFlagUntilTimeout>
 8001aac:	b140      	cbz	r0, 8001ac0 <HAL_I2C_Master_Transmit+0x124>
        if (hi2c->ErrorCode == HAL_I2C_ERROR_AF)
 8001aae:	6c23      	ldr	r3, [r4, #64]	; 0x40
 8001ab0:	2b04      	cmp	r3, #4
          SET_BIT(hi2c->Instance->CR1, I2C_CR1_STOP);
 8001ab2:	bf01      	itttt	eq
 8001ab4:	6822      	ldreq	r2, [r4, #0]
 8001ab6:	6813      	ldreq	r3, [r2, #0]
 8001ab8:	f443 7300 	orreq.w	r3, r3, #512	; 0x200
 8001abc:	6013      	streq	r3, [r2, #0]
 8001abe:	e7c3      	b.n	8001a48 <HAL_I2C_Master_Transmit+0xac>
      hi2c->Instance->DR = *hi2c->pBuffPtr;
 8001ac0:	6a63      	ldr	r3, [r4, #36]	; 0x24
 8001ac2:	6820      	ldr	r0, [r4, #0]
 8001ac4:	461a      	mov	r2, r3
 8001ac6:	f812 1b01 	ldrb.w	r1, [r2], #1
 8001aca:	6101      	str	r1, [r0, #16]
      hi2c->pBuffPtr++;
 8001acc:	6262      	str	r2, [r4, #36]	; 0x24
      hi2c->XferCount--;
 8001ace:	8d62      	ldrh	r2, [r4, #42]	; 0x2a
 8001ad0:	3a01      	subs	r2, #1
 8001ad2:	b292      	uxth	r2, r2
 8001ad4:	8562      	strh	r2, [r4, #42]	; 0x2a
      hi2c->XferSize--;
 8001ad6:	8d22      	ldrh	r2, [r4, #40]	; 0x28
      if ((__HAL_I2C_GET_FLAG(hi2c, I2C_FLAG_BTF) == SET) && (hi2c->XferSize != 0U))
 8001ad8:	6947      	ldr	r7, [r0, #20]
      hi2c->XferSize--;
 8001ada:	1e51      	subs	r1, r2, #1
 8001adc:	b289      	uxth	r1, r1
      if ((__HAL_I2C_GET_FLAG(hi2c, I2C_FLAG_BTF) == SET) && (hi2c->XferSize != 0U))
 8001ade:	077f      	lsls	r7, r7, #29
      hi2c->XferSize--;
 8001ae0:	8521      	strh	r1, [r4, #40]	; 0x28
      if ((__HAL_I2C_GET_FLAG(hi2c, I2C_FLAG_BTF) == SET) && (hi2c->XferSize != 0U))
 8001ae2:	d50a      	bpl.n	8001afa <HAL_I2C_Master_Transmit+0x15e>
 8001ae4:	b149      	cbz	r1, 8001afa <HAL_I2C_Master_Transmit+0x15e>
        hi2c->Instance->DR = *hi2c->pBuffPtr;
 8001ae6:	7859      	ldrb	r1, [r3, #1]
        hi2c->pBuffPtr++;
 8001ae8:	3302      	adds	r3, #2
        hi2c->Instance->DR = *hi2c->pBuffPtr;
 8001aea:	6101      	str	r1, [r0, #16]
        hi2c->pBuffPtr++;
 8001aec:	6263      	str	r3, [r4, #36]	; 0x24
        hi2c->XferCount--;
 8001aee:	8d63      	ldrh	r3, [r4, #42]	; 0x2a
        hi2c->XferSize--;
 8001af0:	3a02      	subs	r2, #2
        hi2c->XferCount--;
 8001af2:	3b01      	subs	r3, #1
 8001af4:	b29b      	uxth	r3, r3
 8001af6:	8563      	strh	r3, [r4, #42]	; 0x2a
        hi2c->XferSize--;
 8001af8:	8522      	strh	r2, [r4, #40]	; 0x28
      if (I2C_WaitOnBTFFlagUntilTimeout(hi2c, Timeout, tickstart) != HAL_OK)
 8001afa:	4632      	mov	r2, r6
 8001afc:	990a      	ldr	r1, [sp, #40]	; 0x28
 8001afe:	4620      	mov	r0, r4
 8001b00:	f7ff fd36 	bl	8001570 <I2C_WaitOnBTFFlagUntilTimeout>
 8001b04:	2800      	cmp	r0, #0
 8001b06:	d1d2      	bne.n	8001aae <HAL_I2C_Master_Transmit+0x112>
    while (hi2c->XferSize > 0U)
 8001b08:	8d23      	ldrh	r3, [r4, #40]	; 0x28
 8001b0a:	2b00      	cmp	r3, #0
 8001b0c:	d1c9      	bne.n	8001aa2 <HAL_I2C_Master_Transmit+0x106>
    SET_BIT(hi2c->Instance->CR1, I2C_CR1_STOP);
 8001b0e:	6821      	ldr	r1, [r4, #0]
 8001b10:	680a      	ldr	r2, [r1, #0]
 8001b12:	f442 7200 	orr.w	r2, r2, #512	; 0x200
 8001b16:	600a      	str	r2, [r1, #0]
    hi2c->State = HAL_I2C_STATE_READY;
 8001b18:	2220      	movs	r2, #32
    __HAL_UNLOCK(hi2c);
 8001b1a:	f884 303c 	strb.w	r3, [r4, #60]	; 0x3c
    hi2c->State = HAL_I2C_STATE_READY;
 8001b1e:	f884 203d 	strb.w	r2, [r4, #61]	; 0x3d
    hi2c->Mode = HAL_I2C_MODE_NONE;
 8001b22:	f884 303e 	strb.w	r3, [r4, #62]	; 0x3e
    return HAL_OK;
 8001b26:	e747      	b.n	80019b8 <HAL_I2C_Master_Transmit+0x1c>
 8001b28:	00100002 	.word	0x00100002
 8001b2c:	ffff0000 	.word	0xffff0000
 8001b30:	00010002 	.word	0x00010002
 8001b34:	00010008 	.word	0x00010008

08001b38 <HAL_I2C_Master_Receive>:
{
 8001b38:	e92d 43f0 	stmdb	sp!, {r4, r5, r6, r7, r8, r9, lr}
 8001b3c:	4604      	mov	r4, r0
 8001b3e:	b089      	sub	sp, #36	; 0x24
 8001b40:	4698      	mov	r8, r3
 8001b42:	460f      	mov	r7, r1
 8001b44:	4691      	mov	r9, r2
 8001b46:	9e10      	ldr	r6, [sp, #64]	; 0x40
  uint32_t tickstart = HAL_GetTick();
 8001b48:	f7fe ffa2 	bl	8000a90 <HAL_GetTick>
  if (hi2c->State == HAL_I2C_STATE_READY)
 8001b4c:	f894 303d 	ldrb.w	r3, [r4, #61]	; 0x3d
  uint32_t tickstart = HAL_GetTick();
 8001b50:	4605      	mov	r5, r0
  if (hi2c->State == HAL_I2C_STATE_READY)
 8001b52:	2b20      	cmp	r3, #32
 8001b54:	d004      	beq.n	8001b60 <HAL_I2C_Master_Receive+0x28>
    return HAL_BUSY;
 8001b56:	2702      	movs	r7, #2
}
 8001b58:	4638      	mov	r0, r7
 8001b5a:	b009      	add	sp, #36	; 0x24
 8001b5c:	e8bd 83f0 	ldmia.w	sp!, {r4, r5, r6, r7, r8, r9, pc}
    if (I2C_WaitOnFlagUntilTimeout(hi2c, I2C_FLAG_BUSY, SET, I2C_TIMEOUT_BUSY_FLAG, tickstart) != HAL_OK)
 8001b60:	9000      	str	r0, [sp, #0]
 8001b62:	2319      	movs	r3, #25
 8001b64:	2201      	movs	r2, #1
 8001b66:	499c      	ldr	r1, [pc, #624]	; (8001dd8 <HAL_I2C_Master_Receive+0x2a0>)
 8001b68:	4620      	mov	r0, r4
 8001b6a:	f7ff fd56 	bl	800161a <I2C_WaitOnFlagUntilTimeout>
 8001b6e:	2800      	cmp	r0, #0
 8001b70:	d1f1      	bne.n	8001b56 <HAL_I2C_Master_Receive+0x1e>
    __HAL_LOCK(hi2c);
 8001b72:	f894 303c 	ldrb.w	r3, [r4, #60]	; 0x3c
 8001b76:	2b01      	cmp	r3, #1
 8001b78:	d0ed      	beq.n	8001b56 <HAL_I2C_Master_Receive+0x1e>
 8001b7a:	2301      	movs	r3, #1
 8001b7c:	f884 303c 	strb.w	r3, [r4, #60]	; 0x3c
    if ((hi2c->Instance->CR1 & I2C_CR1_PE) != I2C_CR1_PE)
 8001b80:	6823      	ldr	r3, [r4, #0]
 8001b82:	681a      	ldr	r2, [r3, #0]
 8001b84:	07d0      	lsls	r0, r2, #31
      __HAL_I2C_ENABLE(hi2c);
 8001b86:	bf5e      	ittt	pl
 8001b88:	681a      	ldrpl	r2, [r3, #0]
 8001b8a:	f042 0201 	orrpl.w	r2, r2, #1
 8001b8e:	601a      	strpl	r2, [r3, #0]
    CLEAR_BIT(hi2c->Instance->CR1, I2C_CR1_POS);
 8001b90:	681a      	ldr	r2, [r3, #0]
 8001b92:	f422 6200 	bic.w	r2, r2, #2048	; 0x800
 8001b96:	601a      	str	r2, [r3, #0]
    hi2c->State       = HAL_I2C_STATE_BUSY_RX;
 8001b98:	2222      	movs	r2, #34	; 0x22
 8001b9a:	f884 203d 	strb.w	r2, [r4, #61]	; 0x3d
    hi2c->Mode        = HAL_I2C_MODE_MASTER;
 8001b9e:	2210      	movs	r2, #16
 8001ba0:	f884 203e 	strb.w	r2, [r4, #62]	; 0x3e
    hi2c->ErrorCode   = HAL_I2C_ERROR_NONE;
 8001ba4:	2200      	movs	r2, #0
 8001ba6:	6422      	str	r2, [r4, #64]	; 0x40
    hi2c->XferCount   = Size;
 8001ba8:	f8a4 802a 	strh.w	r8, [r4, #42]	; 0x2a
    hi2c->XferSize    = hi2c->XferCount;
 8001bac:	8d62      	ldrh	r2, [r4, #42]	; 0x2a
    hi2c->pBuffPtr    = pData;
 8001bae:	f8c4 9024 	str.w	r9, [r4, #36]	; 0x24
    hi2c->XferSize    = hi2c->XferCount;
 8001bb2:	8522      	strh	r2, [r4, #40]	; 0x28
    hi2c->XferOptions = I2C_NO_OPTION_FRAME;
 8001bb4:	4a89      	ldr	r2, [pc, #548]	; (8001ddc <HAL_I2C_Master_Receive+0x2a4>)
 8001bb6:	62e2      	str	r2, [r4, #44]	; 0x2c
  uint32_t CurrentXferOptions = hi2c->XferOptions;
 8001bb8:	6ae2      	ldr	r2, [r4, #44]	; 0x2c
  SET_BIT(hi2c->Instance->CR1, I2C_CR1_ACK);
 8001bba:	6819      	ldr	r1, [r3, #0]
  if ((CurrentXferOptions == I2C_FIRST_AND_LAST_FRAME) || (CurrentXferOptions == I2C_FIRST_FRAME)  || (CurrentXferOptions == I2C_NO_OPTION_FRAME))
 8001bbc:	2a08      	cmp	r2, #8
  SET_BIT(hi2c->Instance->CR1, I2C_CR1_ACK);
 8001bbe:	f441 6180 	orr.w	r1, r1, #1024	; 0x400
 8001bc2:	6019      	str	r1, [r3, #0]
  if ((CurrentXferOptions == I2C_FIRST_AND_LAST_FRAME) || (CurrentXferOptions == I2C_FIRST_FRAME)  || (CurrentXferOptions == I2C_NO_OPTION_FRAME))
 8001bc4:	d004      	beq.n	8001bd0 <HAL_I2C_Master_Receive+0x98>
 8001bc6:	2a01      	cmp	r2, #1
 8001bc8:	d002      	beq.n	8001bd0 <HAL_I2C_Master_Receive+0x98>
 8001bca:	f512 3f80 	cmn.w	r2, #65536	; 0x10000
 8001bce:	d104      	bne.n	8001bda <HAL_I2C_Master_Receive+0xa2>
    SET_BIT(hi2c->Instance->CR1, I2C_CR1_START);
 8001bd0:	681a      	ldr	r2, [r3, #0]
 8001bd2:	f442 7280 	orr.w	r2, r2, #256	; 0x100
 8001bd6:	601a      	str	r2, [r3, #0]
 8001bd8:	e002      	b.n	8001be0 <HAL_I2C_Master_Receive+0xa8>
  else if (hi2c->PreviousState == I2C_STATE_MASTER_BUSY_TX)
 8001bda:	6b22      	ldr	r2, [r4, #48]	; 0x30
 8001bdc:	2a11      	cmp	r2, #17
 8001bde:	d0f7      	beq.n	8001bd0 <HAL_I2C_Master_Receive+0x98>
  if (I2C_WaitOnFlagUntilTimeout(hi2c, I2C_FLAG_SB, RESET, Timeout, Tickstart) != HAL_OK)
 8001be0:	9500      	str	r5, [sp, #0]
 8001be2:	4633      	mov	r3, r6
 8001be4:	2200      	movs	r2, #0
 8001be6:	f04f 1101 	mov.w	r1, #65537	; 0x10001
 8001bea:	4620      	mov	r0, r4
 8001bec:	f7ff fd15 	bl	800161a <I2C_WaitOnFlagUntilTimeout>
 8001bf0:	b108      	cbz	r0, 8001bf6 <HAL_I2C_Master_Receive+0xbe>
      return HAL_ERROR;
 8001bf2:	2701      	movs	r7, #1
 8001bf4:	e7b0      	b.n	8001b58 <HAL_I2C_Master_Receive+0x20>
  if (hi2c->Init.AddressingMode == I2C_ADDRESSINGMODE_7BIT)
 8001bf6:	6923      	ldr	r3, [r4, #16]
 8001bf8:	f5b3 4f80 	cmp.w	r3, #16384	; 0x4000
 8001bfc:	6823      	ldr	r3, [r4, #0]
 8001bfe:	d143      	bne.n	8001c88 <HAL_I2C_Master_Receive+0x150>
    hi2c->Instance->DR = I2C_7BIT_ADD_READ(DevAddress);
 8001c00:	f047 0701 	orr.w	r7, r7, #1
 8001c04:	b2ff      	uxtb	r7, r7
 8001c06:	611f      	str	r7, [r3, #16]
  if (I2C_WaitOnMasterAddressFlagUntilTimeout(hi2c, I2C_FLAG_ADDR, Timeout, Tickstart) != HAL_OK)
 8001c08:	462b      	mov	r3, r5
 8001c0a:	4632      	mov	r2, r6
 8001c0c:	4974      	ldr	r1, [pc, #464]	; (8001de0 <HAL_I2C_Master_Receive+0x2a8>)
 8001c0e:	4620      	mov	r0, r4
 8001c10:	f7ff fc69 	bl	80014e6 <I2C_WaitOnMasterAddressFlagUntilTimeout>
 8001c14:	4607      	mov	r7, r0
 8001c16:	2800      	cmp	r0, #0
 8001c18:	d1eb      	bne.n	8001bf2 <HAL_I2C_Master_Receive+0xba>
    if (hi2c->XferSize == 0U)
 8001c1a:	8d22      	ldrh	r2, [r4, #40]	; 0x28
 8001c1c:	6823      	ldr	r3, [r4, #0]
 8001c1e:	2a00      	cmp	r2, #0
 8001c20:	d066      	beq.n	8001cf0 <HAL_I2C_Master_Receive+0x1b8>
    else if (hi2c->XferSize == 1U)
 8001c22:	2a01      	cmp	r2, #1
 8001c24:	d177      	bne.n	8001d16 <HAL_I2C_Master_Receive+0x1de>
      CLEAR_BIT(hi2c->Instance->CR1, I2C_CR1_ACK);
 8001c26:	681a      	ldr	r2, [r3, #0]
 8001c28:	f422 6280 	bic.w	r2, r2, #1024	; 0x400
 8001c2c:	601a      	str	r2, [r3, #0]
  \details Disables IRQ interrupts by setting the I-bit in the CPSR.
           Can only be executed in Privileged modes.
 */
__STATIC_FORCEINLINE void __disable_irq(void)
{
  __ASM volatile ("cpsid i" : : : "memory");
 8001c2e:	b672      	cpsid	i
      __HAL_I2C_CLEAR_ADDRFLAG(hi2c);
 8001c30:	6823      	ldr	r3, [r4, #0]
 8001c32:	9704      	str	r7, [sp, #16]
 8001c34:	695a      	ldr	r2, [r3, #20]
 8001c36:	9204      	str	r2, [sp, #16]
 8001c38:	699a      	ldr	r2, [r3, #24]
 8001c3a:	9204      	str	r2, [sp, #16]
 8001c3c:	9a04      	ldr	r2, [sp, #16]
      SET_BIT(hi2c->Instance->CR1, I2C_CR1_STOP);
 8001c3e:	681a      	ldr	r2, [r3, #0]
 8001c40:	f442 7200 	orr.w	r2, r2, #512	; 0x200
      CLEAR_BIT(hi2c->Instance->CR1, I2C_CR1_ACK);
 8001c44:	601a      	str	r2, [r3, #0]
  __ASM volatile ("cpsie i" : : : "memory");
 8001c46:	b662      	cpsie	i
          if (I2C_WaitOnFlagUntilTimeout(hi2c, I2C_FLAG_BTF, RESET, Timeout, tickstart) != HAL_OK)
 8001c48:	f8df 819c 	ldr.w	r8, [pc, #412]	; 8001de8 <HAL_I2C_Master_Receive+0x2b0>
    while (hi2c->XferSize > 0U)
 8001c4c:	8d23      	ldrh	r3, [r4, #40]	; 0x28
 8001c4e:	2b00      	cmp	r3, #0
 8001c50:	d058      	beq.n	8001d04 <HAL_I2C_Master_Receive+0x1cc>
      if (hi2c->XferSize <= 3U)
 8001c52:	2b03      	cmp	r3, #3
 8001c54:	f200 80ca 	bhi.w	8001dec <HAL_I2C_Master_Receive+0x2b4>
        if (hi2c->XferSize == 1U)
 8001c58:	2b01      	cmp	r3, #1
 8001c5a:	d178      	bne.n	8001d4e <HAL_I2C_Master_Receive+0x216>
          if (I2C_WaitOnRXNEFlagUntilTimeout(hi2c, Timeout, tickstart) != HAL_OK)
 8001c5c:	462a      	mov	r2, r5
 8001c5e:	4631      	mov	r1, r6
 8001c60:	4620      	mov	r0, r4
 8001c62:	f7ff fcab 	bl	80015bc <I2C_WaitOnRXNEFlagUntilTimeout>
 8001c66:	2800      	cmp	r0, #0
 8001c68:	d1c3      	bne.n	8001bf2 <HAL_I2C_Master_Receive+0xba>
          *hi2c->pBuffPtr = (uint8_t)hi2c->Instance->DR;
 8001c6a:	6822      	ldr	r2, [r4, #0]
 8001c6c:	6a63      	ldr	r3, [r4, #36]	; 0x24
 8001c6e:	6912      	ldr	r2, [r2, #16]
 8001c70:	701a      	strb	r2, [r3, #0]
          hi2c->pBuffPtr++;
 8001c72:	6a63      	ldr	r3, [r4, #36]	; 0x24
 8001c74:	3301      	adds	r3, #1
 8001c76:	6263      	str	r3, [r4, #36]	; 0x24
          hi2c->XferSize--;
 8001c78:	8d23      	ldrh	r3, [r4, #40]	; 0x28
 8001c7a:	3b01      	subs	r3, #1
 8001c7c:	8523      	strh	r3, [r4, #40]	; 0x28
          hi2c->XferCount--;
 8001c7e:	8d63      	ldrh	r3, [r4, #42]	; 0x2a
 8001c80:	3b01      	subs	r3, #1
 8001c82:	b29b      	uxth	r3, r3
 8001c84:	8563      	strh	r3, [r4, #42]	; 0x2a
 8001c86:	e7e1      	b.n	8001c4c <HAL_I2C_Master_Receive+0x114>
    hi2c->Instance->DR = I2C_10BIT_HEADER_WRITE(DevAddress);
 8001c88:	ea4f 18e7 	mov.w	r8, r7, asr #7
 8001c8c:	f008 0806 	and.w	r8, r8, #6
 8001c90:	f048 02f0 	orr.w	r2, r8, #240	; 0xf0
 8001c94:	611a      	str	r2, [r3, #16]
    if (I2C_WaitOnMasterAddressFlagUntilTimeout(hi2c, I2C_FLAG_ADD10, Timeout, Tickstart) != HAL_OK)
 8001c96:	4953      	ldr	r1, [pc, #332]	; (8001de4 <HAL_I2C_Master_Receive+0x2ac>)
 8001c98:	462b      	mov	r3, r5
 8001c9a:	4632      	mov	r2, r6
 8001c9c:	4620      	mov	r0, r4
 8001c9e:	f7ff fc22 	bl	80014e6 <I2C_WaitOnMasterAddressFlagUntilTimeout>
 8001ca2:	2800      	cmp	r0, #0
 8001ca4:	d1a5      	bne.n	8001bf2 <HAL_I2C_Master_Receive+0xba>
    hi2c->Instance->DR = I2C_10BIT_ADDRESS(DevAddress);
 8001ca6:	6823      	ldr	r3, [r4, #0]
 8001ca8:	b2ff      	uxtb	r7, r7
 8001caa:	611f      	str	r7, [r3, #16]
    if (I2C_WaitOnMasterAddressFlagUntilTimeout(hi2c, I2C_FLAG_ADDR, Timeout, Tickstart) != HAL_OK)
 8001cac:	4632      	mov	r2, r6
 8001cae:	462b      	mov	r3, r5
 8001cb0:	494b      	ldr	r1, [pc, #300]	; (8001de0 <HAL_I2C_Master_Receive+0x2a8>)
 8001cb2:	4620      	mov	r0, r4
 8001cb4:	f7ff fc17 	bl	80014e6 <I2C_WaitOnMasterAddressFlagUntilTimeout>
 8001cb8:	4602      	mov	r2, r0
 8001cba:	2800      	cmp	r0, #0
 8001cbc:	d199      	bne.n	8001bf2 <HAL_I2C_Master_Receive+0xba>
    __HAL_I2C_CLEAR_ADDRFLAG(hi2c);
 8001cbe:	6823      	ldr	r3, [r4, #0]
 8001cc0:	9007      	str	r0, [sp, #28]
 8001cc2:	6959      	ldr	r1, [r3, #20]
    if (I2C_WaitOnFlagUntilTimeout(hi2c, I2C_FLAG_SB, RESET, Timeout, Tickstart) != HAL_OK)
 8001cc4:	4620      	mov	r0, r4
    __HAL_I2C_CLEAR_ADDRFLAG(hi2c);
 8001cc6:	9107      	str	r1, [sp, #28]
 8001cc8:	6999      	ldr	r1, [r3, #24]
 8001cca:	9107      	str	r1, [sp, #28]
 8001ccc:	9907      	ldr	r1, [sp, #28]
    SET_BIT(hi2c->Instance->CR1, I2C_CR1_START);
 8001cce:	6819      	ldr	r1, [r3, #0]
 8001cd0:	f441 7180 	orr.w	r1, r1, #256	; 0x100
 8001cd4:	6019      	str	r1, [r3, #0]
    if (I2C_WaitOnFlagUntilTimeout(hi2c, I2C_FLAG_SB, RESET, Timeout, Tickstart) != HAL_OK)
 8001cd6:	9500      	str	r5, [sp, #0]
 8001cd8:	4633      	mov	r3, r6
 8001cda:	f04f 1101 	mov.w	r1, #65537	; 0x10001
 8001cde:	f7ff fc9c 	bl	800161a <I2C_WaitOnFlagUntilTimeout>
 8001ce2:	2800      	cmp	r0, #0
 8001ce4:	d185      	bne.n	8001bf2 <HAL_I2C_Master_Receive+0xba>
    hi2c->Instance->DR = I2C_10BIT_HEADER_READ(DevAddress);
 8001ce6:	6822      	ldr	r2, [r4, #0]
 8001ce8:	f048 03f1 	orr.w	r3, r8, #241	; 0xf1
 8001cec:	6113      	str	r3, [r2, #16]
 8001cee:	e78b      	b.n	8001c08 <HAL_I2C_Master_Receive+0xd0>
      __HAL_I2C_CLEAR_ADDRFLAG(hi2c);
 8001cf0:	9703      	str	r7, [sp, #12]
 8001cf2:	695a      	ldr	r2, [r3, #20]
 8001cf4:	9203      	str	r2, [sp, #12]
 8001cf6:	699a      	ldr	r2, [r3, #24]
 8001cf8:	9203      	str	r2, [sp, #12]
 8001cfa:	9a03      	ldr	r2, [sp, #12]
      SET_BIT(hi2c->Instance->CR1, I2C_CR1_STOP);
 8001cfc:	681a      	ldr	r2, [r3, #0]
 8001cfe:	f442 7200 	orr.w	r2, r2, #512	; 0x200
 8001d02:	601a      	str	r2, [r3, #0]
    hi2c->State = HAL_I2C_STATE_READY;
 8001d04:	2320      	movs	r3, #32
 8001d06:	f884 303d 	strb.w	r3, [r4, #61]	; 0x3d
    hi2c->Mode = HAL_I2C_MODE_NONE;
 8001d0a:	2300      	movs	r3, #0
 8001d0c:	f884 303e 	strb.w	r3, [r4, #62]	; 0x3e
    __HAL_UNLOCK(hi2c);
 8001d10:	f884 303c 	strb.w	r3, [r4, #60]	; 0x3c
    return HAL_OK;
 8001d14:	e720      	b.n	8001b58 <HAL_I2C_Master_Receive+0x20>
    else if (hi2c->XferSize == 2U)
 8001d16:	2a02      	cmp	r2, #2
      SET_BIT(hi2c->Instance->CR1, I2C_CR1_POS);
 8001d18:	681a      	ldr	r2, [r3, #0]
    else if (hi2c->XferSize == 2U)
 8001d1a:	d10e      	bne.n	8001d3a <HAL_I2C_Master_Receive+0x202>
      SET_BIT(hi2c->Instance->CR1, I2C_CR1_POS);
 8001d1c:	f442 6200 	orr.w	r2, r2, #2048	; 0x800
 8001d20:	601a      	str	r2, [r3, #0]
  __ASM volatile ("cpsid i" : : : "memory");
 8001d22:	b672      	cpsid	i
      __HAL_I2C_CLEAR_ADDRFLAG(hi2c);
 8001d24:	6823      	ldr	r3, [r4, #0]
 8001d26:	9705      	str	r7, [sp, #20]
 8001d28:	695a      	ldr	r2, [r3, #20]
 8001d2a:	9205      	str	r2, [sp, #20]
 8001d2c:	699a      	ldr	r2, [r3, #24]
 8001d2e:	9205      	str	r2, [sp, #20]
 8001d30:	9a05      	ldr	r2, [sp, #20]
      CLEAR_BIT(hi2c->Instance->CR1, I2C_CR1_ACK);
 8001d32:	681a      	ldr	r2, [r3, #0]
 8001d34:	f422 6280 	bic.w	r2, r2, #1024	; 0x400
 8001d38:	e784      	b.n	8001c44 <HAL_I2C_Master_Receive+0x10c>
      SET_BIT(hi2c->Instance->CR1, I2C_CR1_ACK);
 8001d3a:	f442 6280 	orr.w	r2, r2, #1024	; 0x400
 8001d3e:	601a      	str	r2, [r3, #0]
      __HAL_I2C_CLEAR_ADDRFLAG(hi2c);
 8001d40:	9706      	str	r7, [sp, #24]
 8001d42:	695a      	ldr	r2, [r3, #20]
 8001d44:	9206      	str	r2, [sp, #24]
 8001d46:	699b      	ldr	r3, [r3, #24]
 8001d48:	9306      	str	r3, [sp, #24]
 8001d4a:	9b06      	ldr	r3, [sp, #24]
 8001d4c:	e77c      	b.n	8001c48 <HAL_I2C_Master_Receive+0x110>
        else if (hi2c->XferSize == 2U)
 8001d4e:	2b02      	cmp	r3, #2
          if (I2C_WaitOnFlagUntilTimeout(hi2c, I2C_FLAG_BTF, RESET, Timeout, tickstart) != HAL_OK)
 8001d50:	9500      	str	r5, [sp, #0]
 8001d52:	4633      	mov	r3, r6
 8001d54:	f04f 0200 	mov.w	r2, #0
 8001d58:	4641      	mov	r1, r8
 8001d5a:	4620      	mov	r0, r4
        else if (hi2c->XferSize == 2U)
 8001d5c:	d119      	bne.n	8001d92 <HAL_I2C_Master_Receive+0x25a>
          if (I2C_WaitOnFlagUntilTimeout(hi2c, I2C_FLAG_BTF, RESET, Timeout, tickstart) != HAL_OK)
 8001d5e:	f7ff fc5c 	bl	800161a <I2C_WaitOnFlagUntilTimeout>
 8001d62:	2800      	cmp	r0, #0
 8001d64:	f47f af45 	bne.w	8001bf2 <HAL_I2C_Master_Receive+0xba>
 8001d68:	b672      	cpsid	i
          SET_BIT(hi2c->Instance->CR1, I2C_CR1_STOP);
 8001d6a:	6823      	ldr	r3, [r4, #0]
 8001d6c:	681a      	ldr	r2, [r3, #0]
 8001d6e:	f442 7200 	orr.w	r2, r2, #512	; 0x200
 8001d72:	601a      	str	r2, [r3, #0]
          *hi2c->pBuffPtr = (uint8_t)hi2c->Instance->DR;
 8001d74:	691b      	ldr	r3, [r3, #16]
 8001d76:	6a62      	ldr	r2, [r4, #36]	; 0x24
 8001d78:	7013      	strb	r3, [r2, #0]
          hi2c->pBuffPtr++;
 8001d7a:	6a63      	ldr	r3, [r4, #36]	; 0x24
 8001d7c:	3301      	adds	r3, #1
 8001d7e:	6263      	str	r3, [r4, #36]	; 0x24
          hi2c->XferSize--;
 8001d80:	8d23      	ldrh	r3, [r4, #40]	; 0x28
 8001d82:	3b01      	subs	r3, #1
 8001d84:	8523      	strh	r3, [r4, #40]	; 0x28
          hi2c->XferCount--;
 8001d86:	8d63      	ldrh	r3, [r4, #42]	; 0x2a
 8001d88:	3b01      	subs	r3, #1
 8001d8a:	b29b      	uxth	r3, r3
 8001d8c:	8563      	strh	r3, [r4, #42]	; 0x2a
  __ASM volatile ("cpsie i" : : : "memory");
 8001d8e:	b662      	cpsie	i
 8001d90:	e76b      	b.n	8001c6a <HAL_I2C_Master_Receive+0x132>
          if (I2C_WaitOnFlagUntilTimeout(hi2c, I2C_FLAG_BTF, RESET, Timeout, tickstart) != HAL_OK)
 8001d92:	f7ff fc42 	bl	800161a <I2C_WaitOnFlagUntilTimeout>
 8001d96:	4602      	mov	r2, r0
 8001d98:	2800      	cmp	r0, #0
 8001d9a:	f47f af2a 	bne.w	8001bf2 <HAL_I2C_Master_Receive+0xba>
          CLEAR_BIT(hi2c->Instance->CR1, I2C_CR1_ACK);
 8001d9e:	6821      	ldr	r1, [r4, #0]
 8001da0:	680b      	ldr	r3, [r1, #0]
 8001da2:	f423 6380 	bic.w	r3, r3, #1024	; 0x400
 8001da6:	600b      	str	r3, [r1, #0]
  __ASM volatile ("cpsid i" : : : "memory");
 8001da8:	b672      	cpsid	i
          *hi2c->pBuffPtr = (uint8_t)hi2c->Instance->DR;
 8001daa:	6821      	ldr	r1, [r4, #0]
 8001dac:	6a63      	ldr	r3, [r4, #36]	; 0x24
 8001dae:	6909      	ldr	r1, [r1, #16]
          if (I2C_WaitOnFlagUntilTimeout(hi2c, I2C_FLAG_BTF, RESET, Timeout, tickstart) != HAL_OK)
 8001db0:	4620      	mov	r0, r4
          *hi2c->pBuffPtr = (uint8_t)hi2c->Instance->DR;
 8001db2:	7019      	strb	r1, [r3, #0]
          hi2c->pBuffPtr++;
 8001db4:	6a63      	ldr	r3, [r4, #36]	; 0x24
          if (I2C_WaitOnFlagUntilTimeout(hi2c, I2C_FLAG_BTF, RESET, Timeout, tickstart) != HAL_OK)
 8001db6:	9500      	str	r5, [sp, #0]
          hi2c->pBuffPtr++;
 8001db8:	3301      	adds	r3, #1
 8001dba:	6263      	str	r3, [r4, #36]	; 0x24
          hi2c->XferSize--;
 8001dbc:	8d23      	ldrh	r3, [r4, #40]	; 0x28
          if (I2C_WaitOnFlagUntilTimeout(hi2c, I2C_FLAG_BTF, RESET, Timeout, tickstart) != HAL_OK)
 8001dbe:	4641      	mov	r1, r8
          hi2c->XferSize--;
 8001dc0:	3b01      	subs	r3, #1
 8001dc2:	8523      	strh	r3, [r4, #40]	; 0x28
          hi2c->XferCount--;
 8001dc4:	8d63      	ldrh	r3, [r4, #42]	; 0x2a
 8001dc6:	3b01      	subs	r3, #1
 8001dc8:	b29b      	uxth	r3, r3
 8001dca:	8563      	strh	r3, [r4, #42]	; 0x2a
          if (I2C_WaitOnFlagUntilTimeout(hi2c, I2C_FLAG_BTF, RESET, Timeout, tickstart) != HAL_OK)
 8001dcc:	4633      	mov	r3, r6
 8001dce:	f7ff fc24 	bl	800161a <I2C_WaitOnFlagUntilTimeout>
 8001dd2:	2800      	cmp	r0, #0
 8001dd4:	d0c9      	beq.n	8001d6a <HAL_I2C_Master_Receive+0x232>
 8001dd6:	e70c      	b.n	8001bf2 <HAL_I2C_Master_Receive+0xba>
 8001dd8:	00100002 	.word	0x00100002
 8001ddc:	ffff0000 	.word	0xffff0000
 8001de0:	00010002 	.word	0x00010002
 8001de4:	00010008 	.word	0x00010008
 8001de8:	00010004 	.word	0x00010004
        if (I2C_WaitOnRXNEFlagUntilTimeout(hi2c, Timeout, tickstart) != HAL_OK)
 8001dec:	462a      	mov	r2, r5
 8001dee:	4631      	mov	r1, r6
 8001df0:	4620      	mov	r0, r4
 8001df2:	f7ff fbe3 	bl	80015bc <I2C_WaitOnRXNEFlagUntilTimeout>
 8001df6:	2800      	cmp	r0, #0
 8001df8:	f47f aefb 	bne.w	8001bf2 <HAL_I2C_Master_Receive+0xba>
        *hi2c->pBuffPtr = (uint8_t)hi2c->Instance->DR;
 8001dfc:	6822      	ldr	r2, [r4, #0]
 8001dfe:	6a63      	ldr	r3, [r4, #36]	; 0x24
 8001e00:	6912      	ldr	r2, [r2, #16]
 8001e02:	701a      	strb	r2, [r3, #0]
        hi2c->pBuffPtr++;
 8001e04:	6a62      	ldr	r2, [r4, #36]	; 0x24
 8001e06:	1c53      	adds	r3, r2, #1
 8001e08:	6263      	str	r3, [r4, #36]	; 0x24
        hi2c->XferSize--;
 8001e0a:	8d23      	ldrh	r3, [r4, #40]	; 0x28
 8001e0c:	3b01      	subs	r3, #1
 8001e0e:	8523      	strh	r3, [r4, #40]	; 0x28
        hi2c->XferCount--;
 8001e10:	8d63      	ldrh	r3, [r4, #42]	; 0x2a
 8001e12:	3b01      	subs	r3, #1
 8001e14:	b29b      	uxth	r3, r3
 8001e16:	8563      	strh	r3, [r4, #42]	; 0x2a
        if (__HAL_I2C_GET_FLAG(hi2c, I2C_FLAG_BTF) == SET)
 8001e18:	6823      	ldr	r3, [r4, #0]
 8001e1a:	6959      	ldr	r1, [r3, #20]
 8001e1c:	0749      	lsls	r1, r1, #29
 8001e1e:	f57f af15 	bpl.w	8001c4c <HAL_I2C_Master_Receive+0x114>
          *hi2c->pBuffPtr = (uint8_t)hi2c->Instance->DR;
 8001e22:	691b      	ldr	r3, [r3, #16]
 8001e24:	7053      	strb	r3, [r2, #1]
 8001e26:	e724      	b.n	8001c72 <HAL_I2C_Master_Receive+0x13a>

08001e28 <HAL_I2C_Mem_Write>:
{
 8001e28:	e92d 43f7 	stmdb	sp!, {r0, r1, r2, r4, r5, r6, r7, r8, r9, lr}
 8001e2c:	4604      	mov	r4, r0
 8001e2e:	4699      	mov	r9, r3
 8001e30:	460f      	mov	r7, r1
 8001e32:	4690      	mov	r8, r2
 8001e34:	9e0c      	ldr	r6, [sp, #48]	; 0x30
  uint32_t tickstart = HAL_GetTick();
 8001e36:	f7fe fe2b 	bl	8000a90 <HAL_GetTick>
  if (hi2c->State == HAL_I2C_STATE_READY)
 8001e3a:	f894 303d 	ldrb.w	r3, [r4, #61]	; 0x3d
  uint32_t tickstart = HAL_GetTick();
 8001e3e:	4605      	mov	r5, r0
  if (hi2c->State == HAL_I2C_STATE_READY)
 8001e40:	2b20      	cmp	r3, #32
 8001e42:	d003      	beq.n	8001e4c <HAL_I2C_Mem_Write+0x24>
    return HAL_BUSY;
 8001e44:	2002      	movs	r0, #2
}
 8001e46:	b003      	add	sp, #12
 8001e48:	e8bd 83f0 	ldmia.w	sp!, {r4, r5, r6, r7, r8, r9, pc}
    if (I2C_WaitOnFlagUntilTimeout(hi2c, I2C_FLAG_BUSY, SET, I2C_TIMEOUT_BUSY_FLAG, tickstart) != HAL_OK)
 8001e4c:	9000      	str	r0, [sp, #0]
 8001e4e:	2319      	movs	r3, #25
 8001e50:	2201      	movs	r2, #1
 8001e52:	493b      	ldr	r1, [pc, #236]	; (8001f40 <HAL_I2C_Mem_Write+0x118>)
 8001e54:	4620      	mov	r0, r4
 8001e56:	f7ff fbe0 	bl	800161a <I2C_WaitOnFlagUntilTimeout>
 8001e5a:	2800      	cmp	r0, #0
 8001e5c:	d1f2      	bne.n	8001e44 <HAL_I2C_Mem_Write+0x1c>
    __HAL_LOCK(hi2c);
 8001e5e:	f894 303c 	ldrb.w	r3, [r4, #60]	; 0x3c
 8001e62:	2b01      	cmp	r3, #1
 8001e64:	d0ee      	beq.n	8001e44 <HAL_I2C_Mem_Write+0x1c>
 8001e66:	2301      	movs	r3, #1
 8001e68:	f884 303c 	strb.w	r3, [r4, #60]	; 0x3c
    if ((hi2c->Instance->CR1 & I2C_CR1_PE) != I2C_CR1_PE)
 8001e6c:	6823      	ldr	r3, [r4, #0]
    if (I2C_RequestMemoryWrite(hi2c, DevAddress, MemAddress, MemAddSize, Timeout, tickstart) != HAL_OK)
 8001e6e:	4620      	mov	r0, r4
    if ((hi2c->Instance->CR1 & I2C_CR1_PE) != I2C_CR1_PE)
 8001e70:	681a      	ldr	r2, [r3, #0]
 8001e72:	07d1      	lsls	r1, r2, #31
      __HAL_I2C_ENABLE(hi2c);
 8001e74:	bf58      	it	pl
 8001e76:	681a      	ldrpl	r2, [r3, #0]
    if (I2C_RequestMemoryWrite(hi2c, DevAddress, MemAddress, MemAddSize, Timeout, tickstart) != HAL_OK)
 8001e78:	4639      	mov	r1, r7
      __HAL_I2C_ENABLE(hi2c);
 8001e7a:	bf5c      	itt	pl
 8001e7c:	f042 0201 	orrpl.w	r2, r2, #1
 8001e80:	601a      	strpl	r2, [r3, #0]
    CLEAR_BIT(hi2c->Instance->CR1, I2C_CR1_POS);
 8001e82:	681a      	ldr	r2, [r3, #0]
 8001e84:	f422 6200 	bic.w	r2, r2, #2048	; 0x800
 8001e88:	601a      	str	r2, [r3, #0]
    hi2c->State     = HAL_I2C_STATE_BUSY_TX;
 8001e8a:	2321      	movs	r3, #33	; 0x21
 8001e8c:	f884 303d 	strb.w	r3, [r4, #61]	; 0x3d
    hi2c->Mode      = HAL_I2C_MODE_MEM;
 8001e90:	2340      	movs	r3, #64	; 0x40
 8001e92:	f884 303e 	strb.w	r3, [r4, #62]	; 0x3e
    hi2c->ErrorCode = HAL_I2C_ERROR_NONE;
 8001e96:	2300      	movs	r3, #0
 8001e98:	6423      	str	r3, [r4, #64]	; 0x40
    hi2c->pBuffPtr    = pData;
 8001e9a:	9b0a      	ldr	r3, [sp, #40]	; 0x28
    if (I2C_RequestMemoryWrite(hi2c, DevAddress, MemAddress, MemAddSize, Timeout, tickstart) != HAL_OK)
 8001e9c:	9501      	str	r5, [sp, #4]
    hi2c->pBuffPtr    = pData;
 8001e9e:	6263      	str	r3, [r4, #36]	; 0x24
    hi2c->XferCount   = Size;
 8001ea0:	f8bd 302c 	ldrh.w	r3, [sp, #44]	; 0x2c
    if (I2C_RequestMemoryWrite(hi2c, DevAddress, MemAddress, MemAddSize, Timeout, tickstart) != HAL_OK)
 8001ea4:	9600      	str	r6, [sp, #0]
    hi2c->XferCount   = Size;
 8001ea6:	8563      	strh	r3, [r4, #42]	; 0x2a
    hi2c->XferSize    = hi2c->XferCount;
 8001ea8:	8d63      	ldrh	r3, [r4, #42]	; 0x2a
    if (I2C_RequestMemoryWrite(hi2c, DevAddress, MemAddress, MemAddSize, Timeout, tickstart) != HAL_OK)
 8001eaa:	4642      	mov	r2, r8
    hi2c->XferSize    = hi2c->XferCount;
 8001eac:	8523      	strh	r3, [r4, #40]	; 0x28
    hi2c->XferOptions = I2C_NO_OPTION_FRAME;
 8001eae:	4b25      	ldr	r3, [pc, #148]	; (8001f44 <HAL_I2C_Mem_Write+0x11c>)
 8001eb0:	62e3      	str	r3, [r4, #44]	; 0x2c
    if (I2C_RequestMemoryWrite(hi2c, DevAddress, MemAddress, MemAddSize, Timeout, tickstart) != HAL_OK)
 8001eb2:	464b      	mov	r3, r9
 8001eb4:	f7ff fc0a 	bl	80016cc <I2C_RequestMemoryWrite>
 8001eb8:	2800      	cmp	r0, #0
 8001eba:	d02a      	beq.n	8001f12 <HAL_I2C_Mem_Write+0xea>
      return HAL_ERROR;
 8001ebc:	2001      	movs	r0, #1
 8001ebe:	e7c2      	b.n	8001e46 <HAL_I2C_Mem_Write+0x1e>
      if (I2C_WaitOnTXEFlagUntilTimeout(hi2c, Timeout, tickstart) != HAL_OK)
 8001ec0:	f7ff fbdd 	bl	800167e <I2C_WaitOnTXEFlagUntilTimeout>
 8001ec4:	b140      	cbz	r0, 8001ed8 <HAL_I2C_Mem_Write+0xb0>
      if (hi2c->ErrorCode == HAL_I2C_ERROR_AF)
 8001ec6:	6c23      	ldr	r3, [r4, #64]	; 0x40
 8001ec8:	2b04      	cmp	r3, #4
        SET_BIT(hi2c->Instance->CR1, I2C_CR1_STOP);
 8001eca:	bf01      	itttt	eq
 8001ecc:	6822      	ldreq	r2, [r4, #0]
 8001ece:	6813      	ldreq	r3, [r2, #0]
 8001ed0:	f443 7300 	orreq.w	r3, r3, #512	; 0x200
 8001ed4:	6013      	streq	r3, [r2, #0]
 8001ed6:	e7f1      	b.n	8001ebc <HAL_I2C_Mem_Write+0x94>
      hi2c->Instance->DR = *hi2c->pBuffPtr;
 8001ed8:	6a63      	ldr	r3, [r4, #36]	; 0x24
 8001eda:	6827      	ldr	r7, [r4, #0]
 8001edc:	461a      	mov	r2, r3
 8001ede:	f812 1b01 	ldrb.w	r1, [r2], #1
 8001ee2:	6139      	str	r1, [r7, #16]
      hi2c->pBuffPtr++;
 8001ee4:	6262      	str	r2, [r4, #36]	; 0x24
      hi2c->XferCount--;
 8001ee6:	8d62      	ldrh	r2, [r4, #42]	; 0x2a
      hi2c->XferSize--;
 8001ee8:	8d21      	ldrh	r1, [r4, #40]	; 0x28
      hi2c->XferCount--;
 8001eea:	3a01      	subs	r2, #1
 8001eec:	b292      	uxth	r2, r2
 8001eee:	8562      	strh	r2, [r4, #42]	; 0x2a
      if ((__HAL_I2C_GET_FLAG(hi2c, I2C_FLAG_BTF) == SET) && (hi2c->XferSize != 0U))
 8001ef0:	697a      	ldr	r2, [r7, #20]
      hi2c->XferSize--;
 8001ef2:	1e48      	subs	r0, r1, #1
 8001ef4:	b280      	uxth	r0, r0
      if ((__HAL_I2C_GET_FLAG(hi2c, I2C_FLAG_BTF) == SET) && (hi2c->XferSize != 0U))
 8001ef6:	0752      	lsls	r2, r2, #29
      hi2c->XferSize--;
 8001ef8:	8520      	strh	r0, [r4, #40]	; 0x28
      if ((__HAL_I2C_GET_FLAG(hi2c, I2C_FLAG_BTF) == SET) && (hi2c->XferSize != 0U))
 8001efa:	d50a      	bpl.n	8001f12 <HAL_I2C_Mem_Write+0xea>
 8001efc:	b148      	cbz	r0, 8001f12 <HAL_I2C_Mem_Write+0xea>
        hi2c->Instance->DR = *hi2c->pBuffPtr;
 8001efe:	785a      	ldrb	r2, [r3, #1]
        hi2c->pBuffPtr++;
 8001f00:	3302      	adds	r3, #2
        hi2c->Instance->DR = *hi2c->pBuffPtr;
 8001f02:	613a      	str	r2, [r7, #16]
        hi2c->pBuffPtr++;
 8001f04:	6263      	str	r3, [r4, #36]	; 0x24
        hi2c->XferCount--;
 8001f06:	8d63      	ldrh	r3, [r4, #42]	; 0x2a
        hi2c->XferSize--;
 8001f08:	3902      	subs	r1, #2
        hi2c->XferCount--;
 8001f0a:	3b01      	subs	r3, #1
 8001f0c:	b29b      	uxth	r3, r3
        hi2c->XferSize--;
 8001f0e:	8521      	strh	r1, [r4, #40]	; 0x28
        hi2c->XferCount--;
 8001f10:	8563      	strh	r3, [r4, #42]	; 0x2a
    while (hi2c->XferSize > 0U)
 8001f12:	8d23      	ldrh	r3, [r4, #40]	; 0x28
      if (I2C_WaitOnTXEFlagUntilTimeout(hi2c, Timeout, tickstart) != HAL_OK)
 8001f14:	462a      	mov	r2, r5
 8001f16:	4631      	mov	r1, r6
 8001f18:	4620      	mov	r0, r4
    while (hi2c->XferSize > 0U)
 8001f1a:	2b00      	cmp	r3, #0
 8001f1c:	d1d0      	bne.n	8001ec0 <HAL_I2C_Mem_Write+0x98>
    if (I2C_WaitOnBTFFlagUntilTimeout(hi2c, Timeout, tickstart) != HAL_OK)
 8001f1e:	f7ff fb27 	bl	8001570 <I2C_WaitOnBTFFlagUntilTimeout>
 8001f22:	2800      	cmp	r0, #0
 8001f24:	d1cf      	bne.n	8001ec6 <HAL_I2C_Mem_Write+0x9e>
    SET_BIT(hi2c->Instance->CR1, I2C_CR1_STOP);
 8001f26:	6822      	ldr	r2, [r4, #0]
 8001f28:	6813      	ldr	r3, [r2, #0]
 8001f2a:	f443 7300 	orr.w	r3, r3, #512	; 0x200
 8001f2e:	6013      	str	r3, [r2, #0]
    hi2c->State = HAL_I2C_STATE_READY;
 8001f30:	2320      	movs	r3, #32
    __HAL_UNLOCK(hi2c);
 8001f32:	f884 003c 	strb.w	r0, [r4, #60]	; 0x3c
    hi2c->State = HAL_I2C_STATE_READY;
 8001f36:	f884 303d 	strb.w	r3, [r4, #61]	; 0x3d
    hi2c->Mode = HAL_I2C_MODE_NONE;
 8001f3a:	f884 003e 	strb.w	r0, [r4, #62]	; 0x3e
    return HAL_OK;
 8001f3e:	e782      	b.n	8001e46 <HAL_I2C_Mem_Write+0x1e>
 8001f40:	00100002 	.word	0x00100002
 8001f44:	ffff0000 	.word	0xffff0000

08001f48 <HAL_I2C_Mem_Read>:
{
 8001f48:	e92d 43f0 	stmdb	sp!, {r4, r5, r6, r7, r8, r9, lr}
 8001f4c:	4604      	mov	r4, r0
 8001f4e:	b087      	sub	sp, #28
 8001f50:	4699      	mov	r9, r3
 8001f52:	460d      	mov	r5, r1
 8001f54:	4690      	mov	r8, r2
 8001f56:	9f10      	ldr	r7, [sp, #64]	; 0x40
  uint32_t tickstart = HAL_GetTick();
 8001f58:	f7fe fd9a 	bl	8000a90 <HAL_GetTick>
  if (hi2c->State == HAL_I2C_STATE_READY)
 8001f5c:	f894 303d 	ldrb.w	r3, [r4, #61]	; 0x3d
  uint32_t tickstart = HAL_GetTick();
 8001f60:	4606      	mov	r6, r0
  if (hi2c->State == HAL_I2C_STATE_READY)
 8001f62:	2b20      	cmp	r3, #32
 8001f64:	d004      	beq.n	8001f70 <HAL_I2C_Mem_Read+0x28>
    return HAL_BUSY;
 8001f66:	2502      	movs	r5, #2
}
 8001f68:	4628      	mov	r0, r5
 8001f6a:	b007      	add	sp, #28
 8001f6c:	e8bd 83f0 	ldmia.w	sp!, {r4, r5, r6, r7, r8, r9, pc}
    if (I2C_WaitOnFlagUntilTimeout(hi2c, I2C_FLAG_BUSY, SET, I2C_TIMEOUT_BUSY_FLAG, tickstart) != HAL_OK)
 8001f70:	9000      	str	r0, [sp, #0]
 8001f72:	2319      	movs	r3, #25
 8001f74:	2201      	movs	r2, #1
 8001f76:	497e      	ldr	r1, [pc, #504]	; (8002170 <HAL_I2C_Mem_Read+0x228>)
 8001f78:	4620      	mov	r0, r4
 8001f7a:	f7ff fb4e 	bl	800161a <I2C_WaitOnFlagUntilTimeout>
 8001f7e:	2800      	cmp	r0, #0
 8001f80:	d1f1      	bne.n	8001f66 <HAL_I2C_Mem_Read+0x1e>
    __HAL_LOCK(hi2c);
 8001f82:	f894 303c 	ldrb.w	r3, [r4, #60]	; 0x3c
 8001f86:	2b01      	cmp	r3, #1
 8001f88:	d0ed      	beq.n	8001f66 <HAL_I2C_Mem_Read+0x1e>
 8001f8a:	2301      	movs	r3, #1
 8001f8c:	f884 303c 	strb.w	r3, [r4, #60]	; 0x3c
    if ((hi2c->Instance->CR1 & I2C_CR1_PE) != I2C_CR1_PE)
 8001f90:	6823      	ldr	r3, [r4, #0]
    if (I2C_RequestMemoryRead(hi2c, DevAddress, MemAddress, MemAddSize, Timeout, tickstart) != HAL_OK)
 8001f92:	4629      	mov	r1, r5
    if ((hi2c->Instance->CR1 & I2C_CR1_PE) != I2C_CR1_PE)
 8001f94:	681a      	ldr	r2, [r3, #0]
 8001f96:	07d0      	lsls	r0, r2, #31
      __HAL_I2C_ENABLE(hi2c);
 8001f98:	bf58      	it	pl
 8001f9a:	681a      	ldrpl	r2, [r3, #0]
    if (I2C_RequestMemoryRead(hi2c, DevAddress, MemAddress, MemAddSize, Timeout, tickstart) != HAL_OK)
 8001f9c:	4620      	mov	r0, r4
      __HAL_I2C_ENABLE(hi2c);
 8001f9e:	bf5c      	itt	pl
 8001fa0:	f042 0201 	orrpl.w	r2, r2, #1
 8001fa4:	601a      	strpl	r2, [r3, #0]
    CLEAR_BIT(hi2c->Instance->CR1, I2C_CR1_POS);
 8001fa6:	681a      	ldr	r2, [r3, #0]
 8001fa8:	f422 6200 	bic.w	r2, r2, #2048	; 0x800
 8001fac:	601a      	str	r2, [r3, #0]
    hi2c->State     = HAL_I2C_STATE_BUSY_RX;
 8001fae:	2322      	movs	r3, #34	; 0x22
 8001fb0:	f884 303d 	strb.w	r3, [r4, #61]	; 0x3d
    hi2c->Mode      = HAL_I2C_MODE_MEM;
 8001fb4:	2340      	movs	r3, #64	; 0x40
 8001fb6:	f884 303e 	strb.w	r3, [r4, #62]	; 0x3e
    hi2c->ErrorCode = HAL_I2C_ERROR_NONE;
 8001fba:	2300      	movs	r3, #0
 8001fbc:	6423      	str	r3, [r4, #64]	; 0x40
    hi2c->pBuffPtr    = pData;
 8001fbe:	9b0e      	ldr	r3, [sp, #56]	; 0x38
    if (I2C_RequestMemoryRead(hi2c, DevAddress, MemAddress, MemAddSize, Timeout, tickstart) != HAL_OK)
 8001fc0:	9601      	str	r6, [sp, #4]
    hi2c->pBuffPtr    = pData;
 8001fc2:	6263      	str	r3, [r4, #36]	; 0x24
    hi2c->XferCount   = Size;
 8001fc4:	f8bd 303c 	ldrh.w	r3, [sp, #60]	; 0x3c
    if (I2C_RequestMemoryRead(hi2c, DevAddress, MemAddress, MemAddSize, Timeout, tickstart) != HAL_OK)
 8001fc8:	9700      	str	r7, [sp, #0]
    hi2c->XferCount   = Size;
 8001fca:	8563      	strh	r3, [r4, #42]	; 0x2a
    hi2c->XferSize    = hi2c->XferCount;
 8001fcc:	8d63      	ldrh	r3, [r4, #42]	; 0x2a
    if (I2C_RequestMemoryRead(hi2c, DevAddress, MemAddress, MemAddSize, Timeout, tickstart) != HAL_OK)
 8001fce:	4642      	mov	r2, r8
    hi2c->XferSize    = hi2c->XferCount;
 8001fd0:	8523      	strh	r3, [r4, #40]	; 0x28
    hi2c->XferOptions = I2C_NO_OPTION_FRAME;
 8001fd2:	4b68      	ldr	r3, [pc, #416]	; (8002174 <HAL_I2C_Mem_Read+0x22c>)
 8001fd4:	62e3      	str	r3, [r4, #44]	; 0x2c
    if (I2C_RequestMemoryRead(hi2c, DevAddress, MemAddress, MemAddSize, Timeout, tickstart) != HAL_OK)
 8001fd6:	464b      	mov	r3, r9
 8001fd8:	f7ff fbc6 	bl	8001768 <I2C_RequestMemoryRead>
 8001fdc:	4605      	mov	r5, r0
 8001fde:	b108      	cbz	r0, 8001fe4 <HAL_I2C_Mem_Read+0x9c>
      return HAL_ERROR;
 8001fe0:	2501      	movs	r5, #1
 8001fe2:	e7c1      	b.n	8001f68 <HAL_I2C_Mem_Read+0x20>
    if (hi2c->XferSize == 0U)
 8001fe4:	8d22      	ldrh	r2, [r4, #40]	; 0x28
 8001fe6:	6823      	ldr	r3, [r4, #0]
 8001fe8:	b992      	cbnz	r2, 8002010 <HAL_I2C_Mem_Read+0xc8>
      __HAL_I2C_CLEAR_ADDRFLAG(hi2c);
 8001fea:	9002      	str	r0, [sp, #8]
 8001fec:	695a      	ldr	r2, [r3, #20]
 8001fee:	9202      	str	r2, [sp, #8]
 8001ff0:	699a      	ldr	r2, [r3, #24]
 8001ff2:	9202      	str	r2, [sp, #8]
 8001ff4:	9a02      	ldr	r2, [sp, #8]
      SET_BIT(hi2c->Instance->CR1, I2C_CR1_STOP);
 8001ff6:	681a      	ldr	r2, [r3, #0]
 8001ff8:	f442 7200 	orr.w	r2, r2, #512	; 0x200
 8001ffc:	601a      	str	r2, [r3, #0]
    hi2c->State = HAL_I2C_STATE_READY;
 8001ffe:	2320      	movs	r3, #32
 8002000:	f884 303d 	strb.w	r3, [r4, #61]	; 0x3d
    hi2c->Mode = HAL_I2C_MODE_NONE;
 8002004:	2300      	movs	r3, #0
 8002006:	f884 303e 	strb.w	r3, [r4, #62]	; 0x3e
    __HAL_UNLOCK(hi2c);
 800200a:	f884 303c 	strb.w	r3, [r4, #60]	; 0x3c
    return HAL_OK;
 800200e:	e7ab      	b.n	8001f68 <HAL_I2C_Mem_Read+0x20>
    else if (hi2c->XferSize == 1U)
 8002010:	2a01      	cmp	r2, #1
 8002012:	d12f      	bne.n	8002074 <HAL_I2C_Mem_Read+0x12c>
      CLEAR_BIT(hi2c->Instance->CR1, I2C_CR1_ACK);
 8002014:	681a      	ldr	r2, [r3, #0]
 8002016:	f422 6280 	bic.w	r2, r2, #1024	; 0x400
 800201a:	601a      	str	r2, [r3, #0]
 800201c:	b672      	cpsid	i
      __HAL_I2C_CLEAR_ADDRFLAG(hi2c);
 800201e:	6823      	ldr	r3, [r4, #0]
 8002020:	9003      	str	r0, [sp, #12]
 8002022:	695a      	ldr	r2, [r3, #20]
 8002024:	9203      	str	r2, [sp, #12]
 8002026:	699a      	ldr	r2, [r3, #24]
 8002028:	9203      	str	r2, [sp, #12]
 800202a:	9a03      	ldr	r2, [sp, #12]
      SET_BIT(hi2c->Instance->CR1, I2C_CR1_STOP);
 800202c:	681a      	ldr	r2, [r3, #0]
 800202e:	f442 7200 	orr.w	r2, r2, #512	; 0x200
      CLEAR_BIT(hi2c->Instance->CR1, I2C_CR1_ACK);
 8002032:	601a      	str	r2, [r3, #0]
  __ASM volatile ("cpsie i" : : : "memory");
 8002034:	b662      	cpsie	i
          if (I2C_WaitOnFlagUntilTimeout(hi2c, I2C_FLAG_BTF, RESET, Timeout, tickstart) != HAL_OK)
 8002036:	f8df 8140 	ldr.w	r8, [pc, #320]	; 8002178 <HAL_I2C_Mem_Read+0x230>
    while (hi2c->XferSize > 0U)
 800203a:	8d23      	ldrh	r3, [r4, #40]	; 0x28
 800203c:	2b00      	cmp	r3, #0
 800203e:	d0de      	beq.n	8001ffe <HAL_I2C_Mem_Read+0xb6>
      if (hi2c->XferSize <= 3U)
 8002040:	2b03      	cmp	r3, #3
 8002042:	d877      	bhi.n	8002134 <HAL_I2C_Mem_Read+0x1ec>
        if (hi2c->XferSize == 1U)
 8002044:	2b01      	cmp	r3, #1
 8002046:	d131      	bne.n	80020ac <HAL_I2C_Mem_Read+0x164>
          if (I2C_WaitOnRXNEFlagUntilTimeout(hi2c, Timeout, tickstart) != HAL_OK)
 8002048:	4632      	mov	r2, r6
 800204a:	4639      	mov	r1, r7
 800204c:	4620      	mov	r0, r4
 800204e:	f7ff fab5 	bl	80015bc <I2C_WaitOnRXNEFlagUntilTimeout>
 8002052:	2800      	cmp	r0, #0
 8002054:	d1c4      	bne.n	8001fe0 <HAL_I2C_Mem_Read+0x98>
          *hi2c->pBuffPtr = (uint8_t)hi2c->Instance->DR;
 8002056:	6822      	ldr	r2, [r4, #0]
 8002058:	6a63      	ldr	r3, [r4, #36]	; 0x24
 800205a:	6912      	ldr	r2, [r2, #16]
 800205c:	701a      	strb	r2, [r3, #0]
          hi2c->pBuffPtr++;
 800205e:	6a63      	ldr	r3, [r4, #36]	; 0x24
 8002060:	3301      	adds	r3, #1
 8002062:	6263      	str	r3, [r4, #36]	; 0x24
          hi2c->XferSize--;
 8002064:	8d23      	ldrh	r3, [r4, #40]	; 0x28
 8002066:	3b01      	subs	r3, #1
 8002068:	8523      	strh	r3, [r4, #40]	; 0x28
          hi2c->XferCount--;
 800206a:	8d63      	ldrh	r3, [r4, #42]	; 0x2a
 800206c:	3b01      	subs	r3, #1
 800206e:	b29b      	uxth	r3, r3
 8002070:	8563      	strh	r3, [r4, #42]	; 0x2a
 8002072:	e7e2      	b.n	800203a <HAL_I2C_Mem_Read+0xf2>
    else if (hi2c->XferSize == 2U)
 8002074:	2a02      	cmp	r2, #2
      SET_BIT(hi2c->Instance->CR1, I2C_CR1_POS);
 8002076:	681a      	ldr	r2, [r3, #0]
    else if (hi2c->XferSize == 2U)
 8002078:	d10e      	bne.n	8002098 <HAL_I2C_Mem_Read+0x150>
      SET_BIT(hi2c->Instance->CR1, I2C_CR1_POS);
 800207a:	f442 6200 	orr.w	r2, r2, #2048	; 0x800
 800207e:	601a      	str	r2, [r3, #0]
  __ASM volatile ("cpsid i" : : : "memory");
 8002080:	b672      	cpsid	i
      __HAL_I2C_CLEAR_ADDRFLAG(hi2c);
 8002082:	6823      	ldr	r3, [r4, #0]
 8002084:	9004      	str	r0, [sp, #16]
 8002086:	695a      	ldr	r2, [r3, #20]
 8002088:	9204      	str	r2, [sp, #16]
 800208a:	699a      	ldr	r2, [r3, #24]
 800208c:	9204      	str	r2, [sp, #16]
 800208e:	9a04      	ldr	r2, [sp, #16]
      CLEAR_BIT(hi2c->Instance->CR1, I2C_CR1_ACK);
 8002090:	681a      	ldr	r2, [r3, #0]
 8002092:	f422 6280 	bic.w	r2, r2, #1024	; 0x400
 8002096:	e7cc      	b.n	8002032 <HAL_I2C_Mem_Read+0xea>
      SET_BIT(hi2c->Instance->CR1, I2C_CR1_ACK);
 8002098:	f442 6280 	orr.w	r2, r2, #1024	; 0x400
 800209c:	601a      	str	r2, [r3, #0]
      __HAL_I2C_CLEAR_ADDRFLAG(hi2c);
 800209e:	9005      	str	r0, [sp, #20]
 80020a0:	695a      	ldr	r2, [r3, #20]
 80020a2:	9205      	str	r2, [sp, #20]
 80020a4:	699b      	ldr	r3, [r3, #24]
 80020a6:	9305      	str	r3, [sp, #20]
 80020a8:	9b05      	ldr	r3, [sp, #20]
 80020aa:	e7c4      	b.n	8002036 <HAL_I2C_Mem_Read+0xee>
        else if (hi2c->XferSize == 2U)
 80020ac:	2b02      	cmp	r3, #2
          if (I2C_WaitOnFlagUntilTimeout(hi2c, I2C_FLAG_BTF, RESET, Timeout, tickstart) != HAL_OK)
 80020ae:	9600      	str	r6, [sp, #0]
 80020b0:	463b      	mov	r3, r7
 80020b2:	f04f 0200 	mov.w	r2, #0
 80020b6:	4641      	mov	r1, r8
 80020b8:	4620      	mov	r0, r4
        else if (hi2c->XferSize == 2U)
 80020ba:	d118      	bne.n	80020ee <HAL_I2C_Mem_Read+0x1a6>
          if (I2C_WaitOnFlagUntilTimeout(hi2c, I2C_FLAG_BTF, RESET, Timeout, tickstart) != HAL_OK)
 80020bc:	f7ff faad 	bl	800161a <I2C_WaitOnFlagUntilTimeout>
 80020c0:	2800      	cmp	r0, #0
 80020c2:	d18d      	bne.n	8001fe0 <HAL_I2C_Mem_Read+0x98>
 80020c4:	b672      	cpsid	i
          SET_BIT(hi2c->Instance->CR1, I2C_CR1_STOP);
 80020c6:	6823      	ldr	r3, [r4, #0]
 80020c8:	681a      	ldr	r2, [r3, #0]
 80020ca:	f442 7200 	orr.w	r2, r2, #512	; 0x200
 80020ce:	601a      	str	r2, [r3, #0]
          *hi2c->pBuffPtr = (uint8_t)hi2c->Instance->DR;
 80020d0:	691b      	ldr	r3, [r3, #16]
 80020d2:	6a62      	ldr	r2, [r4, #36]	; 0x24
 80020d4:	7013      	strb	r3, [r2, #0]
          hi2c->pBuffPtr++;
 80020d6:	6a63      	ldr	r3, [r4, #36]	; 0x24
 80020d8:	3301      	adds	r3, #1
 80020da:	6263      	str	r3, [r4, #36]	; 0x24
          hi2c->XferSize--;
 80020dc:	8d23      	ldrh	r3, [r4, #40]	; 0x28
 80020de:	3b01      	subs	r3, #1
 80020e0:	8523      	strh	r3, [r4, #40]	; 0x28
          hi2c->XferCount--;
 80020e2:	8d63      	ldrh	r3, [r4, #42]	; 0x2a
 80020e4:	3b01      	subs	r3, #1
 80020e6:	b29b      	uxth	r3, r3
 80020e8:	8563      	strh	r3, [r4, #42]	; 0x2a
  __ASM volatile ("cpsie i" : : : "memory");
 80020ea:	b662      	cpsie	i
 80020ec:	e7b3      	b.n	8002056 <HAL_I2C_Mem_Read+0x10e>
          if (I2C_WaitOnFlagUntilTimeout(hi2c, I2C_FLAG_BTF, RESET, Timeout, tickstart) != HAL_OK)
 80020ee:	f7ff fa94 	bl	800161a <I2C_WaitOnFlagUntilTimeout>
 80020f2:	4602      	mov	r2, r0
 80020f4:	2800      	cmp	r0, #0
 80020f6:	f47f af73 	bne.w	8001fe0 <HAL_I2C_Mem_Read+0x98>
          CLEAR_BIT(hi2c->Instance->CR1, I2C_CR1_ACK);
 80020fa:	6821      	ldr	r1, [r4, #0]
 80020fc:	680b      	ldr	r3, [r1, #0]
 80020fe:	f423 6380 	bic.w	r3, r3, #1024	; 0x400
 8002102:	600b      	str	r3, [r1, #0]
  __ASM volatile ("cpsid i" : : : "memory");
 8002104:	b672      	cpsid	i
          *hi2c->pBuffPtr = (uint8_t)hi2c->Instance->DR;
 8002106:	6821      	ldr	r1, [r4, #0]
 8002108:	6a63      	ldr	r3, [r4, #36]	; 0x24
 800210a:	6909      	ldr	r1, [r1, #16]
          if (I2C_WaitOnFlagUntilTimeout(hi2c, I2C_FLAG_BTF, RESET, Timeout, tickstart) != HAL_OK)
 800210c:	4620      	mov	r0, r4
          *hi2c->pBuffPtr = (uint8_t)hi2c->Instance->DR;
 800210e:	7019      	strb	r1, [r3, #0]
          hi2c->pBuffPtr++;
 8002110:	6a63      	ldr	r3, [r4, #36]	; 0x24
          if (I2C_WaitOnFlagUntilTimeout(hi2c, I2C_FLAG_BTF, RESET, Timeout, tickstart) != HAL_OK)
 8002112:	9600      	str	r6, [sp, #0]
          hi2c->pBuffPtr++;
 8002114:	3301      	adds	r3, #1
 8002116:	6263      	str	r3, [r4, #36]	; 0x24
          hi2c->XferSize--;
 8002118:	8d23      	ldrh	r3, [r4, #40]	; 0x28
          if (I2C_WaitOnFlagUntilTimeout(hi2c, I2C_FLAG_BTF, RESET, Timeout, tickstart) != HAL_OK)
 800211a:	4641      	mov	r1, r8
          hi2c->XferSize--;
 800211c:	3b01      	subs	r3, #1
 800211e:	8523      	strh	r3, [r4, #40]	; 0x28
          hi2c->XferCount--;
 8002120:	8d63      	ldrh	r3, [r4, #42]	; 0x2a
 8002122:	3b01      	subs	r3, #1
 8002124:	b29b      	uxth	r3, r3
 8002126:	8563      	strh	r3, [r4, #42]	; 0x2a
          if (I2C_WaitOnFlagUntilTimeout(hi2c, I2C_FLAG_BTF, RESET, Timeout, tickstart) != HAL_OK)
 8002128:	463b      	mov	r3, r7
 800212a:	f7ff fa76 	bl	800161a <I2C_WaitOnFlagUntilTimeout>
 800212e:	2800      	cmp	r0, #0
 8002130:	d0c9      	beq.n	80020c6 <HAL_I2C_Mem_Read+0x17e>
 8002132:	e755      	b.n	8001fe0 <HAL_I2C_Mem_Read+0x98>
        if (I2C_WaitOnRXNEFlagUntilTimeout(hi2c, Timeout, tickstart) != HAL_OK)
 8002134:	4632      	mov	r2, r6
 8002136:	4639      	mov	r1, r7
 8002138:	4620      	mov	r0, r4
 800213a:	f7ff fa3f 	bl	80015bc <I2C_WaitOnRXNEFlagUntilTimeout>
 800213e:	2800      	cmp	r0, #0
 8002140:	f47f af4e 	bne.w	8001fe0 <HAL_I2C_Mem_Read+0x98>
        *hi2c->pBuffPtr = (uint8_t)hi2c->Instance->DR;
 8002144:	6822      	ldr	r2, [r4, #0]
 8002146:	6a63      	ldr	r3, [r4, #36]	; 0x24
 8002148:	6912      	ldr	r2, [r2, #16]
 800214a:	701a      	strb	r2, [r3, #0]
        hi2c->pBuffPtr++;
 800214c:	6a62      	ldr	r2, [r4, #36]	; 0x24
 800214e:	1c53      	adds	r3, r2, #1
 8002150:	6263      	str	r3, [r4, #36]	; 0x24
        hi2c->XferSize--;
 8002152:	8d23      	ldrh	r3, [r4, #40]	; 0x28
 8002154:	3b01      	subs	r3, #1
 8002156:	8523      	strh	r3, [r4, #40]	; 0x28
        hi2c->XferCount--;
 8002158:	8d63      	ldrh	r3, [r4, #42]	; 0x2a
 800215a:	3b01      	subs	r3, #1
 800215c:	b29b      	uxth	r3, r3
 800215e:	8563      	strh	r3, [r4, #42]	; 0x2a
        if (__HAL_I2C_GET_FLAG(hi2c, I2C_FLAG_BTF) == SET)
 8002160:	6823      	ldr	r3, [r4, #0]
 8002162:	6959      	ldr	r1, [r3, #20]
 8002164:	0749      	lsls	r1, r1, #29
 8002166:	f57f af68 	bpl.w	800203a <HAL_I2C_Mem_Read+0xf2>
          *hi2c->pBuffPtr = (uint8_t)hi2c->Instance->DR;
 800216a:	691b      	ldr	r3, [r3, #16]
 800216c:	7053      	strb	r3, [r2, #1]
 800216e:	e776      	b.n	800205e <HAL_I2C_Mem_Read+0x116>
 8002170:	00100002 	.word	0x00100002
 8002174:	ffff0000 	.word	0xffff0000
 8002178:	00010004 	.word	0x00010004

0800217c <HAL_I2C_IsDeviceReady>:
{
 800217c:	e92d 4ff0 	stmdb	sp!, {r4, r5, r6, r7, r8, r9, sl, fp, lr}
 8002180:	4604      	mov	r4, r0
 8002182:	b085      	sub	sp, #20
 8002184:	4698      	mov	r8, r3
 8002186:	4689      	mov	r9, r1
 8002188:	4692      	mov	sl, r2
  uint32_t tickstart = HAL_GetTick();
 800218a:	f7fe fc81 	bl	8000a90 <HAL_GetTick>
  if (hi2c->State == HAL_I2C_STATE_READY)
 800218e:	f894 303d 	ldrb.w	r3, [r4, #61]	; 0x3d
  uint32_t tickstart = HAL_GetTick();
 8002192:	4605      	mov	r5, r0
  if (hi2c->State == HAL_I2C_STATE_READY)
 8002194:	2b20      	cmp	r3, #32
 8002196:	d003      	beq.n	80021a0 <HAL_I2C_IsDeviceReady+0x24>
    return HAL_BUSY;
 8002198:	2002      	movs	r0, #2
}
 800219a:	b005      	add	sp, #20
 800219c:	e8bd 8ff0 	ldmia.w	sp!, {r4, r5, r6, r7, r8, r9, sl, fp, pc}
    if (I2C_WaitOnFlagUntilTimeout(hi2c, I2C_FLAG_BUSY, SET, I2C_TIMEOUT_BUSY_FLAG, tickstart) != HAL_OK)
 80021a0:	9000      	str	r0, [sp, #0]
 80021a2:	2319      	movs	r3, #25
 80021a4:	2201      	movs	r2, #1
 80021a6:	4949      	ldr	r1, [pc, #292]	; (80022cc <HAL_I2C_IsDeviceReady+0x150>)
 80021a8:	4620      	mov	r0, r4
 80021aa:	f7ff fa36 	bl	800161a <I2C_WaitOnFlagUntilTimeout>
 80021ae:	2800      	cmp	r0, #0
 80021b0:	d1f2      	bne.n	8002198 <HAL_I2C_IsDeviceReady+0x1c>
    __HAL_LOCK(hi2c);
 80021b2:	f894 303c 	ldrb.w	r3, [r4, #60]	; 0x3c
 80021b6:	2b01      	cmp	r3, #1
 80021b8:	d0ee      	beq.n	8002198 <HAL_I2C_IsDeviceReady+0x1c>
 80021ba:	2301      	movs	r3, #1
 80021bc:	f884 303c 	strb.w	r3, [r4, #60]	; 0x3c
    if ((hi2c->Instance->CR1 & I2C_CR1_PE) != I2C_CR1_PE)
 80021c0:	6823      	ldr	r3, [r4, #0]
  uint32_t I2C_Trials = 1U;
 80021c2:	2701      	movs	r7, #1
    if ((hi2c->Instance->CR1 & I2C_CR1_PE) != I2C_CR1_PE)
 80021c4:	681a      	ldr	r2, [r3, #0]
        if (I2C_WaitOnFlagUntilTimeout(hi2c, I2C_FLAG_BUSY, SET, I2C_TIMEOUT_BUSY_FLAG, tickstart) != HAL_OK)
 80021c6:	f8df b104 	ldr.w	fp, [pc, #260]	; 80022cc <HAL_I2C_IsDeviceReady+0x150>
    if ((hi2c->Instance->CR1 & I2C_CR1_PE) != I2C_CR1_PE)
 80021ca:	07d2      	lsls	r2, r2, #31
      __HAL_I2C_ENABLE(hi2c);
 80021cc:	bf58      	it	pl
 80021ce:	681a      	ldrpl	r2, [r3, #0]
      hi2c->Instance->DR = I2C_7BIT_ADD_WRITE(DevAddress);
 80021d0:	f009 09fe 	and.w	r9, r9, #254	; 0xfe
      __HAL_I2C_ENABLE(hi2c);
 80021d4:	bf5c      	itt	pl
 80021d6:	f042 0201 	orrpl.w	r2, r2, #1
 80021da:	601a      	strpl	r2, [r3, #0]
    CLEAR_BIT(hi2c->Instance->CR1, I2C_CR1_POS);
 80021dc:	681a      	ldr	r2, [r3, #0]
 80021de:	f422 6200 	bic.w	r2, r2, #2048	; 0x800
 80021e2:	601a      	str	r2, [r3, #0]
    hi2c->State = HAL_I2C_STATE_BUSY;
 80021e4:	2324      	movs	r3, #36	; 0x24
 80021e6:	f884 303d 	strb.w	r3, [r4, #61]	; 0x3d
    hi2c->ErrorCode = HAL_I2C_ERROR_NONE;
 80021ea:	2300      	movs	r3, #0
 80021ec:	6423      	str	r3, [r4, #64]	; 0x40
    hi2c->XferOptions = I2C_NO_OPTION_FRAME;
 80021ee:	f5a3 3380 	sub.w	r3, r3, #65536	; 0x10000
 80021f2:	62e3      	str	r3, [r4, #44]	; 0x2c
      SET_BIT(hi2c->Instance->CR1, I2C_CR1_START);
 80021f4:	6822      	ldr	r2, [r4, #0]
      if (I2C_WaitOnFlagUntilTimeout(hi2c, I2C_FLAG_SB, RESET, Timeout, tickstart) != HAL_OK)
 80021f6:	f04f 1101 	mov.w	r1, #65537	; 0x10001
      SET_BIT(hi2c->Instance->CR1, I2C_CR1_START);
 80021fa:	6813      	ldr	r3, [r2, #0]
      if (I2C_WaitOnFlagUntilTimeout(hi2c, I2C_FLAG_SB, RESET, Timeout, tickstart) != HAL_OK)
 80021fc:	4620      	mov	r0, r4
      SET_BIT(hi2c->Instance->CR1, I2C_CR1_START);
 80021fe:	f443 7380 	orr.w	r3, r3, #256	; 0x100
 8002202:	6013      	str	r3, [r2, #0]
      if (I2C_WaitOnFlagUntilTimeout(hi2c, I2C_FLAG_SB, RESET, Timeout, tickstart) != HAL_OK)
 8002204:	9500      	str	r5, [sp, #0]
 8002206:	4643      	mov	r3, r8
 8002208:	2200      	movs	r2, #0
 800220a:	f7ff fa06 	bl	800161a <I2C_WaitOnFlagUntilTimeout>
 800220e:	b108      	cbz	r0, 8002214 <HAL_I2C_IsDeviceReady+0x98>
    return HAL_ERROR;
 8002210:	2001      	movs	r0, #1
 8002212:	e7c2      	b.n	800219a <HAL_I2C_IsDeviceReady+0x1e>
      hi2c->Instance->DR = I2C_7BIT_ADD_WRITE(DevAddress);
 8002214:	6823      	ldr	r3, [r4, #0]
          hi2c->State = HAL_I2C_STATE_TIMEOUT;
 8002216:	26a0      	movs	r6, #160	; 0xa0
      hi2c->Instance->DR = I2C_7BIT_ADD_WRITE(DevAddress);
 8002218:	f8c3 9010 	str.w	r9, [r3, #16]
      tickstart = HAL_GetTick();
 800221c:	f7fe fc38 	bl	8000a90 <HAL_GetTick>
 8002220:	4605      	mov	r5, r0
      tmp1 = __HAL_I2C_GET_FLAG(hi2c, I2C_FLAG_ADDR);
 8002222:	6823      	ldr	r3, [r4, #0]
 8002224:	695a      	ldr	r2, [r3, #20]
      tmp2 = __HAL_I2C_GET_FLAG(hi2c, I2C_FLAG_AF);
 8002226:	695b      	ldr	r3, [r3, #20]
      tmp1 = __HAL_I2C_GET_FLAG(hi2c, I2C_FLAG_ADDR);
 8002228:	f3c2 0240 	ubfx	r2, r2, #1, #1
      tmp2 = __HAL_I2C_GET_FLAG(hi2c, I2C_FLAG_AF);
 800222c:	f3c3 2380 	ubfx	r3, r3, #10, #1
      while ((hi2c->State != HAL_I2C_STATE_TIMEOUT) && (tmp1 == RESET) && (tmp2 == RESET))
 8002230:	f894 103d 	ldrb.w	r1, [r4, #61]	; 0x3d
 8002234:	29a0      	cmp	r1, #160	; 0xa0
 8002236:	d001      	beq.n	800223c <HAL_I2C_IsDeviceReady+0xc0>
 8002238:	b902      	cbnz	r2, 800223c <HAL_I2C_IsDeviceReady+0xc0>
 800223a:	b303      	cbz	r3, 800227e <HAL_I2C_IsDeviceReady+0x102>
      hi2c->State = HAL_I2C_STATE_READY;
 800223c:	2620      	movs	r6, #32
      if (__HAL_I2C_GET_FLAG(hi2c, I2C_FLAG_ADDR) == SET)
 800223e:	6823      	ldr	r3, [r4, #0]
      hi2c->State = HAL_I2C_STATE_READY;
 8002240:	f884 603d 	strb.w	r6, [r4, #61]	; 0x3d
      if (__HAL_I2C_GET_FLAG(hi2c, I2C_FLAG_ADDR) == SET)
 8002244:	695a      	ldr	r2, [r3, #20]
 8002246:	f012 0f02 	tst.w	r2, #2
        SET_BIT(hi2c->Instance->CR1, I2C_CR1_STOP);
 800224a:	681a      	ldr	r2, [r3, #0]
 800224c:	f442 7200 	orr.w	r2, r2, #512	; 0x200
 8002250:	601a      	str	r2, [r3, #0]
      if (__HAL_I2C_GET_FLAG(hi2c, I2C_FLAG_ADDR) == SET)
 8002252:	d026      	beq.n	80022a2 <HAL_I2C_IsDeviceReady+0x126>
        __HAL_I2C_CLEAR_ADDRFLAG(hi2c);
 8002254:	2200      	movs	r2, #0
 8002256:	9203      	str	r2, [sp, #12]
 8002258:	695a      	ldr	r2, [r3, #20]
        if (I2C_WaitOnFlagUntilTimeout(hi2c, I2C_FLAG_BUSY, SET, I2C_TIMEOUT_BUSY_FLAG, tickstart) != HAL_OK)
 800225a:	491c      	ldr	r1, [pc, #112]	; (80022cc <HAL_I2C_IsDeviceReady+0x150>)
        __HAL_I2C_CLEAR_ADDRFLAG(hi2c);
 800225c:	9203      	str	r2, [sp, #12]
 800225e:	699b      	ldr	r3, [r3, #24]
        if (I2C_WaitOnFlagUntilTimeout(hi2c, I2C_FLAG_BUSY, SET, I2C_TIMEOUT_BUSY_FLAG, tickstart) != HAL_OK)
 8002260:	2201      	movs	r2, #1
        __HAL_I2C_CLEAR_ADDRFLAG(hi2c);
 8002262:	9303      	str	r3, [sp, #12]
 8002264:	9b03      	ldr	r3, [sp, #12]
        if (I2C_WaitOnFlagUntilTimeout(hi2c, I2C_FLAG_BUSY, SET, I2C_TIMEOUT_BUSY_FLAG, tickstart) != HAL_OK)
 8002266:	9500      	str	r5, [sp, #0]
 8002268:	2319      	movs	r3, #25
 800226a:	4620      	mov	r0, r4
 800226c:	f7ff f9d5 	bl	800161a <I2C_WaitOnFlagUntilTimeout>
 8002270:	2800      	cmp	r0, #0
 8002272:	d1cd      	bne.n	8002210 <HAL_I2C_IsDeviceReady+0x94>
        hi2c->State = HAL_I2C_STATE_READY;
 8002274:	f884 603d 	strb.w	r6, [r4, #61]	; 0x3d
        __HAL_UNLOCK(hi2c);
 8002278:	f884 003c 	strb.w	r0, [r4, #60]	; 0x3c
        return HAL_OK;
 800227c:	e78d      	b.n	800219a <HAL_I2C_IsDeviceReady+0x1e>
        if (((HAL_GetTick() - tickstart) > Timeout) || (Timeout == 0U))
 800227e:	f7fe fc07 	bl	8000a90 <HAL_GetTick>
 8002282:	1b40      	subs	r0, r0, r5
 8002284:	4580      	cmp	r8, r0
 8002286:	d302      	bcc.n	800228e <HAL_I2C_IsDeviceReady+0x112>
 8002288:	f1b8 0f00 	cmp.w	r8, #0
 800228c:	d101      	bne.n	8002292 <HAL_I2C_IsDeviceReady+0x116>
          hi2c->State = HAL_I2C_STATE_TIMEOUT;
 800228e:	f884 603d 	strb.w	r6, [r4, #61]	; 0x3d
        tmp1 = __HAL_I2C_GET_FLAG(hi2c, I2C_FLAG_ADDR);
 8002292:	6823      	ldr	r3, [r4, #0]
 8002294:	695a      	ldr	r2, [r3, #20]
        tmp2 = __HAL_I2C_GET_FLAG(hi2c, I2C_FLAG_AF);
 8002296:	695b      	ldr	r3, [r3, #20]
        tmp1 = __HAL_I2C_GET_FLAG(hi2c, I2C_FLAG_ADDR);
 8002298:	f3c2 0240 	ubfx	r2, r2, #1, #1
        tmp2 = __HAL_I2C_GET_FLAG(hi2c, I2C_FLAG_AF);
 800229c:	f3c3 2380 	ubfx	r3, r3, #10, #1
 80022a0:	e7c6      	b.n	8002230 <HAL_I2C_IsDeviceReady+0xb4>
        __HAL_I2C_CLEAR_FLAG(hi2c, I2C_FLAG_AF);
 80022a2:	f46f 6280 	mvn.w	r2, #1024	; 0x400
        if (I2C_WaitOnFlagUntilTimeout(hi2c, I2C_FLAG_BUSY, SET, I2C_TIMEOUT_BUSY_FLAG, tickstart) != HAL_OK)
 80022a6:	4659      	mov	r1, fp
        __HAL_I2C_CLEAR_FLAG(hi2c, I2C_FLAG_AF);
 80022a8:	615a      	str	r2, [r3, #20]
        if (I2C_WaitOnFlagUntilTimeout(hi2c, I2C_FLAG_BUSY, SET, I2C_TIMEOUT_BUSY_FLAG, tickstart) != HAL_OK)
 80022aa:	4620      	mov	r0, r4
 80022ac:	9500      	str	r5, [sp, #0]
 80022ae:	2319      	movs	r3, #25
 80022b0:	2201      	movs	r2, #1
 80022b2:	f7ff f9b2 	bl	800161a <I2C_WaitOnFlagUntilTimeout>
 80022b6:	2800      	cmp	r0, #0
 80022b8:	d1aa      	bne.n	8002210 <HAL_I2C_IsDeviceReady+0x94>
      I2C_Trials++;
 80022ba:	3701      	adds	r7, #1
    while (I2C_Trials < Trials);
 80022bc:	4557      	cmp	r7, sl
 80022be:	d399      	bcc.n	80021f4 <HAL_I2C_IsDeviceReady+0x78>
    hi2c->State = HAL_I2C_STATE_READY;
 80022c0:	f884 603d 	strb.w	r6, [r4, #61]	; 0x3d
    __HAL_UNLOCK(hi2c);
 80022c4:	f884 003c 	strb.w	r0, [r4, #60]	; 0x3c
 80022c8:	e7a2      	b.n	8002210 <HAL_I2C_IsDeviceReady+0x94>
 80022ca:	bf00      	nop
 80022cc:	00100002 	.word	0x00100002

080022d0 <HAL_RCC_OscConfig>:
  *         supported by this macro. User should request a transition to HSE Off
  *         first and then HSE On or HSE Bypass.
  * @retval HAL status
  */
HAL_StatusTypeDef HAL_RCC_OscConfig(RCC_OscInitTypeDef  *RCC_OscInitStruct)
{
 80022d0:	e92d 41f3 	stmdb	sp!, {r0, r1, r4, r5, r6, r7, r8, lr}
  uint32_t tickstart;
  uint32_t pll_config;

  /* Check Null pointer */
  if (RCC_OscInitStruct == NULL)
 80022d4:	4605      	mov	r5, r0
 80022d6:	b908      	cbnz	r0, 80022dc <HAL_RCC_OscConfig+0xc>
    else
    {
      /* Check if there is a request to disable the PLL used as System clock source */
      if ((RCC_OscInitStruct->PLL.PLLState) == RCC_PLL_OFF)
      {
        return HAL_ERROR;
 80022d8:	2001      	movs	r0, #1
 80022da:	e03c      	b.n	8002356 <HAL_RCC_OscConfig+0x86>
  if (((RCC_OscInitStruct->OscillatorType) & RCC_OSCILLATORTYPE_HSE) == RCC_OSCILLATORTYPE_HSE)
 80022dc:	6803      	ldr	r3, [r0, #0]
 80022de:	07db      	lsls	r3, r3, #31
 80022e0:	d410      	bmi.n	8002304 <HAL_RCC_OscConfig+0x34>
  if (((RCC_OscInitStruct->OscillatorType) & RCC_OSCILLATORTYPE_HSI) == RCC_OSCILLATORTYPE_HSI)
 80022e2:	682b      	ldr	r3, [r5, #0]
 80022e4:	079f      	lsls	r7, r3, #30
 80022e6:	d45d      	bmi.n	80023a4 <HAL_RCC_OscConfig+0xd4>
  if (((RCC_OscInitStruct->OscillatorType) & RCC_OSCILLATORTYPE_LSI) == RCC_OSCILLATORTYPE_LSI)
 80022e8:	682b      	ldr	r3, [r5, #0]
 80022ea:	0719      	lsls	r1, r3, #28
 80022ec:	f100 8094 	bmi.w	8002418 <HAL_RCC_OscConfig+0x148>
  if (((RCC_OscInitStruct->OscillatorType) & RCC_OSCILLATORTYPE_LSE) == RCC_OSCILLATORTYPE_LSE)
 80022f0:	682b      	ldr	r3, [r5, #0]
 80022f2:	075a      	lsls	r2, r3, #29
 80022f4:	f100 80be 	bmi.w	8002474 <HAL_RCC_OscConfig+0x1a4>
  if ((RCC_OscInitStruct->PLL.PLLState) != RCC_PLL_NONE)
 80022f8:	69e8      	ldr	r0, [r5, #28]
 80022fa:	2800      	cmp	r0, #0
 80022fc:	f040 812c 	bne.w	8002558 <HAL_RCC_OscConfig+0x288>
        }
      }
    }
  }

  return HAL_OK;
 8002300:	2000      	movs	r0, #0
 8002302:	e028      	b.n	8002356 <HAL_RCC_OscConfig+0x86>
    if ((__HAL_RCC_GET_SYSCLK_SOURCE() == RCC_SYSCLKSOURCE_STATUS_HSE)
 8002304:	4c8f      	ldr	r4, [pc, #572]	; (8002544 <HAL_RCC_OscConfig+0x274>)
 8002306:	6863      	ldr	r3, [r4, #4]
 8002308:	f003 030c 	and.w	r3, r3, #12
 800230c:	2b04      	cmp	r3, #4
 800230e:	d007      	beq.n	8002320 <HAL_RCC_OscConfig+0x50>
        || ((__HAL_RCC_GET_SYSCLK_SOURCE() == RCC_SYSCLKSOURCE_STATUS_PLLCLK) && (__HAL_RCC_GET_PLL_OSCSOURCE() == RCC_PLLSOURCE_HSE)))
 8002310:	6863      	ldr	r3, [r4, #4]
 8002312:	f003 030c 	and.w	r3, r3, #12
 8002316:	2b08      	cmp	r3, #8
 8002318:	d109      	bne.n	800232e <HAL_RCC_OscConfig+0x5e>
 800231a:	6863      	ldr	r3, [r4, #4]
 800231c:	03de      	lsls	r6, r3, #15
 800231e:	d506      	bpl.n	800232e <HAL_RCC_OscConfig+0x5e>
      if ((__HAL_RCC_GET_FLAG(RCC_FLAG_HSERDY) != RESET) && (RCC_OscInitStruct->HSEState == RCC_HSE_OFF))
 8002320:	6823      	ldr	r3, [r4, #0]
 8002322:	039c      	lsls	r4, r3, #14
 8002324:	d5dd      	bpl.n	80022e2 <HAL_RCC_OscConfig+0x12>
 8002326:	686b      	ldr	r3, [r5, #4]
 8002328:	2b00      	cmp	r3, #0
 800232a:	d1da      	bne.n	80022e2 <HAL_RCC_OscConfig+0x12>
 800232c:	e7d4      	b.n	80022d8 <HAL_RCC_OscConfig+0x8>
      __HAL_RCC_HSE_CONFIG(RCC_OscInitStruct->HSEState);
 800232e:	686b      	ldr	r3, [r5, #4]
 8002330:	f5b3 3f80 	cmp.w	r3, #65536	; 0x10000
 8002334:	d112      	bne.n	800235c <HAL_RCC_OscConfig+0x8c>
 8002336:	6823      	ldr	r3, [r4, #0]
 8002338:	f443 3380 	orr.w	r3, r3, #65536	; 0x10000
 800233c:	6023      	str	r3, [r4, #0]
        tickstart = HAL_GetTick();
 800233e:	f7fe fba7 	bl	8000a90 <HAL_GetTick>
 8002342:	4606      	mov	r6, r0
        while (__HAL_RCC_GET_FLAG(RCC_FLAG_HSERDY) == RESET)
 8002344:	6823      	ldr	r3, [r4, #0]
 8002346:	0398      	lsls	r0, r3, #14
 8002348:	d4cb      	bmi.n	80022e2 <HAL_RCC_OscConfig+0x12>
          if ((HAL_GetTick() - tickstart) > HSE_TIMEOUT_VALUE)
 800234a:	f7fe fba1 	bl	8000a90 <HAL_GetTick>
 800234e:	1b80      	subs	r0, r0, r6
 8002350:	2864      	cmp	r0, #100	; 0x64
 8002352:	d9f7      	bls.n	8002344 <HAL_RCC_OscConfig+0x74>
            return HAL_TIMEOUT;
 8002354:	2003      	movs	r0, #3
}
 8002356:	b002      	add	sp, #8
 8002358:	e8bd 81f0 	ldmia.w	sp!, {r4, r5, r6, r7, r8, pc}
      __HAL_RCC_HSE_CONFIG(RCC_OscInitStruct->HSEState);
 800235c:	b99b      	cbnz	r3, 8002386 <HAL_RCC_OscConfig+0xb6>
 800235e:	6823      	ldr	r3, [r4, #0]
 8002360:	f423 3380 	bic.w	r3, r3, #65536	; 0x10000
 8002364:	6023      	str	r3, [r4, #0]
 8002366:	6823      	ldr	r3, [r4, #0]
 8002368:	f423 2380 	bic.w	r3, r3, #262144	; 0x40000
 800236c:	6023      	str	r3, [r4, #0]
        tickstart = HAL_GetTick();
 800236e:	f7fe fb8f 	bl	8000a90 <HAL_GetTick>
 8002372:	4606      	mov	r6, r0
        while (__HAL_RCC_GET_FLAG(RCC_FLAG_HSERDY) != RESET)
 8002374:	6823      	ldr	r3, [r4, #0]
 8002376:	0399      	lsls	r1, r3, #14
 8002378:	d5b3      	bpl.n	80022e2 <HAL_RCC_OscConfig+0x12>
          if ((HAL_GetTick() - tickstart) > HSE_TIMEOUT_VALUE)
 800237a:	f7fe fb89 	bl	8000a90 <HAL_GetTick>
 800237e:	1b80      	subs	r0, r0, r6
 8002380:	2864      	cmp	r0, #100	; 0x64
 8002382:	d9f7      	bls.n	8002374 <HAL_RCC_OscConfig+0xa4>
 8002384:	e7e6      	b.n	8002354 <HAL_RCC_OscConfig+0x84>
      __HAL_RCC_HSE_CONFIG(RCC_OscInitStruct->HSEState);
 8002386:	f5b3 2fa0 	cmp.w	r3, #327680	; 0x50000
 800238a:	6823      	ldr	r3, [r4, #0]
 800238c:	d103      	bne.n	8002396 <HAL_RCC_OscConfig+0xc6>
 800238e:	f443 2380 	orr.w	r3, r3, #262144	; 0x40000
 8002392:	6023      	str	r3, [r4, #0]
 8002394:	e7cf      	b.n	8002336 <HAL_RCC_OscConfig+0x66>
 8002396:	f423 3380 	bic.w	r3, r3, #65536	; 0x10000
 800239a:	6023      	str	r3, [r4, #0]
 800239c:	6823      	ldr	r3, [r4, #0]
 800239e:	f423 2380 	bic.w	r3, r3, #262144	; 0x40000
 80023a2:	e7cb      	b.n	800233c <HAL_RCC_OscConfig+0x6c>
    if ((__HAL_RCC_GET_SYSCLK_SOURCE() == RCC_SYSCLKSOURCE_STATUS_HSI)
 80023a4:	4c67      	ldr	r4, [pc, #412]	; (8002544 <HAL_RCC_OscConfig+0x274>)
 80023a6:	6863      	ldr	r3, [r4, #4]
 80023a8:	f013 0f0c 	tst.w	r3, #12
 80023ac:	d007      	beq.n	80023be <HAL_RCC_OscConfig+0xee>
        || ((__HAL_RCC_GET_SYSCLK_SOURCE() == RCC_SYSCLKSOURCE_STATUS_PLLCLK) && (__HAL_RCC_GET_PLL_OSCSOURCE() == RCC_PLLSOURCE_HSI_DIV2)))
 80023ae:	6863      	ldr	r3, [r4, #4]
 80023b0:	f003 030c 	and.w	r3, r3, #12
 80023b4:	2b08      	cmp	r3, #8
 80023b6:	d110      	bne.n	80023da <HAL_RCC_OscConfig+0x10a>
 80023b8:	6863      	ldr	r3, [r4, #4]
 80023ba:	03da      	lsls	r2, r3, #15
 80023bc:	d40d      	bmi.n	80023da <HAL_RCC_OscConfig+0x10a>
      if ((__HAL_RCC_GET_FLAG(RCC_FLAG_HSIRDY) != RESET) && (RCC_OscInitStruct->HSIState != RCC_HSI_ON))
 80023be:	6823      	ldr	r3, [r4, #0]
 80023c0:	079b      	lsls	r3, r3, #30
 80023c2:	d502      	bpl.n	80023ca <HAL_RCC_OscConfig+0xfa>
 80023c4:	692b      	ldr	r3, [r5, #16]
 80023c6:	2b01      	cmp	r3, #1
 80023c8:	d186      	bne.n	80022d8 <HAL_RCC_OscConfig+0x8>
        __HAL_RCC_HSI_CALIBRATIONVALUE_ADJUST(RCC_OscInitStruct->HSICalibrationValue);
 80023ca:	6823      	ldr	r3, [r4, #0]
 80023cc:	696a      	ldr	r2, [r5, #20]
 80023ce:	f023 03f8 	bic.w	r3, r3, #248	; 0xf8
 80023d2:	ea43 03c2 	orr.w	r3, r3, r2, lsl #3
 80023d6:	6023      	str	r3, [r4, #0]
 80023d8:	e786      	b.n	80022e8 <HAL_RCC_OscConfig+0x18>
      if (RCC_OscInitStruct->HSIState != RCC_HSI_OFF)
 80023da:	692a      	ldr	r2, [r5, #16]
 80023dc:	4b5a      	ldr	r3, [pc, #360]	; (8002548 <HAL_RCC_OscConfig+0x278>)
 80023de:	b16a      	cbz	r2, 80023fc <HAL_RCC_OscConfig+0x12c>
        __HAL_RCC_HSI_ENABLE();
 80023e0:	2201      	movs	r2, #1
 80023e2:	601a      	str	r2, [r3, #0]
        tickstart = HAL_GetTick();
 80023e4:	f7fe fb54 	bl	8000a90 <HAL_GetTick>
 80023e8:	4606      	mov	r6, r0
        while (__HAL_RCC_GET_FLAG(RCC_FLAG_HSIRDY) == RESET)
 80023ea:	6823      	ldr	r3, [r4, #0]
 80023ec:	079f      	lsls	r7, r3, #30
 80023ee:	d4ec      	bmi.n	80023ca <HAL_RCC_OscConfig+0xfa>
          if ((HAL_GetTick() - tickstart) > HSI_TIMEOUT_VALUE)
 80023f0:	f7fe fb4e 	bl	8000a90 <HAL_GetTick>
 80023f4:	1b80      	subs	r0, r0, r6
 80023f6:	2802      	cmp	r0, #2
 80023f8:	d9f7      	bls.n	80023ea <HAL_RCC_OscConfig+0x11a>
 80023fa:	e7ab      	b.n	8002354 <HAL_RCC_OscConfig+0x84>
        __HAL_RCC_HSI_DISABLE();
 80023fc:	601a      	str	r2, [r3, #0]
        tickstart = HAL_GetTick();
 80023fe:	f7fe fb47 	bl	8000a90 <HAL_GetTick>
 8002402:	4606      	mov	r6, r0
        while (__HAL_RCC_GET_FLAG(RCC_FLAG_HSIRDY) != RESET)
 8002404:	6823      	ldr	r3, [r4, #0]
 8002406:	0798      	lsls	r0, r3, #30
 8002408:	f57f af6e 	bpl.w	80022e8 <HAL_RCC_OscConfig+0x18>
          if ((HAL_GetTick() - tickstart) > HSI_TIMEOUT_VALUE)
 800240c:	f7fe fb40 	bl	8000a90 <HAL_GetTick>
 8002410:	1b80      	subs	r0, r0, r6
 8002412:	2802      	cmp	r0, #2
 8002414:	d9f6      	bls.n	8002404 <HAL_RCC_OscConfig+0x134>
 8002416:	e79d      	b.n	8002354 <HAL_RCC_OscConfig+0x84>
    if (RCC_OscInitStruct->LSIState != RCC_LSI_OFF)
 8002418:	69aa      	ldr	r2, [r5, #24]
 800241a:	4c4a      	ldr	r4, [pc, #296]	; (8002544 <HAL_RCC_OscConfig+0x274>)
 800241c:	4b4b      	ldr	r3, [pc, #300]	; (800254c <HAL_RCC_OscConfig+0x27c>)
 800241e:	b1da      	cbz	r2, 8002458 <HAL_RCC_OscConfig+0x188>
      __HAL_RCC_LSI_ENABLE();
 8002420:	2201      	movs	r2, #1
 8002422:	601a      	str	r2, [r3, #0]
      tickstart = HAL_GetTick();
 8002424:	f7fe fb34 	bl	8000a90 <HAL_GetTick>
 8002428:	4606      	mov	r6, r0
      while (__HAL_RCC_GET_FLAG(RCC_FLAG_LSIRDY) == RESET)
 800242a:	6a63      	ldr	r3, [r4, #36]	; 0x24
 800242c:	079b      	lsls	r3, r3, #30
 800242e:	d50d      	bpl.n	800244c <HAL_RCC_OscConfig+0x17c>
  * @param  mdelay: specifies the delay time length, in milliseconds.
  * @retval None
  */
static void RCC_Delay(uint32_t mdelay)
{
  __IO uint32_t Delay = mdelay * (SystemCoreClock / 8U / 1000U);
 8002430:	f44f 52fa 	mov.w	r2, #8000	; 0x1f40
 8002434:	4b46      	ldr	r3, [pc, #280]	; (8002550 <HAL_RCC_OscConfig+0x280>)
 8002436:	681b      	ldr	r3, [r3, #0]
 8002438:	fbb3 f3f2 	udiv	r3, r3, r2
 800243c:	9301      	str	r3, [sp, #4]
  do
  {
    __NOP();
 800243e:	bf00      	nop
  }
  while (Delay --);
 8002440:	9b01      	ldr	r3, [sp, #4]
 8002442:	1e5a      	subs	r2, r3, #1
 8002444:	9201      	str	r2, [sp, #4]
 8002446:	2b00      	cmp	r3, #0
 8002448:	d1f9      	bne.n	800243e <HAL_RCC_OscConfig+0x16e>
 800244a:	e751      	b.n	80022f0 <HAL_RCC_OscConfig+0x20>
        if ((HAL_GetTick() - tickstart) > LSI_TIMEOUT_VALUE)
 800244c:	f7fe fb20 	bl	8000a90 <HAL_GetTick>
 8002450:	1b80      	subs	r0, r0, r6
 8002452:	2802      	cmp	r0, #2
 8002454:	d9e9      	bls.n	800242a <HAL_RCC_OscConfig+0x15a>
 8002456:	e77d      	b.n	8002354 <HAL_RCC_OscConfig+0x84>
      __HAL_RCC_LSI_DISABLE();
 8002458:	601a      	str	r2, [r3, #0]
      tickstart = HAL_GetTick();
 800245a:	f7fe fb19 	bl	8000a90 <HAL_GetTick>
 800245e:	4606      	mov	r6, r0
      while (__HAL_RCC_GET_FLAG(RCC_FLAG_LSIRDY) != RESET)
 8002460:	6a63      	ldr	r3, [r4, #36]	; 0x24
 8002462:	079f      	lsls	r7, r3, #30
 8002464:	f57f af44 	bpl.w	80022f0 <HAL_RCC_OscConfig+0x20>
        if ((HAL_GetTick() - tickstart) > LSI_TIMEOUT_VALUE)
 8002468:	f7fe fb12 	bl	8000a90 <HAL_GetTick>
 800246c:	1b80      	subs	r0, r0, r6
 800246e:	2802      	cmp	r0, #2
 8002470:	d9f6      	bls.n	8002460 <HAL_RCC_OscConfig+0x190>
 8002472:	e76f      	b.n	8002354 <HAL_RCC_OscConfig+0x84>
    if (__HAL_RCC_PWR_IS_CLK_DISABLED())
 8002474:	4c33      	ldr	r4, [pc, #204]	; (8002544 <HAL_RCC_OscConfig+0x274>)
 8002476:	69e3      	ldr	r3, [r4, #28]
 8002478:	00d8      	lsls	r0, r3, #3
 800247a:	d424      	bmi.n	80024c6 <HAL_RCC_OscConfig+0x1f6>
      pwrclkchanged = SET;
 800247c:	2701      	movs	r7, #1
      __HAL_RCC_PWR_CLK_ENABLE();
 800247e:	69e3      	ldr	r3, [r4, #28]
 8002480:	f043 5380 	orr.w	r3, r3, #268435456	; 0x10000000
 8002484:	61e3      	str	r3, [r4, #28]
 8002486:	69e3      	ldr	r3, [r4, #28]
 8002488:	f003 5380 	and.w	r3, r3, #268435456	; 0x10000000
 800248c:	9300      	str	r3, [sp, #0]
 800248e:	9b00      	ldr	r3, [sp, #0]
    if (HAL_IS_BIT_CLR(PWR->CR, PWR_CR_DBP))
 8002490:	4e30      	ldr	r6, [pc, #192]	; (8002554 <HAL_RCC_OscConfig+0x284>)
 8002492:	6833      	ldr	r3, [r6, #0]
 8002494:	05d9      	lsls	r1, r3, #23
 8002496:	d518      	bpl.n	80024ca <HAL_RCC_OscConfig+0x1fa>
    __HAL_RCC_LSE_CONFIG(RCC_OscInitStruct->LSEState);
 8002498:	68eb      	ldr	r3, [r5, #12]
 800249a:	2b01      	cmp	r3, #1
 800249c:	d126      	bne.n	80024ec <HAL_RCC_OscConfig+0x21c>
 800249e:	6a23      	ldr	r3, [r4, #32]
 80024a0:	f043 0301 	orr.w	r3, r3, #1
 80024a4:	6223      	str	r3, [r4, #32]
      tickstart = HAL_GetTick();
 80024a6:	f7fe faf3 	bl	8000a90 <HAL_GetTick>
        if ((HAL_GetTick() - tickstart) > RCC_LSE_TIMEOUT_VALUE)
 80024aa:	f241 3688 	movw	r6, #5000	; 0x1388
      tickstart = HAL_GetTick();
 80024ae:	4680      	mov	r8, r0
      while (__HAL_RCC_GET_FLAG(RCC_FLAG_LSERDY) == RESET)
 80024b0:	6a23      	ldr	r3, [r4, #32]
 80024b2:	079b      	lsls	r3, r3, #30
 80024b4:	d53f      	bpl.n	8002536 <HAL_RCC_OscConfig+0x266>
    if (pwrclkchanged == SET)
 80024b6:	2f00      	cmp	r7, #0
 80024b8:	f43f af1e 	beq.w	80022f8 <HAL_RCC_OscConfig+0x28>
      __HAL_RCC_PWR_CLK_DISABLE();
 80024bc:	69e3      	ldr	r3, [r4, #28]
 80024be:	f023 5380 	bic.w	r3, r3, #268435456	; 0x10000000
 80024c2:	61e3      	str	r3, [r4, #28]
 80024c4:	e718      	b.n	80022f8 <HAL_RCC_OscConfig+0x28>
    FlagStatus       pwrclkchanged = RESET;
 80024c6:	2700      	movs	r7, #0
 80024c8:	e7e2      	b.n	8002490 <HAL_RCC_OscConfig+0x1c0>
      SET_BIT(PWR->CR, PWR_CR_DBP);
 80024ca:	6833      	ldr	r3, [r6, #0]
 80024cc:	f443 7380 	orr.w	r3, r3, #256	; 0x100
 80024d0:	6033      	str	r3, [r6, #0]
      tickstart = HAL_GetTick();
 80024d2:	f7fe fadd 	bl	8000a90 <HAL_GetTick>
 80024d6:	4680      	mov	r8, r0
      while (HAL_IS_BIT_CLR(PWR->CR, PWR_CR_DBP))
 80024d8:	6833      	ldr	r3, [r6, #0]
 80024da:	05da      	lsls	r2, r3, #23
 80024dc:	d4dc      	bmi.n	8002498 <HAL_RCC_OscConfig+0x1c8>
        if ((HAL_GetTick() - tickstart) > RCC_DBP_TIMEOUT_VALUE)
 80024de:	f7fe fad7 	bl	8000a90 <HAL_GetTick>
 80024e2:	eba0 0008 	sub.w	r0, r0, r8
 80024e6:	2864      	cmp	r0, #100	; 0x64
 80024e8:	d9f6      	bls.n	80024d8 <HAL_RCC_OscConfig+0x208>
 80024ea:	e733      	b.n	8002354 <HAL_RCC_OscConfig+0x84>
    __HAL_RCC_LSE_CONFIG(RCC_OscInitStruct->LSEState);
 80024ec:	b9ab      	cbnz	r3, 800251a <HAL_RCC_OscConfig+0x24a>
 80024ee:	6a23      	ldr	r3, [r4, #32]
        if ((HAL_GetTick() - tickstart) > RCC_LSE_TIMEOUT_VALUE)
 80024f0:	f241 3888 	movw	r8, #5000	; 0x1388
    __HAL_RCC_LSE_CONFIG(RCC_OscInitStruct->LSEState);
 80024f4:	f023 0301 	bic.w	r3, r3, #1
 80024f8:	6223      	str	r3, [r4, #32]
 80024fa:	6a23      	ldr	r3, [r4, #32]
 80024fc:	f023 0304 	bic.w	r3, r3, #4
 8002500:	6223      	str	r3, [r4, #32]
      tickstart = HAL_GetTick();
 8002502:	f7fe fac5 	bl	8000a90 <HAL_GetTick>
 8002506:	4606      	mov	r6, r0
      while (__HAL_RCC_GET_FLAG(RCC_FLAG_LSERDY) != RESET)
 8002508:	6a23      	ldr	r3, [r4, #32]
 800250a:	0798      	lsls	r0, r3, #30
 800250c:	d5d3      	bpl.n	80024b6 <HAL_RCC_OscConfig+0x1e6>
        if ((HAL_GetTick() - tickstart) > RCC_LSE_TIMEOUT_VALUE)
 800250e:	f7fe fabf 	bl	8000a90 <HAL_GetTick>
 8002512:	1b80      	subs	r0, r0, r6
 8002514:	4540      	cmp	r0, r8
 8002516:	d9f7      	bls.n	8002508 <HAL_RCC_OscConfig+0x238>
 8002518:	e71c      	b.n	8002354 <HAL_RCC_OscConfig+0x84>
    __HAL_RCC_LSE_CONFIG(RCC_OscInitStruct->LSEState);
 800251a:	2b05      	cmp	r3, #5
 800251c:	6a23      	ldr	r3, [r4, #32]
 800251e:	d103      	bne.n	8002528 <HAL_RCC_OscConfig+0x258>
 8002520:	f043 0304 	orr.w	r3, r3, #4
 8002524:	6223      	str	r3, [r4, #32]
 8002526:	e7ba      	b.n	800249e <HAL_RCC_OscConfig+0x1ce>
 8002528:	f023 0301 	bic.w	r3, r3, #1
 800252c:	6223      	str	r3, [r4, #32]
 800252e:	6a23      	ldr	r3, [r4, #32]
 8002530:	f023 0304 	bic.w	r3, r3, #4
 8002534:	e7b6      	b.n	80024a4 <HAL_RCC_OscConfig+0x1d4>
        if ((HAL_GetTick() - tickstart) > RCC_LSE_TIMEOUT_VALUE)
 8002536:	f7fe faab 	bl	8000a90 <HAL_GetTick>
 800253a:	eba0 0008 	sub.w	r0, r0, r8
 800253e:	42b0      	cmp	r0, r6
 8002540:	d9b6      	bls.n	80024b0 <HAL_RCC_OscConfig+0x1e0>
 8002542:	e707      	b.n	8002354 <HAL_RCC_OscConfig+0x84>
 8002544:	40021000 	.word	0x40021000
 8002548:	42420000 	.word	0x42420000
 800254c:	42420480 	.word	0x42420480
 8002550:	20000020 	.word	0x20000020
 8002554:	40007000 	.word	0x40007000
    if (__HAL_RCC_GET_SYSCLK_SOURCE() != RCC_SYSCLKSOURCE_STATUS_PLLCLK)
 8002558:	4b2a      	ldr	r3, [pc, #168]	; (8002604 <HAL_RCC_OscConfig+0x334>)
 800255a:	685a      	ldr	r2, [r3, #4]
 800255c:	461c      	mov	r4, r3
 800255e:	f002 020c 	and.w	r2, r2, #12
 8002562:	2a08      	cmp	r2, #8
 8002564:	d03d      	beq.n	80025e2 <HAL_RCC_OscConfig+0x312>
 8002566:	2300      	movs	r3, #0
 8002568:	4e27      	ldr	r6, [pc, #156]	; (8002608 <HAL_RCC_OscConfig+0x338>)
      if ((RCC_OscInitStruct->PLL.PLLState) == RCC_PLL_ON)
 800256a:	2802      	cmp	r0, #2
        __HAL_RCC_PLL_DISABLE();
 800256c:	6033      	str	r3, [r6, #0]
      if ((RCC_OscInitStruct->PLL.PLLState) == RCC_PLL_ON)
 800256e:	d12b      	bne.n	80025c8 <HAL_RCC_OscConfig+0x2f8>
        tickstart = HAL_GetTick();
 8002570:	f7fe fa8e 	bl	8000a90 <HAL_GetTick>
 8002574:	4607      	mov	r7, r0
        while (__HAL_RCC_GET_FLAG(RCC_FLAG_PLLRDY)  != RESET)
 8002576:	6823      	ldr	r3, [r4, #0]
 8002578:	0199      	lsls	r1, r3, #6
 800257a:	d41f      	bmi.n	80025bc <HAL_RCC_OscConfig+0x2ec>
        if (RCC_OscInitStruct->PLL.PLLSource == RCC_PLLSOURCE_HSE)
 800257c:	6a2b      	ldr	r3, [r5, #32]
 800257e:	f5b3 3f80 	cmp.w	r3, #65536	; 0x10000
 8002582:	d105      	bne.n	8002590 <HAL_RCC_OscConfig+0x2c0>
          __HAL_RCC_HSE_PREDIV_CONFIG(RCC_OscInitStruct->HSEPredivValue);
 8002584:	6862      	ldr	r2, [r4, #4]
 8002586:	68a9      	ldr	r1, [r5, #8]
 8002588:	f422 3200 	bic.w	r2, r2, #131072	; 0x20000
 800258c:	430a      	orrs	r2, r1
 800258e:	6062      	str	r2, [r4, #4]
        __HAL_RCC_PLL_CONFIG(RCC_OscInitStruct->PLL.PLLSource,
 8002590:	6a69      	ldr	r1, [r5, #36]	; 0x24
 8002592:	6862      	ldr	r2, [r4, #4]
 8002594:	430b      	orrs	r3, r1
 8002596:	f422 1274 	bic.w	r2, r2, #3997696	; 0x3d0000
 800259a:	4313      	orrs	r3, r2
 800259c:	6063      	str	r3, [r4, #4]
        __HAL_RCC_PLL_ENABLE();
 800259e:	2301      	movs	r3, #1
 80025a0:	6033      	str	r3, [r6, #0]
        tickstart = HAL_GetTick();
 80025a2:	f7fe fa75 	bl	8000a90 <HAL_GetTick>
 80025a6:	4605      	mov	r5, r0
        while (__HAL_RCC_GET_FLAG(RCC_FLAG_PLLRDY)  == RESET)
 80025a8:	6823      	ldr	r3, [r4, #0]
 80025aa:	019a      	lsls	r2, r3, #6
 80025ac:	f53f aea8 	bmi.w	8002300 <HAL_RCC_OscConfig+0x30>
          if ((HAL_GetTick() - tickstart) > PLL_TIMEOUT_VALUE)
 80025b0:	f7fe fa6e 	bl	8000a90 <HAL_GetTick>
 80025b4:	1b40      	subs	r0, r0, r5
 80025b6:	2802      	cmp	r0, #2
 80025b8:	d9f6      	bls.n	80025a8 <HAL_RCC_OscConfig+0x2d8>
 80025ba:	e6cb      	b.n	8002354 <HAL_RCC_OscConfig+0x84>
          if ((HAL_GetTick() - tickstart) > PLL_TIMEOUT_VALUE)
 80025bc:	f7fe fa68 	bl	8000a90 <HAL_GetTick>
 80025c0:	1bc0      	subs	r0, r0, r7
 80025c2:	2802      	cmp	r0, #2
 80025c4:	d9d7      	bls.n	8002576 <HAL_RCC_OscConfig+0x2a6>
 80025c6:	e6c5      	b.n	8002354 <HAL_RCC_OscConfig+0x84>
        tickstart = HAL_GetTick();
 80025c8:	f7fe fa62 	bl	8000a90 <HAL_GetTick>
 80025cc:	4605      	mov	r5, r0
        while (__HAL_RCC_GET_FLAG(RCC_FLAG_PLLRDY)  != RESET)
 80025ce:	6823      	ldr	r3, [r4, #0]
 80025d0:	019b      	lsls	r3, r3, #6
 80025d2:	f57f ae95 	bpl.w	8002300 <HAL_RCC_OscConfig+0x30>
          if ((HAL_GetTick() - tickstart) > PLL_TIMEOUT_VALUE)
 80025d6:	f7fe fa5b 	bl	8000a90 <HAL_GetTick>
 80025da:	1b40      	subs	r0, r0, r5
 80025dc:	2802      	cmp	r0, #2
 80025de:	d9f6      	bls.n	80025ce <HAL_RCC_OscConfig+0x2fe>
 80025e0:	e6b8      	b.n	8002354 <HAL_RCC_OscConfig+0x84>
      if ((RCC_OscInitStruct->PLL.PLLState) == RCC_PLL_OFF)
 80025e2:	2801      	cmp	r0, #1
 80025e4:	f43f aeb7 	beq.w	8002356 <HAL_RCC_OscConfig+0x86>
        pll_config = RCC->CFGR;
 80025e8:	6858      	ldr	r0, [r3, #4]
        if ((READ_BIT(pll_config, RCC_CFGR_PLLSRC) != RCC_OscInitStruct->PLL.PLLSource) ||
 80025ea:	6a2b      	ldr	r3, [r5, #32]
 80025ec:	f400 3280 	and.w	r2, r0, #65536	; 0x10000
 80025f0:	429a      	cmp	r2, r3
 80025f2:	f47f ae71 	bne.w	80022d8 <HAL_RCC_OscConfig+0x8>
 80025f6:	6a6b      	ldr	r3, [r5, #36]	; 0x24
            (READ_BIT(pll_config, RCC_CFGR_PLLMULL) != RCC_OscInitStruct->PLL.PLLMUL))
 80025f8:	f400 1070 	and.w	r0, r0, #3932160	; 0x3c0000
    return HAL_ERROR;
 80025fc:	1ac0      	subs	r0, r0, r3
 80025fe:	bf18      	it	ne
 8002600:	2001      	movne	r0, #1
 8002602:	e6a8      	b.n	8002356 <HAL_RCC_OscConfig+0x86>
 8002604:	40021000 	.word	0x40021000
 8002608:	42420060 	.word	0x42420060

0800260c <HAL_RCC_GetSysClockFreq>:
{
 800260c:	b530      	push	{r4, r5, lr}
  const uint8_t aPLLMULFactorTable[16] = {2, 3, 4, 5, 6, 7, 8, 9, 10, 11, 12, 13, 14, 15, 16, 16};
 800260e:	4b19      	ldr	r3, [pc, #100]	; (8002674 <HAL_RCC_GetSysClockFreq+0x68>)
{
 8002610:	b087      	sub	sp, #28
  const uint8_t aPLLMULFactorTable[16] = {2, 3, 4, 5, 6, 7, 8, 9, 10, 11, 12, 13, 14, 15, 16, 16};
 8002612:	ac02      	add	r4, sp, #8
 8002614:	f103 0510 	add.w	r5, r3, #16
 8002618:	4622      	mov	r2, r4
 800261a:	6818      	ldr	r0, [r3, #0]
 800261c:	6859      	ldr	r1, [r3, #4]
 800261e:	3308      	adds	r3, #8
 8002620:	c203      	stmia	r2!, {r0, r1}
 8002622:	42ab      	cmp	r3, r5
 8002624:	4614      	mov	r4, r2
 8002626:	d1f7      	bne.n	8002618 <HAL_RCC_GetSysClockFreq+0xc>
  const uint8_t aPredivFactorTable[2] = {1, 2};
 8002628:	2301      	movs	r3, #1
 800262a:	f88d 3004 	strb.w	r3, [sp, #4]
 800262e:	2302      	movs	r3, #2
  tmpreg = RCC->CFGR;
 8002630:	4911      	ldr	r1, [pc, #68]	; (8002678 <HAL_RCC_GetSysClockFreq+0x6c>)
  const uint8_t aPredivFactorTable[2] = {1, 2};
 8002632:	f88d 3005 	strb.w	r3, [sp, #5]
  tmpreg = RCC->CFGR;
 8002636:	684b      	ldr	r3, [r1, #4]
  switch (tmpreg & RCC_CFGR_SWS)
 8002638:	f003 020c 	and.w	r2, r3, #12
 800263c:	2a08      	cmp	r2, #8
 800263e:	d117      	bne.n	8002670 <HAL_RCC_GetSysClockFreq+0x64>
      pllmul = aPLLMULFactorTable[(uint32_t)(tmpreg & RCC_CFGR_PLLMULL) >> RCC_CFGR_PLLMULL_Pos];
 8002640:	f3c3 4283 	ubfx	r2, r3, #18, #4
 8002644:	a806      	add	r0, sp, #24
 8002646:	4402      	add	r2, r0
      if ((tmpreg & RCC_CFGR_PLLSRC) != RCC_PLLSOURCE_HSI_DIV2)
 8002648:	03db      	lsls	r3, r3, #15
      pllmul = aPLLMULFactorTable[(uint32_t)(tmpreg & RCC_CFGR_PLLMULL) >> RCC_CFGR_PLLMULL_Pos];
 800264a:	f812 2c10 	ldrb.w	r2, [r2, #-16]
      if ((tmpreg & RCC_CFGR_PLLSRC) != RCC_PLLSOURCE_HSI_DIV2)
 800264e:	d50c      	bpl.n	800266a <HAL_RCC_GetSysClockFreq+0x5e>
        prediv = aPredivFactorTable[(uint32_t)(RCC->CFGR & RCC_CFGR_PLLXTPRE) >> RCC_CFGR_PLLXTPRE_Pos];
 8002650:	684b      	ldr	r3, [r1, #4]
        pllclk = (uint32_t)((HSE_VALUE  * pllmul) / prediv);
 8002652:	480a      	ldr	r0, [pc, #40]	; (800267c <HAL_RCC_GetSysClockFreq+0x70>)
        prediv = aPredivFactorTable[(uint32_t)(RCC->CFGR & RCC_CFGR_PLLXTPRE) >> RCC_CFGR_PLLXTPRE_Pos];
 8002654:	f3c3 4340 	ubfx	r3, r3, #17, #1
        pllclk = (uint32_t)((HSE_VALUE  * pllmul) / prediv);
 8002658:	4350      	muls	r0, r2
        prediv = aPredivFactorTable[(uint32_t)(RCC->CFGR & RCC_CFGR_PLLXTPRE) >> RCC_CFGR_PLLXTPRE_Pos];
 800265a:	aa06      	add	r2, sp, #24
 800265c:	4413      	add	r3, r2
 800265e:	f813 3c14 	ldrb.w	r3, [r3, #-20]
        pllclk = (uint32_t)((HSE_VALUE  * pllmul) / prediv);
 8002662:	fbb0 f0f3 	udiv	r0, r0, r3
}
 8002666:	b007      	add	sp, #28
 8002668:	bd30      	pop	{r4, r5, pc}
        pllclk = (uint32_t)((HSI_VALUE >> 1) * pllmul);
 800266a:	4805      	ldr	r0, [pc, #20]	; (8002680 <HAL_RCC_GetSysClockFreq+0x74>)
 800266c:	4350      	muls	r0, r2
 800266e:	e7fa      	b.n	8002666 <HAL_RCC_GetSysClockFreq+0x5a>
      sysclockfreq = HSE_VALUE;
 8002670:	4802      	ldr	r0, [pc, #8]	; (800267c <HAL_RCC_GetSysClockFreq+0x70>)
  return sysclockfreq;
 8002672:	e7f8      	b.n	8002666 <HAL_RCC_GetSysClockFreq+0x5a>
 8002674:	08006b38 	.word	0x08006b38
 8002678:	40021000 	.word	0x40021000
 800267c:	007a1200 	.word	0x007a1200
 8002680:	003d0900 	.word	0x003d0900

08002684 <HAL_RCC_ClockConfig>:
{
 8002684:	e92d 41f0 	stmdb	sp!, {r4, r5, r6, r7, r8, lr}
 8002688:	460d      	mov	r5, r1
  if (RCC_ClkInitStruct == NULL)
 800268a:	4604      	mov	r4, r0
 800268c:	b910      	cbnz	r0, 8002694 <HAL_RCC_ClockConfig+0x10>
    return HAL_ERROR;
 800268e:	2001      	movs	r0, #1
 8002690:	e8bd 81f0 	ldmia.w	sp!, {r4, r5, r6, r7, r8, pc}
  if (FLatency > __HAL_FLASH_GET_LATENCY())
 8002694:	4a45      	ldr	r2, [pc, #276]	; (80027ac <HAL_RCC_ClockConfig+0x128>)
 8002696:	6813      	ldr	r3, [r2, #0]
 8002698:	f003 0307 	and.w	r3, r3, #7
 800269c:	428b      	cmp	r3, r1
 800269e:	d329      	bcc.n	80026f4 <HAL_RCC_ClockConfig+0x70>
if (((RCC_ClkInitStruct->ClockType) & RCC_CLOCKTYPE_HCLK) == RCC_CLOCKTYPE_HCLK)
 80026a0:	6821      	ldr	r1, [r4, #0]
 80026a2:	078e      	lsls	r6, r1, #30
 80026a4:	d431      	bmi.n	800270a <HAL_RCC_ClockConfig+0x86>
  if (((RCC_ClkInitStruct->ClockType) & RCC_CLOCKTYPE_SYSCLK) == RCC_CLOCKTYPE_SYSCLK)
 80026a6:	07ca      	lsls	r2, r1, #31
 80026a8:	d444      	bmi.n	8002734 <HAL_RCC_ClockConfig+0xb0>
  if (FLatency < __HAL_FLASH_GET_LATENCY())
 80026aa:	4a40      	ldr	r2, [pc, #256]	; (80027ac <HAL_RCC_ClockConfig+0x128>)
 80026ac:	6813      	ldr	r3, [r2, #0]
 80026ae:	f003 0307 	and.w	r3, r3, #7
 80026b2:	429d      	cmp	r5, r3
 80026b4:	d367      	bcc.n	8002786 <HAL_RCC_ClockConfig+0x102>
if (((RCC_ClkInitStruct->ClockType) & RCC_CLOCKTYPE_PCLK1) == RCC_CLOCKTYPE_PCLK1)
 80026b6:	6822      	ldr	r2, [r4, #0]
 80026b8:	4d3d      	ldr	r5, [pc, #244]	; (80027b0 <HAL_RCC_ClockConfig+0x12c>)
 80026ba:	f012 0f04 	tst.w	r2, #4
 80026be:	d16e      	bne.n	800279e <HAL_RCC_ClockConfig+0x11a>
  if (((RCC_ClkInitStruct->ClockType) & RCC_CLOCKTYPE_PCLK2) == RCC_CLOCKTYPE_PCLK2)
 80026c0:	0713      	lsls	r3, r2, #28
 80026c2:	d506      	bpl.n	80026d2 <HAL_RCC_ClockConfig+0x4e>
    MODIFY_REG(RCC->CFGR, RCC_CFGR_PPRE2, ((RCC_ClkInitStruct->APB2CLKDivider) << 3));
 80026c4:	686b      	ldr	r3, [r5, #4]
 80026c6:	6922      	ldr	r2, [r4, #16]
 80026c8:	f423 5360 	bic.w	r3, r3, #14336	; 0x3800
 80026cc:	ea43 03c2 	orr.w	r3, r3, r2, lsl #3
 80026d0:	606b      	str	r3, [r5, #4]
  SystemCoreClock = HAL_RCC_GetSysClockFreq() >> AHBPrescTable[(RCC->CFGR & RCC_CFGR_HPRE) >> RCC_CFGR_HPRE_Pos];
 80026d2:	f7ff ff9b 	bl	800260c <HAL_RCC_GetSysClockFreq>
 80026d6:	686b      	ldr	r3, [r5, #4]
 80026d8:	4a36      	ldr	r2, [pc, #216]	; (80027b4 <HAL_RCC_ClockConfig+0x130>)
 80026da:	f3c3 1303 	ubfx	r3, r3, #4, #4
 80026de:	5cd3      	ldrb	r3, [r2, r3]
 80026e0:	40d8      	lsrs	r0, r3
 80026e2:	4b35      	ldr	r3, [pc, #212]	; (80027b8 <HAL_RCC_ClockConfig+0x134>)
 80026e4:	6018      	str	r0, [r3, #0]
  HAL_InitTick(uwTickPrio);
 80026e6:	4b35      	ldr	r3, [pc, #212]	; (80027bc <HAL_RCC_ClockConfig+0x138>)
 80026e8:	6818      	ldr	r0, [r3, #0]
 80026ea:	f7fe f98f 	bl	8000a0c <HAL_InitTick>
  return HAL_OK;
 80026ee:	2000      	movs	r0, #0
 80026f0:	e8bd 81f0 	ldmia.w	sp!, {r4, r5, r6, r7, r8, pc}
    __HAL_FLASH_SET_LATENCY(FLatency);
 80026f4:	6813      	ldr	r3, [r2, #0]
 80026f6:	f023 0307 	bic.w	r3, r3, #7
 80026fa:	430b      	orrs	r3, r1
 80026fc:	6013      	str	r3, [r2, #0]
    if (__HAL_FLASH_GET_LATENCY() != FLatency)
 80026fe:	6813      	ldr	r3, [r2, #0]
 8002700:	f003 0307 	and.w	r3, r3, #7
 8002704:	4299      	cmp	r1, r3
 8002706:	d1c2      	bne.n	800268e <HAL_RCC_ClockConfig+0xa>
 8002708:	e7ca      	b.n	80026a0 <HAL_RCC_ClockConfig+0x1c>
 800270a:	4b29      	ldr	r3, [pc, #164]	; (80027b0 <HAL_RCC_ClockConfig+0x12c>)
    if (((RCC_ClkInitStruct->ClockType) & RCC_CLOCKTYPE_PCLK1) == RCC_CLOCKTYPE_PCLK1)
 800270c:	f011 0f04 	tst.w	r1, #4
      MODIFY_REG(RCC->CFGR, RCC_CFGR_PPRE1, RCC_HCLK_DIV16);
 8002710:	bf1e      	ittt	ne
 8002712:	685a      	ldrne	r2, [r3, #4]
 8002714:	f442 62e0 	orrne.w	r2, r2, #1792	; 0x700
 8002718:	605a      	strne	r2, [r3, #4]
    if (((RCC_ClkInitStruct->ClockType) & RCC_CLOCKTYPE_PCLK2) == RCC_CLOCKTYPE_PCLK2)
 800271a:	0708      	lsls	r0, r1, #28
      MODIFY_REG(RCC->CFGR, RCC_CFGR_PPRE2, (RCC_HCLK_DIV16 << 3));
 800271c:	bf42      	ittt	mi
 800271e:	685a      	ldrmi	r2, [r3, #4]
 8002720:	f442 5260 	orrmi.w	r2, r2, #14336	; 0x3800
 8002724:	605a      	strmi	r2, [r3, #4]
    MODIFY_REG(RCC->CFGR, RCC_CFGR_HPRE, RCC_ClkInitStruct->AHBCLKDivider);
 8002726:	685a      	ldr	r2, [r3, #4]
 8002728:	68a0      	ldr	r0, [r4, #8]
 800272a:	f022 02f0 	bic.w	r2, r2, #240	; 0xf0
 800272e:	4302      	orrs	r2, r0
 8002730:	605a      	str	r2, [r3, #4]
 8002732:	e7b8      	b.n	80026a6 <HAL_RCC_ClockConfig+0x22>
    if (RCC_ClkInitStruct->SYSCLKSource == RCC_SYSCLKSOURCE_HSE)
 8002734:	6862      	ldr	r2, [r4, #4]
 8002736:	4e1e      	ldr	r6, [pc, #120]	; (80027b0 <HAL_RCC_ClockConfig+0x12c>)
 8002738:	2a01      	cmp	r2, #1
      if (__HAL_RCC_GET_FLAG(RCC_FLAG_HSERDY) == RESET)
 800273a:	6833      	ldr	r3, [r6, #0]
    if (RCC_ClkInitStruct->SYSCLKSource == RCC_SYSCLKSOURCE_HSE)
 800273c:	d11b      	bne.n	8002776 <HAL_RCC_ClockConfig+0xf2>
      if (__HAL_RCC_GET_FLAG(RCC_FLAG_HSERDY) == RESET)
 800273e:	f413 3f00 	tst.w	r3, #131072	; 0x20000
      if (__HAL_RCC_GET_FLAG(RCC_FLAG_HSIRDY) == RESET)
 8002742:	d0a4      	beq.n	800268e <HAL_RCC_ClockConfig+0xa>
    __HAL_RCC_SYSCLK_CONFIG(RCC_ClkInitStruct->SYSCLKSource);
 8002744:	6873      	ldr	r3, [r6, #4]
      if ((HAL_GetTick() - tickstart) > CLOCKSWITCH_TIMEOUT_VALUE)
 8002746:	f241 3888 	movw	r8, #5000	; 0x1388
    __HAL_RCC_SYSCLK_CONFIG(RCC_ClkInitStruct->SYSCLKSource);
 800274a:	f023 0303 	bic.w	r3, r3, #3
 800274e:	4313      	orrs	r3, r2
 8002750:	6073      	str	r3, [r6, #4]
    tickstart = HAL_GetTick();
 8002752:	f7fe f99d 	bl	8000a90 <HAL_GetTick>
 8002756:	4607      	mov	r7, r0
    while (__HAL_RCC_GET_SYSCLK_SOURCE() != (RCC_ClkInitStruct->SYSCLKSource << RCC_CFGR_SWS_Pos))
 8002758:	6873      	ldr	r3, [r6, #4]
 800275a:	6862      	ldr	r2, [r4, #4]
 800275c:	f003 030c 	and.w	r3, r3, #12
 8002760:	ebb3 0f82 	cmp.w	r3, r2, lsl #2
 8002764:	d0a1      	beq.n	80026aa <HAL_RCC_ClockConfig+0x26>
      if ((HAL_GetTick() - tickstart) > CLOCKSWITCH_TIMEOUT_VALUE)
 8002766:	f7fe f993 	bl	8000a90 <HAL_GetTick>
 800276a:	1bc0      	subs	r0, r0, r7
 800276c:	4540      	cmp	r0, r8
 800276e:	d9f3      	bls.n	8002758 <HAL_RCC_ClockConfig+0xd4>
        return HAL_TIMEOUT;
 8002770:	2003      	movs	r0, #3
}
 8002772:	e8bd 81f0 	ldmia.w	sp!, {r4, r5, r6, r7, r8, pc}
    else if (RCC_ClkInitStruct->SYSCLKSource == RCC_SYSCLKSOURCE_PLLCLK)
 8002776:	2a02      	cmp	r2, #2
 8002778:	d102      	bne.n	8002780 <HAL_RCC_ClockConfig+0xfc>
      if (__HAL_RCC_GET_FLAG(RCC_FLAG_PLLRDY) == RESET)
 800277a:	f013 7f00 	tst.w	r3, #33554432	; 0x2000000
 800277e:	e7e0      	b.n	8002742 <HAL_RCC_ClockConfig+0xbe>
      if (__HAL_RCC_GET_FLAG(RCC_FLAG_HSIRDY) == RESET)
 8002780:	f013 0f02 	tst.w	r3, #2
 8002784:	e7dd      	b.n	8002742 <HAL_RCC_ClockConfig+0xbe>
    __HAL_FLASH_SET_LATENCY(FLatency);
 8002786:	6813      	ldr	r3, [r2, #0]
 8002788:	f023 0307 	bic.w	r3, r3, #7
 800278c:	432b      	orrs	r3, r5
 800278e:	6013      	str	r3, [r2, #0]
    if (__HAL_FLASH_GET_LATENCY() != FLatency)
 8002790:	6813      	ldr	r3, [r2, #0]
 8002792:	f003 0307 	and.w	r3, r3, #7
 8002796:	429d      	cmp	r5, r3
 8002798:	f47f af79 	bne.w	800268e <HAL_RCC_ClockConfig+0xa>
 800279c:	e78b      	b.n	80026b6 <HAL_RCC_ClockConfig+0x32>
    MODIFY_REG(RCC->CFGR, RCC_CFGR_PPRE1, RCC_ClkInitStruct->APB1CLKDivider);
 800279e:	686b      	ldr	r3, [r5, #4]
 80027a0:	68e1      	ldr	r1, [r4, #12]
 80027a2:	f423 63e0 	bic.w	r3, r3, #1792	; 0x700
 80027a6:	430b      	orrs	r3, r1
 80027a8:	606b      	str	r3, [r5, #4]
 80027aa:	e789      	b.n	80026c0 <HAL_RCC_ClockConfig+0x3c>
 80027ac:	40022000 	.word	0x40022000
 80027b0:	40021000 	.word	0x40021000
 80027b4:	08007c2f 	.word	0x08007c2f
 80027b8:	20000020 	.word	0x20000020
 80027bc:	20000004 	.word	0x20000004

080027c0 <HAL_RCC_GetPCLK1Freq>:
  return (HAL_RCC_GetHCLKFreq() >> APBPrescTable[(RCC->CFGR & RCC_CFGR_PPRE1) >> RCC_CFGR_PPRE1_Pos]);
 80027c0:	4b04      	ldr	r3, [pc, #16]	; (80027d4 <HAL_RCC_GetPCLK1Freq+0x14>)
 80027c2:	4a05      	ldr	r2, [pc, #20]	; (80027d8 <HAL_RCC_GetPCLK1Freq+0x18>)
 80027c4:	685b      	ldr	r3, [r3, #4]
 80027c6:	f3c3 2302 	ubfx	r3, r3, #8, #3
 80027ca:	5cd3      	ldrb	r3, [r2, r3]
 80027cc:	4a03      	ldr	r2, [pc, #12]	; (80027dc <HAL_RCC_GetPCLK1Freq+0x1c>)
 80027ce:	6810      	ldr	r0, [r2, #0]
}
 80027d0:	40d8      	lsrs	r0, r3
 80027d2:	4770      	bx	lr
 80027d4:	40021000 	.word	0x40021000
 80027d8:	08007c3f 	.word	0x08007c3f
 80027dc:	20000020 	.word	0x20000020

080027e0 <HAL_RCC_GetPCLK2Freq>:
  return (HAL_RCC_GetHCLKFreq() >> APBPrescTable[(RCC->CFGR & RCC_CFGR_PPRE2) >> RCC_CFGR_PPRE2_Pos]);
 80027e0:	4b04      	ldr	r3, [pc, #16]	; (80027f4 <HAL_RCC_GetPCLK2Freq+0x14>)
 80027e2:	4a05      	ldr	r2, [pc, #20]	; (80027f8 <HAL_RCC_GetPCLK2Freq+0x18>)
 80027e4:	685b      	ldr	r3, [r3, #4]
 80027e6:	f3c3 23c2 	ubfx	r3, r3, #11, #3
 80027ea:	5cd3      	ldrb	r3, [r2, r3]
 80027ec:	4a03      	ldr	r2, [pc, #12]	; (80027fc <HAL_RCC_GetPCLK2Freq+0x1c>)
 80027ee:	6810      	ldr	r0, [r2, #0]
}
 80027f0:	40d8      	lsrs	r0, r3
 80027f2:	4770      	bx	lr
 80027f4:	40021000 	.word	0x40021000
 80027f8:	08007c3f 	.word	0x08007c3f
 80027fc:	20000020 	.word	0x20000020

08002800 <HAL_RCCEx_PeriphCLKConfig>:

  /* Check the parameters */
  assert_param(IS_RCC_PERIPHCLOCK(PeriphClkInit->PeriphClockSelection));

  /*------------------------------- RTC/LCD Configuration ------------------------*/
  if ((((PeriphClkInit->PeriphClockSelection) & RCC_PERIPHCLK_RTC) == RCC_PERIPHCLK_RTC))
 8002800:	6803      	ldr	r3, [r0, #0]
{
 8002802:	e92d 41f3 	stmdb	sp!, {r0, r1, r4, r5, r6, r7, r8, lr}
  if ((((PeriphClkInit->PeriphClockSelection) & RCC_PERIPHCLK_RTC) == RCC_PERIPHCLK_RTC))
 8002806:	07d9      	lsls	r1, r3, #31
{
 8002808:	4605      	mov	r5, r0
  if ((((PeriphClkInit->PeriphClockSelection) & RCC_PERIPHCLK_RTC) == RCC_PERIPHCLK_RTC))
 800280a:	d520      	bpl.n	800284e <HAL_RCCEx_PeriphCLKConfig+0x4e>
    FlagStatus       pwrclkchanged = RESET;

    /* As soon as function is called to change RTC clock source, activation of the
       power domain is done. */
    /* Requires to enable write access to Backup Domain of necessary */
    if (__HAL_RCC_PWR_IS_CLK_DISABLED())
 800280c:	4c35      	ldr	r4, [pc, #212]	; (80028e4 <HAL_RCCEx_PeriphCLKConfig+0xe4>)
 800280e:	69e3      	ldr	r3, [r4, #28]
 8002810:	00da      	lsls	r2, r3, #3
 8002812:	d432      	bmi.n	800287a <HAL_RCCEx_PeriphCLKConfig+0x7a>
    {
      __HAL_RCC_PWR_CLK_ENABLE();
      pwrclkchanged = SET;
 8002814:	2701      	movs	r7, #1
      __HAL_RCC_PWR_CLK_ENABLE();
 8002816:	69e3      	ldr	r3, [r4, #28]
 8002818:	f043 5380 	orr.w	r3, r3, #268435456	; 0x10000000
 800281c:	61e3      	str	r3, [r4, #28]
 800281e:	69e3      	ldr	r3, [r4, #28]
 8002820:	f003 5380 	and.w	r3, r3, #268435456	; 0x10000000
 8002824:	9301      	str	r3, [sp, #4]
 8002826:	9b01      	ldr	r3, [sp, #4]
    }

    if (HAL_IS_BIT_CLR(PWR->CR, PWR_CR_DBP))
 8002828:	4e2f      	ldr	r6, [pc, #188]	; (80028e8 <HAL_RCCEx_PeriphCLKConfig+0xe8>)
 800282a:	6833      	ldr	r3, [r6, #0]
 800282c:	05db      	lsls	r3, r3, #23
 800282e:	d526      	bpl.n	800287e <HAL_RCCEx_PeriphCLKConfig+0x7e>
        }
      }
    }

    /* Reset the Backup domain only if the RTC Clock source selection is modified from reset value */
    temp_reg = (RCC->BDCR & RCC_BDCR_RTCSEL);
 8002830:	6a23      	ldr	r3, [r4, #32]
    if ((temp_reg != 0x00000000U) && (temp_reg != (PeriphClkInit->RTCClockSelection & RCC_BDCR_RTCSEL)))
 8002832:	f413 7340 	ands.w	r3, r3, #768	; 0x300
 8002836:	d136      	bne.n	80028a6 <HAL_RCCEx_PeriphCLKConfig+0xa6>
            return HAL_TIMEOUT;
          }
        }
      }
    }
    __HAL_RCC_RTC_CONFIG(PeriphClkInit->RTCClockSelection);
 8002838:	6a23      	ldr	r3, [r4, #32]
 800283a:	686a      	ldr	r2, [r5, #4]
 800283c:	f423 7340 	bic.w	r3, r3, #768	; 0x300
 8002840:	4313      	orrs	r3, r2
 8002842:	6223      	str	r3, [r4, #32]

    /* Require to disable power clock if necessary */
    if (pwrclkchanged == SET)
 8002844:	b11f      	cbz	r7, 800284e <HAL_RCCEx_PeriphCLKConfig+0x4e>
    {
      __HAL_RCC_PWR_CLK_DISABLE();
 8002846:	69e3      	ldr	r3, [r4, #28]
 8002848:	f023 5380 	bic.w	r3, r3, #268435456	; 0x10000000
 800284c:	61e3      	str	r3, [r4, #28]
    }
  }

  /*------------------------------ ADC clock Configuration ------------------*/
  if (((PeriphClkInit->PeriphClockSelection) & RCC_PERIPHCLK_ADC) == RCC_PERIPHCLK_ADC)
 800284e:	6828      	ldr	r0, [r5, #0]
 8002850:	0783      	lsls	r3, r0, #30
 8002852:	d506      	bpl.n	8002862 <HAL_RCCEx_PeriphCLKConfig+0x62>
  {
    /* Check the parameters */
    assert_param(IS_RCC_ADCPLLCLK_DIV(PeriphClkInit->AdcClockSelection));

    /* Configure the ADC clock source */
    __HAL_RCC_ADC_CONFIG(PeriphClkInit->AdcClockSelection);
 8002854:	4a23      	ldr	r2, [pc, #140]	; (80028e4 <HAL_RCCEx_PeriphCLKConfig+0xe4>)
 8002856:	68a9      	ldr	r1, [r5, #8]
 8002858:	6853      	ldr	r3, [r2, #4]
 800285a:	f423 4340 	bic.w	r3, r3, #49152	; 0xc000
 800285e:	430b      	orrs	r3, r1
 8002860:	6053      	str	r3, [r2, #4]

#if defined(STM32F102x6) || defined(STM32F102xB) || defined(STM32F103x6)\
 || defined(STM32F103xB) || defined(STM32F103xE) || defined(STM32F103xG)\
 || defined(STM32F105xC) || defined(STM32F107xC)
  /*------------------------------ USB clock Configuration ------------------*/
  if (((PeriphClkInit->PeriphClockSelection) & RCC_PERIPHCLK_USB) == RCC_PERIPHCLK_USB)
 8002862:	f010 0010 	ands.w	r0, r0, #16
 8002866:	d01b      	beq.n	80028a0 <HAL_RCCEx_PeriphCLKConfig+0xa0>
  {
    /* Check the parameters */
    assert_param(IS_RCC_USBPLLCLK_DIV(PeriphClkInit->UsbClockSelection));

    /* Configure the USB clock source */
    __HAL_RCC_USB_CONFIG(PeriphClkInit->UsbClockSelection);
 8002868:	4a1e      	ldr	r2, [pc, #120]	; (80028e4 <HAL_RCCEx_PeriphCLKConfig+0xe4>)
 800286a:	6969      	ldr	r1, [r5, #20]
 800286c:	6853      	ldr	r3, [r2, #4]
  }
#endif /* STM32F102x6 || STM32F102xB || STM32F103x6 || STM32F103xB || STM32F103xE || STM32F103xG || STM32F105xC || STM32F107xC */

  return HAL_OK;
 800286e:	2000      	movs	r0, #0
    __HAL_RCC_USB_CONFIG(PeriphClkInit->UsbClockSelection);
 8002870:	f423 0380 	bic.w	r3, r3, #4194304	; 0x400000
 8002874:	430b      	orrs	r3, r1
 8002876:	6053      	str	r3, [r2, #4]
 8002878:	e012      	b.n	80028a0 <HAL_RCCEx_PeriphCLKConfig+0xa0>
    FlagStatus       pwrclkchanged = RESET;
 800287a:	2700      	movs	r7, #0
 800287c:	e7d4      	b.n	8002828 <HAL_RCCEx_PeriphCLKConfig+0x28>
      SET_BIT(PWR->CR, PWR_CR_DBP);
 800287e:	6833      	ldr	r3, [r6, #0]
 8002880:	f443 7380 	orr.w	r3, r3, #256	; 0x100
 8002884:	6033      	str	r3, [r6, #0]
      tickstart = HAL_GetTick();
 8002886:	f7fe f903 	bl	8000a90 <HAL_GetTick>
 800288a:	4680      	mov	r8, r0
      while (HAL_IS_BIT_CLR(PWR->CR, PWR_CR_DBP))
 800288c:	6833      	ldr	r3, [r6, #0]
 800288e:	05d8      	lsls	r0, r3, #23
 8002890:	d4ce      	bmi.n	8002830 <HAL_RCCEx_PeriphCLKConfig+0x30>
        if ((HAL_GetTick() - tickstart) > RCC_DBP_TIMEOUT_VALUE)
 8002892:	f7fe f8fd 	bl	8000a90 <HAL_GetTick>
 8002896:	eba0 0008 	sub.w	r0, r0, r8
 800289a:	2864      	cmp	r0, #100	; 0x64
 800289c:	d9f6      	bls.n	800288c <HAL_RCCEx_PeriphCLKConfig+0x8c>
          return HAL_TIMEOUT;
 800289e:	2003      	movs	r0, #3
}
 80028a0:	b002      	add	sp, #8
 80028a2:	e8bd 81f0 	ldmia.w	sp!, {r4, r5, r6, r7, r8, pc}
    if ((temp_reg != 0x00000000U) && (temp_reg != (PeriphClkInit->RTCClockSelection & RCC_BDCR_RTCSEL)))
 80028a6:	686a      	ldr	r2, [r5, #4]
 80028a8:	f402 7240 	and.w	r2, r2, #768	; 0x300
 80028ac:	4293      	cmp	r3, r2
 80028ae:	d0c3      	beq.n	8002838 <HAL_RCCEx_PeriphCLKConfig+0x38>
      __HAL_RCC_BACKUPRESET_FORCE();
 80028b0:	2001      	movs	r0, #1
 80028b2:	4a0e      	ldr	r2, [pc, #56]	; (80028ec <HAL_RCCEx_PeriphCLKConfig+0xec>)
      temp_reg = (RCC->BDCR & ~(RCC_BDCR_RTCSEL));
 80028b4:	6a23      	ldr	r3, [r4, #32]
      __HAL_RCC_BACKUPRESET_FORCE();
 80028b6:	6010      	str	r0, [r2, #0]
      __HAL_RCC_BACKUPRESET_RELEASE();
 80028b8:	2000      	movs	r0, #0
      temp_reg = (RCC->BDCR & ~(RCC_BDCR_RTCSEL));
 80028ba:	f423 7140 	bic.w	r1, r3, #768	; 0x300
      __HAL_RCC_BACKUPRESET_RELEASE();
 80028be:	6010      	str	r0, [r2, #0]
      RCC->BDCR = temp_reg;
 80028c0:	6221      	str	r1, [r4, #32]
      if (HAL_IS_BIT_SET(temp_reg, RCC_BDCR_LSEON))
 80028c2:	07d9      	lsls	r1, r3, #31
 80028c4:	d5b8      	bpl.n	8002838 <HAL_RCCEx_PeriphCLKConfig+0x38>
        tickstart = HAL_GetTick();
 80028c6:	f7fe f8e3 	bl	8000a90 <HAL_GetTick>
          if ((HAL_GetTick() - tickstart) > RCC_LSE_TIMEOUT_VALUE)
 80028ca:	f241 3888 	movw	r8, #5000	; 0x1388
        tickstart = HAL_GetTick();
 80028ce:	4606      	mov	r6, r0
        while (__HAL_RCC_GET_FLAG(RCC_FLAG_LSERDY) == RESET)
 80028d0:	6a23      	ldr	r3, [r4, #32]
 80028d2:	079a      	lsls	r2, r3, #30
 80028d4:	d4b0      	bmi.n	8002838 <HAL_RCCEx_PeriphCLKConfig+0x38>
          if ((HAL_GetTick() - tickstart) > RCC_LSE_TIMEOUT_VALUE)
 80028d6:	f7fe f8db 	bl	8000a90 <HAL_GetTick>
 80028da:	1b80      	subs	r0, r0, r6
 80028dc:	4540      	cmp	r0, r8
 80028de:	d9f7      	bls.n	80028d0 <HAL_RCCEx_PeriphCLKConfig+0xd0>
 80028e0:	e7dd      	b.n	800289e <HAL_RCCEx_PeriphCLKConfig+0x9e>
 80028e2:	bf00      	nop
 80028e4:	40021000 	.word	0x40021000
 80028e8:	40007000 	.word	0x40007000
 80028ec:	42420440 	.word	0x42420440

080028f0 <SPI_WaitFlagStateUntilTimeout.constprop.8>:
  * @param  State flag state to check
  * @param  Timeout Timeout duration
  * @param  Tickstart tick start value
  * @retval HAL status
  */
static HAL_StatusTypeDef SPI_WaitFlagStateUntilTimeout(SPI_HandleTypeDef *hspi, uint32_t Flag, FlagStatus State,
 80028f0:	b5f8      	push	{r3, r4, r5, r6, r7, lr}
 80028f2:	4604      	mov	r4, r0
 80028f4:	460e      	mov	r6, r1
 80028f6:	4615      	mov	r5, r2
 80028f8:	461f      	mov	r7, r3
                                                       uint32_t Timeout, uint32_t Tickstart)
{
  while ((__HAL_SPI_GET_FLAG(hspi, Flag) ? SET : RESET) != State)
 80028fa:	6821      	ldr	r1, [r4, #0]
 80028fc:	688a      	ldr	r2, [r1, #8]
 80028fe:	ea36 0302 	bics.w	r3, r6, r2
 8002902:	d001      	beq.n	8002908 <SPI_WaitFlagStateUntilTimeout.constprop.8+0x18>
        return HAL_TIMEOUT;
      }
    }
  }

  return HAL_OK;
 8002904:	2000      	movs	r0, #0
}
 8002906:	bdf8      	pop	{r3, r4, r5, r6, r7, pc}
    if (Timeout != HAL_MAX_DELAY)
 8002908:	1c6b      	adds	r3, r5, #1
 800290a:	d0f7      	beq.n	80028fc <SPI_WaitFlagStateUntilTimeout.constprop.8+0xc>
      if (((HAL_GetTick() - Tickstart) >= Timeout) || (Timeout == 0U))
 800290c:	f7fe f8c0 	bl	8000a90 <HAL_GetTick>
 8002910:	1bc0      	subs	r0, r0, r7
 8002912:	4285      	cmp	r5, r0
 8002914:	d8f1      	bhi.n	80028fa <SPI_WaitFlagStateUntilTimeout.constprop.8+0xa>
        __HAL_SPI_DISABLE_IT(hspi, (SPI_IT_TXE | SPI_IT_RXNE | SPI_IT_ERR));
 8002916:	6823      	ldr	r3, [r4, #0]
 8002918:	685a      	ldr	r2, [r3, #4]
 800291a:	f022 02e0 	bic.w	r2, r2, #224	; 0xe0
 800291e:	605a      	str	r2, [r3, #4]
        if ((hspi->Init.Mode == SPI_MODE_MASTER) && ((hspi->Init.Direction == SPI_DIRECTION_1LINE)
 8002920:	6862      	ldr	r2, [r4, #4]
 8002922:	f5b2 7f82 	cmp.w	r2, #260	; 0x104
 8002926:	d10a      	bne.n	800293e <SPI_WaitFlagStateUntilTimeout.constprop.8+0x4e>
 8002928:	68a2      	ldr	r2, [r4, #8]
 800292a:	f5b2 4f00 	cmp.w	r2, #32768	; 0x8000
 800292e:	d002      	beq.n	8002936 <SPI_WaitFlagStateUntilTimeout.constprop.8+0x46>
                                                     || (hspi->Init.Direction == SPI_DIRECTION_2LINES_RXONLY)))
 8002930:	f5b2 6f80 	cmp.w	r2, #1024	; 0x400
 8002934:	d103      	bne.n	800293e <SPI_WaitFlagStateUntilTimeout.constprop.8+0x4e>
          __HAL_SPI_DISABLE(hspi);
 8002936:	681a      	ldr	r2, [r3, #0]
 8002938:	f022 0240 	bic.w	r2, r2, #64	; 0x40
 800293c:	601a      	str	r2, [r3, #0]
        if (hspi->Init.CRCCalculation == SPI_CRCCALCULATION_ENABLE)
 800293e:	6aa2      	ldr	r2, [r4, #40]	; 0x28
 8002940:	f5b2 5f00 	cmp.w	r2, #8192	; 0x2000
 8002944:	d107      	bne.n	8002956 <SPI_WaitFlagStateUntilTimeout.constprop.8+0x66>
          SPI_RESET_CRC(hspi);
 8002946:	681a      	ldr	r2, [r3, #0]
 8002948:	f422 5200 	bic.w	r2, r2, #8192	; 0x2000
 800294c:	601a      	str	r2, [r3, #0]
 800294e:	681a      	ldr	r2, [r3, #0]
 8002950:	f442 5200 	orr.w	r2, r2, #8192	; 0x2000
 8002954:	601a      	str	r2, [r3, #0]
        hspi->State = HAL_SPI_STATE_READY;
 8002956:	2301      	movs	r3, #1
 8002958:	f884 3051 	strb.w	r3, [r4, #81]	; 0x51
        __HAL_UNLOCK(hspi);
 800295c:	2300      	movs	r3, #0
 800295e:	2003      	movs	r0, #3
 8002960:	f884 3050 	strb.w	r3, [r4, #80]	; 0x50
 8002964:	bdf8      	pop	{r3, r4, r5, r6, r7, pc}

08002966 <SPI_EndRxTransaction>:
  * @param  Timeout Timeout duration
  * @param  Tickstart tick start value
  * @retval HAL status
  */
static HAL_StatusTypeDef SPI_EndRxTransaction(SPI_HandleTypeDef *hspi,  uint32_t Timeout, uint32_t Tickstart)
{
 8002966:	b538      	push	{r3, r4, r5, lr}
 8002968:	4613      	mov	r3, r2
  if ((hspi->Init.Mode == SPI_MODE_MASTER) && ((hspi->Init.Direction == SPI_DIRECTION_1LINE)
 800296a:	6842      	ldr	r2, [r0, #4]
{
 800296c:	4604      	mov	r4, r0
  if ((hspi->Init.Mode == SPI_MODE_MASTER) && ((hspi->Init.Direction == SPI_DIRECTION_1LINE)
 800296e:	f5b2 7f82 	cmp.w	r2, #260	; 0x104
 8002972:	d116      	bne.n	80029a2 <SPI_EndRxTransaction+0x3c>
 8002974:	6880      	ldr	r0, [r0, #8]
 8002976:	f5b0 4f00 	cmp.w	r0, #32768	; 0x8000
 800297a:	d002      	beq.n	8002982 <SPI_EndRxTransaction+0x1c>
                                               || (hspi->Init.Direction == SPI_DIRECTION_2LINES_RXONLY)))
 800297c:	f5b0 6f80 	cmp.w	r0, #1024	; 0x400
 8002980:	d10f      	bne.n	80029a2 <SPI_EndRxTransaction+0x3c>
  {
    /* Disable SPI peripheral */
    __HAL_SPI_DISABLE(hspi);
 8002982:	6822      	ldr	r2, [r4, #0]
  }

  if ((hspi->Init.Mode == SPI_MODE_MASTER) && (hspi->Init.Direction == SPI_DIRECTION_2LINES_RXONLY))
 8002984:	f5b0 6f80 	cmp.w	r0, #1024	; 0x400
    __HAL_SPI_DISABLE(hspi);
 8002988:	6815      	ldr	r5, [r2, #0]
 800298a:	f025 0540 	bic.w	r5, r5, #64	; 0x40
 800298e:	6015      	str	r5, [r2, #0]
  if ((hspi->Init.Mode == SPI_MODE_MASTER) && (hspi->Init.Direction == SPI_DIRECTION_2LINES_RXONLY))
 8002990:	d107      	bne.n	80029a2 <SPI_EndRxTransaction+0x3c>
  {
    /* Wait the RXNE reset */
    if (SPI_WaitFlagStateUntilTimeout(hspi, SPI_FLAG_RXNE, RESET, Timeout, Tickstart) != HAL_OK)
 8002992:	460a      	mov	r2, r1
 8002994:	2101      	movs	r1, #1
 8002996:	4620      	mov	r0, r4
 8002998:	f7ff ffaa 	bl	80028f0 <SPI_WaitFlagStateUntilTimeout.constprop.8>
 800299c:	b920      	cbnz	r0, 80029a8 <SPI_EndRxTransaction+0x42>
    {
      SET_BIT(hspi->ErrorCode, HAL_SPI_ERROR_FLAG);
      return HAL_TIMEOUT;
    }
  }
  return HAL_OK;
 800299e:	2000      	movs	r0, #0
 80029a0:	bd38      	pop	{r3, r4, r5, pc}
    if (SPI_WaitFlagStateUntilTimeout(hspi, SPI_FLAG_BSY, RESET, Timeout, Tickstart) != HAL_OK)
 80029a2:	460a      	mov	r2, r1
 80029a4:	2180      	movs	r1, #128	; 0x80
 80029a6:	e7f6      	b.n	8002996 <SPI_EndRxTransaction+0x30>
      SET_BIT(hspi->ErrorCode, HAL_SPI_ERROR_FLAG);
 80029a8:	6d63      	ldr	r3, [r4, #84]	; 0x54
      return HAL_TIMEOUT;
 80029aa:	2003      	movs	r0, #3
      SET_BIT(hspi->ErrorCode, HAL_SPI_ERROR_FLAG);
 80029ac:	f043 0320 	orr.w	r3, r3, #32
 80029b0:	6563      	str	r3, [r4, #84]	; 0x54
}
 80029b2:	bd38      	pop	{r3, r4, r5, pc}

080029b4 <SPI_EndRxTxTransaction>:
  * @param  Timeout Timeout duration
  * @param  Tickstart tick start value
  * @retval HAL status
  */
static HAL_StatusTypeDef SPI_EndRxTxTransaction(SPI_HandleTypeDef *hspi, uint32_t Timeout, uint32_t Tickstart)
{
 80029b4:	b510      	push	{r4, lr}
  /* Control the BSY flag */
  if (SPI_WaitFlagStateUntilTimeout(hspi, SPI_FLAG_BSY, RESET, Timeout, Tickstart) != HAL_OK)
 80029b6:	4613      	mov	r3, r2
 80029b8:	460a      	mov	r2, r1
 80029ba:	2180      	movs	r1, #128	; 0x80
{
 80029bc:	4604      	mov	r4, r0
  if (SPI_WaitFlagStateUntilTimeout(hspi, SPI_FLAG_BSY, RESET, Timeout, Tickstart) != HAL_OK)
 80029be:	f7ff ff97 	bl	80028f0 <SPI_WaitFlagStateUntilTimeout.constprop.8>
 80029c2:	b120      	cbz	r0, 80029ce <SPI_EndRxTxTransaction+0x1a>
  {
    SET_BIT(hspi->ErrorCode, HAL_SPI_ERROR_FLAG);
    return HAL_TIMEOUT;
 80029c4:	2003      	movs	r0, #3
    SET_BIT(hspi->ErrorCode, HAL_SPI_ERROR_FLAG);
 80029c6:	6d63      	ldr	r3, [r4, #84]	; 0x54
 80029c8:	f043 0320 	orr.w	r3, r3, #32
 80029cc:	6563      	str	r3, [r4, #84]	; 0x54
  }
  return HAL_OK;
}
 80029ce:	bd10      	pop	{r4, pc}

080029d0 <HAL_SPI_Init>:
{
 80029d0:	b510      	push	{r4, lr}
  if (hspi == NULL)
 80029d2:	4604      	mov	r4, r0
 80029d4:	2800      	cmp	r0, #0
 80029d6:	d034      	beq.n	8002a42 <HAL_SPI_Init+0x72>
  hspi->Init.CRCCalculation = SPI_CRCCALCULATION_DISABLE;
 80029d8:	2300      	movs	r3, #0
 80029da:	6283      	str	r3, [r0, #40]	; 0x28
  if (hspi->State == HAL_SPI_STATE_RESET)
 80029dc:	f890 3051 	ldrb.w	r3, [r0, #81]	; 0x51
 80029e0:	f003 02ff 	and.w	r2, r3, #255	; 0xff
 80029e4:	b91b      	cbnz	r3, 80029ee <HAL_SPI_Init+0x1e>
    hspi->Lock = HAL_UNLOCKED;
 80029e6:	f880 2050 	strb.w	r2, [r0, #80]	; 0x50
    HAL_SPI_MspInit(hspi);
 80029ea:	f002 fd8d 	bl	8005508 <HAL_SPI_MspInit>
  hspi->State = HAL_SPI_STATE_BUSY;
 80029ee:	2302      	movs	r3, #2
  __HAL_SPI_DISABLE(hspi);
 80029f0:	6822      	ldr	r2, [r4, #0]
  hspi->State = HAL_SPI_STATE_BUSY;
 80029f2:	f884 3051 	strb.w	r3, [r4, #81]	; 0x51
  __HAL_SPI_DISABLE(hspi);
 80029f6:	6813      	ldr	r3, [r2, #0]
  WRITE_REG(hspi->Instance->CR1, (hspi->Init.Mode | hspi->Init.Direction | hspi->Init.DataSize |
 80029f8:	68a0      	ldr	r0, [r4, #8]
  __HAL_SPI_DISABLE(hspi);
 80029fa:	f023 0340 	bic.w	r3, r3, #64	; 0x40
 80029fe:	6013      	str	r3, [r2, #0]
  WRITE_REG(hspi->Instance->CR1, (hspi->Init.Mode | hspi->Init.Direction | hspi->Init.DataSize |
 8002a00:	6863      	ldr	r3, [r4, #4]
 8002a02:	69a1      	ldr	r1, [r4, #24]
 8002a04:	4303      	orrs	r3, r0
 8002a06:	68e0      	ldr	r0, [r4, #12]
 8002a08:	4303      	orrs	r3, r0
 8002a0a:	6920      	ldr	r0, [r4, #16]
 8002a0c:	4303      	orrs	r3, r0
 8002a0e:	6960      	ldr	r0, [r4, #20]
 8002a10:	4303      	orrs	r3, r0
 8002a12:	69e0      	ldr	r0, [r4, #28]
 8002a14:	4303      	orrs	r3, r0
 8002a16:	6a20      	ldr	r0, [r4, #32]
 8002a18:	4303      	orrs	r3, r0
 8002a1a:	6aa0      	ldr	r0, [r4, #40]	; 0x28
 8002a1c:	4303      	orrs	r3, r0
 8002a1e:	f401 7000 	and.w	r0, r1, #512	; 0x200
  WRITE_REG(hspi->Instance->CR2, ((hspi->Init.NSS >> 16U) & SPI_CR2_SSOE));
 8002a22:	0c09      	lsrs	r1, r1, #16
  WRITE_REG(hspi->Instance->CR1, (hspi->Init.Mode | hspi->Init.Direction | hspi->Init.DataSize |
 8002a24:	4303      	orrs	r3, r0
  WRITE_REG(hspi->Instance->CR2, ((hspi->Init.NSS >> 16U) & SPI_CR2_SSOE));
 8002a26:	f001 0104 	and.w	r1, r1, #4
  WRITE_REG(hspi->Instance->CR1, (hspi->Init.Mode | hspi->Init.Direction | hspi->Init.DataSize |
 8002a2a:	6013      	str	r3, [r2, #0]
  WRITE_REG(hspi->Instance->CR2, ((hspi->Init.NSS >> 16U) & SPI_CR2_SSOE));
 8002a2c:	6051      	str	r1, [r2, #4]
  CLEAR_BIT(hspi->Instance->I2SCFGR, SPI_I2SCFGR_I2SMOD);
 8002a2e:	69d3      	ldr	r3, [r2, #28]
  hspi->ErrorCode = HAL_SPI_ERROR_NONE;
 8002a30:	2000      	movs	r0, #0
  CLEAR_BIT(hspi->Instance->I2SCFGR, SPI_I2SCFGR_I2SMOD);
 8002a32:	f423 6300 	bic.w	r3, r3, #2048	; 0x800
 8002a36:	61d3      	str	r3, [r2, #28]
  hspi->State     = HAL_SPI_STATE_READY;
 8002a38:	2301      	movs	r3, #1
  hspi->ErrorCode = HAL_SPI_ERROR_NONE;
 8002a3a:	6560      	str	r0, [r4, #84]	; 0x54
  hspi->State     = HAL_SPI_STATE_READY;
 8002a3c:	f884 3051 	strb.w	r3, [r4, #81]	; 0x51
  return HAL_OK;
 8002a40:	bd10      	pop	{r4, pc}
    return HAL_ERROR;
 8002a42:	2001      	movs	r0, #1
}
 8002a44:	bd10      	pop	{r4, pc}

08002a46 <HAL_SPI_Transmit>:
{
 8002a46:	e92d 41f3 	stmdb	sp!, {r0, r1, r4, r5, r6, r7, r8, lr}
 8002a4a:	461e      	mov	r6, r3
  __HAL_LOCK(hspi);
 8002a4c:	f890 3050 	ldrb.w	r3, [r0, #80]	; 0x50
{
 8002a50:	4604      	mov	r4, r0
  __HAL_LOCK(hspi);
 8002a52:	2b01      	cmp	r3, #1
{
 8002a54:	460d      	mov	r5, r1
 8002a56:	4690      	mov	r8, r2
  __HAL_LOCK(hspi);
 8002a58:	f000 809c 	beq.w	8002b94 <HAL_SPI_Transmit+0x14e>
 8002a5c:	2301      	movs	r3, #1
 8002a5e:	f880 3050 	strb.w	r3, [r0, #80]	; 0x50
  tickstart = HAL_GetTick();
 8002a62:	f7fe f815 	bl	8000a90 <HAL_GetTick>
 8002a66:	4607      	mov	r7, r0
  if (hspi->State != HAL_SPI_STATE_READY)
 8002a68:	f894 0051 	ldrb.w	r0, [r4, #81]	; 0x51
 8002a6c:	b2c0      	uxtb	r0, r0
 8002a6e:	2801      	cmp	r0, #1
 8002a70:	f040 808e 	bne.w	8002b90 <HAL_SPI_Transmit+0x14a>
  if ((pData == NULL) || (Size == 0U))
 8002a74:	2d00      	cmp	r5, #0
 8002a76:	d05e      	beq.n	8002b36 <HAL_SPI_Transmit+0xf0>
 8002a78:	f1b8 0f00 	cmp.w	r8, #0
 8002a7c:	d05b      	beq.n	8002b36 <HAL_SPI_Transmit+0xf0>
  hspi->State       = HAL_SPI_STATE_BUSY_TX;
 8002a7e:	2303      	movs	r3, #3
  hspi->ErrorCode   = HAL_SPI_ERROR_NONE;
 8002a80:	2000      	movs	r0, #0
  hspi->State       = HAL_SPI_STATE_BUSY_TX;
 8002a82:	f884 3051 	strb.w	r3, [r4, #81]	; 0x51
  if (hspi->Init.Direction == SPI_DIRECTION_1LINE)
 8002a86:	68a3      	ldr	r3, [r4, #8]
  hspi->ErrorCode   = HAL_SPI_ERROR_NONE;
 8002a88:	6560      	str	r0, [r4, #84]	; 0x54
  hspi->pRxBuffPtr  = (uint8_t *)NULL;
 8002a8a:	63a0      	str	r0, [r4, #56]	; 0x38
  hspi->TxXferCount = Size;
 8002a8c:	f8a4 8036 	strh.w	r8, [r4, #54]	; 0x36
  hspi->RxXferSize  = 0U;
 8002a90:	87a0      	strh	r0, [r4, #60]	; 0x3c
  hspi->RxXferCount = 0U;
 8002a92:	87e0      	strh	r0, [r4, #62]	; 0x3e
  hspi->TxISR       = NULL;
 8002a94:	6460      	str	r0, [r4, #68]	; 0x44
  hspi->RxISR       = NULL;
 8002a96:	6420      	str	r0, [r4, #64]	; 0x40
 8002a98:	6820      	ldr	r0, [r4, #0]
  if (hspi->Init.Direction == SPI_DIRECTION_1LINE)
 8002a9a:	f5b3 4f00 	cmp.w	r3, #32768	; 0x8000
    SPI_1LINE_TX(hspi);
 8002a9e:	bf08      	it	eq
 8002aa0:	6803      	ldreq	r3, [r0, #0]
  hspi->pTxBuffPtr  = (uint8_t *)pData;
 8002aa2:	6325      	str	r5, [r4, #48]	; 0x30
    SPI_1LINE_TX(hspi);
 8002aa4:	bf08      	it	eq
 8002aa6:	f443 4380 	orreq.w	r3, r3, #16384	; 0x4000
  hspi->TxXferSize  = Size;
 8002aaa:	f8a4 8034 	strh.w	r8, [r4, #52]	; 0x34
    SPI_1LINE_TX(hspi);
 8002aae:	bf08      	it	eq
 8002ab0:	6003      	streq	r3, [r0, #0]
  if ((hspi->Instance->CR1 & SPI_CR1_SPE) != SPI_CR1_SPE)
 8002ab2:	6803      	ldr	r3, [r0, #0]
 8002ab4:	065b      	lsls	r3, r3, #25
    __HAL_SPI_ENABLE(hspi);
 8002ab6:	bf5e      	ittt	pl
 8002ab8:	6803      	ldrpl	r3, [r0, #0]
 8002aba:	f043 0340 	orrpl.w	r3, r3, #64	; 0x40
 8002abe:	6003      	strpl	r3, [r0, #0]
  if (hspi->Init.DataSize == SPI_DATASIZE_16BIT)
 8002ac0:	68e3      	ldr	r3, [r4, #12]
 8002ac2:	f5b3 6f00 	cmp.w	r3, #2048	; 0x800
 8002ac6:	6863      	ldr	r3, [r4, #4]
 8002ac8:	d13e      	bne.n	8002b48 <HAL_SPI_Transmit+0x102>
    if ((hspi->Init.Mode == SPI_MODE_SLAVE) || (initial_TxXferCount == 0x01U))
 8002aca:	b113      	cbz	r3, 8002ad2 <HAL_SPI_Transmit+0x8c>
 8002acc:	f1b8 0f01 	cmp.w	r8, #1
 8002ad0:	d107      	bne.n	8002ae2 <HAL_SPI_Transmit+0x9c>
      hspi->Instance->DR = *((uint16_t *)hspi->pTxBuffPtr);
 8002ad2:	f835 3b02 	ldrh.w	r3, [r5], #2
 8002ad6:	60c3      	str	r3, [r0, #12]
      hspi->pTxBuffPtr += sizeof(uint16_t);
 8002ad8:	6325      	str	r5, [r4, #48]	; 0x30
        hspi->TxXferCount--;
 8002ada:	8ee3      	ldrh	r3, [r4, #54]	; 0x36
 8002adc:	3b01      	subs	r3, #1
 8002ade:	b29b      	uxth	r3, r3
 8002ae0:	86e3      	strh	r3, [r4, #54]	; 0x36
    while (hspi->TxXferCount > 0U)
 8002ae2:	8ee3      	ldrh	r3, [r4, #54]	; 0x36
 8002ae4:	b29b      	uxth	r3, r3
 8002ae6:	b9a3      	cbnz	r3, 8002b12 <HAL_SPI_Transmit+0xcc>
  if (SPI_EndRxTxTransaction(hspi, Timeout, tickstart) != HAL_OK)
 8002ae8:	463a      	mov	r2, r7
 8002aea:	4631      	mov	r1, r6
 8002aec:	4620      	mov	r0, r4
 8002aee:	f7ff ff61 	bl	80029b4 <SPI_EndRxTxTransaction>
 8002af2:	2800      	cmp	r0, #0
 8002af4:	d149      	bne.n	8002b8a <HAL_SPI_Transmit+0x144>
  if (hspi->Init.Direction == SPI_DIRECTION_2LINES)
 8002af6:	68a3      	ldr	r3, [r4, #8]
 8002af8:	b933      	cbnz	r3, 8002b08 <HAL_SPI_Transmit+0xc2>
    __HAL_SPI_CLEAR_OVRFLAG(hspi);
 8002afa:	9301      	str	r3, [sp, #4]
 8002afc:	6823      	ldr	r3, [r4, #0]
 8002afe:	68da      	ldr	r2, [r3, #12]
 8002b00:	9201      	str	r2, [sp, #4]
 8002b02:	689b      	ldr	r3, [r3, #8]
 8002b04:	9301      	str	r3, [sp, #4]
 8002b06:	9b01      	ldr	r3, [sp, #4]
  if (hspi->ErrorCode != HAL_SPI_ERROR_NONE)
 8002b08:	6d60      	ldr	r0, [r4, #84]	; 0x54
    errorcode = HAL_BUSY;
 8002b0a:	3000      	adds	r0, #0
 8002b0c:	bf18      	it	ne
 8002b0e:	2001      	movne	r0, #1
 8002b10:	e011      	b.n	8002b36 <HAL_SPI_Transmit+0xf0>
      if (__HAL_SPI_GET_FLAG(hspi, SPI_FLAG_TXE))
 8002b12:	6822      	ldr	r2, [r4, #0]
 8002b14:	6893      	ldr	r3, [r2, #8]
 8002b16:	0798      	lsls	r0, r3, #30
 8002b18:	d505      	bpl.n	8002b26 <HAL_SPI_Transmit+0xe0>
        hspi->Instance->DR = *((uint16_t *)hspi->pTxBuffPtr);
 8002b1a:	6b23      	ldr	r3, [r4, #48]	; 0x30
 8002b1c:	f833 1b02 	ldrh.w	r1, [r3], #2
 8002b20:	60d1      	str	r1, [r2, #12]
        hspi->pTxBuffPtr += sizeof(uint16_t);
 8002b22:	6323      	str	r3, [r4, #48]	; 0x30
 8002b24:	e7d9      	b.n	8002ada <HAL_SPI_Transmit+0x94>
        if ((((HAL_GetTick() - tickstart) >=  Timeout) && (Timeout != HAL_MAX_DELAY)) || (Timeout == 0U))
 8002b26:	f7fd ffb3 	bl	8000a90 <HAL_GetTick>
 8002b2a:	1bc0      	subs	r0, r0, r7
 8002b2c:	42b0      	cmp	r0, r6
 8002b2e:	d3d8      	bcc.n	8002ae2 <HAL_SPI_Transmit+0x9c>
 8002b30:	1c71      	adds	r1, r6, #1
 8002b32:	d0d6      	beq.n	8002ae2 <HAL_SPI_Transmit+0x9c>
          errorcode = HAL_TIMEOUT;
 8002b34:	2003      	movs	r0, #3
  hspi->State = HAL_SPI_STATE_READY;
 8002b36:	2301      	movs	r3, #1
 8002b38:	f884 3051 	strb.w	r3, [r4, #81]	; 0x51
  __HAL_UNLOCK(hspi);
 8002b3c:	2300      	movs	r3, #0
 8002b3e:	f884 3050 	strb.w	r3, [r4, #80]	; 0x50
}
 8002b42:	b002      	add	sp, #8
 8002b44:	e8bd 81f0 	ldmia.w	sp!, {r4, r5, r6, r7, r8, pc}
    if ((hspi->Init.Mode == SPI_MODE_SLAVE) || (initial_TxXferCount == 0x01U))
 8002b48:	b113      	cbz	r3, 8002b50 <HAL_SPI_Transmit+0x10a>
 8002b4a:	f1b8 0f01 	cmp.w	r8, #1
 8002b4e:	d108      	bne.n	8002b62 <HAL_SPI_Transmit+0x11c>
      *((__IO uint8_t *)&hspi->Instance->DR) = (*hspi->pTxBuffPtr);
 8002b50:	782b      	ldrb	r3, [r5, #0]
 8002b52:	7303      	strb	r3, [r0, #12]
        hspi->pTxBuffPtr += sizeof(uint8_t);
 8002b54:	6b23      	ldr	r3, [r4, #48]	; 0x30
 8002b56:	3301      	adds	r3, #1
 8002b58:	6323      	str	r3, [r4, #48]	; 0x30
        hspi->TxXferCount--;
 8002b5a:	8ee3      	ldrh	r3, [r4, #54]	; 0x36
 8002b5c:	3b01      	subs	r3, #1
 8002b5e:	b29b      	uxth	r3, r3
 8002b60:	86e3      	strh	r3, [r4, #54]	; 0x36
    while (hspi->TxXferCount > 0U)
 8002b62:	8ee3      	ldrh	r3, [r4, #54]	; 0x36
 8002b64:	b29b      	uxth	r3, r3
 8002b66:	2b00      	cmp	r3, #0
 8002b68:	d0be      	beq.n	8002ae8 <HAL_SPI_Transmit+0xa2>
      if (__HAL_SPI_GET_FLAG(hspi, SPI_FLAG_TXE))
 8002b6a:	6823      	ldr	r3, [r4, #0]
 8002b6c:	689a      	ldr	r2, [r3, #8]
 8002b6e:	0792      	lsls	r2, r2, #30
 8002b70:	d503      	bpl.n	8002b7a <HAL_SPI_Transmit+0x134>
        *((__IO uint8_t *)&hspi->Instance->DR) = (*hspi->pTxBuffPtr);
 8002b72:	6b22      	ldr	r2, [r4, #48]	; 0x30
 8002b74:	7812      	ldrb	r2, [r2, #0]
 8002b76:	731a      	strb	r2, [r3, #12]
 8002b78:	e7ec      	b.n	8002b54 <HAL_SPI_Transmit+0x10e>
        if ((((HAL_GetTick() - tickstart) >=  Timeout) && (Timeout != HAL_MAX_DELAY)) || (Timeout == 0U))
 8002b7a:	f7fd ff89 	bl	8000a90 <HAL_GetTick>
 8002b7e:	1bc0      	subs	r0, r0, r7
 8002b80:	4286      	cmp	r6, r0
 8002b82:	d8ee      	bhi.n	8002b62 <HAL_SPI_Transmit+0x11c>
 8002b84:	1c73      	adds	r3, r6, #1
 8002b86:	d0ec      	beq.n	8002b62 <HAL_SPI_Transmit+0x11c>
 8002b88:	e7d4      	b.n	8002b34 <HAL_SPI_Transmit+0xee>
    hspi->ErrorCode = HAL_SPI_ERROR_FLAG;
 8002b8a:	2320      	movs	r3, #32
 8002b8c:	6563      	str	r3, [r4, #84]	; 0x54
 8002b8e:	e7b2      	b.n	8002af6 <HAL_SPI_Transmit+0xb0>
    errorcode = HAL_BUSY;
 8002b90:	2002      	movs	r0, #2
 8002b92:	e7d0      	b.n	8002b36 <HAL_SPI_Transmit+0xf0>
  __HAL_LOCK(hspi);
 8002b94:	2002      	movs	r0, #2
 8002b96:	e7d4      	b.n	8002b42 <HAL_SPI_Transmit+0xfc>

08002b98 <HAL_SPI_TransmitReceive>:
{
 8002b98:	e92d 43f7 	stmdb	sp!, {r0, r1, r2, r4, r5, r6, r7, r8, r9, lr}
 8002b9c:	461e      	mov	r6, r3
  __HAL_LOCK(hspi);
 8002b9e:	f890 3050 	ldrb.w	r3, [r0, #80]	; 0x50
{
 8002ba2:	4604      	mov	r4, r0
  __HAL_LOCK(hspi);
 8002ba4:	2b01      	cmp	r3, #1
{
 8002ba6:	460d      	mov	r5, r1
 8002ba8:	4691      	mov	r9, r2
 8002baa:	9f0a      	ldr	r7, [sp, #40]	; 0x28
  __HAL_LOCK(hspi);
 8002bac:	f000 80e2 	beq.w	8002d74 <HAL_SPI_TransmitReceive+0x1dc>
 8002bb0:	2301      	movs	r3, #1
 8002bb2:	f880 3050 	strb.w	r3, [r0, #80]	; 0x50
  tickstart = HAL_GetTick();
 8002bb6:	f7fd ff6b 	bl	8000a90 <HAL_GetTick>
  tmp_state           = hspi->State;
 8002bba:	f894 3051 	ldrb.w	r3, [r4, #81]	; 0x51
  tickstart = HAL_GetTick();
 8002bbe:	4680      	mov	r8, r0
  tmp_state           = hspi->State;
 8002bc0:	b2db      	uxtb	r3, r3
  if (!((tmp_state == HAL_SPI_STATE_READY) || \
 8002bc2:	2b01      	cmp	r3, #1
  tmp_mode            = hspi->Init.Mode;
 8002bc4:	6861      	ldr	r1, [r4, #4]
  if (!((tmp_state == HAL_SPI_STATE_READY) || \
 8002bc6:	d00a      	beq.n	8002bde <HAL_SPI_TransmitReceive+0x46>
 8002bc8:	f5b1 7f82 	cmp.w	r1, #260	; 0x104
 8002bcc:	f040 80d0 	bne.w	8002d70 <HAL_SPI_TransmitReceive+0x1d8>
        ((tmp_mode == SPI_MODE_MASTER) && (hspi->Init.Direction == SPI_DIRECTION_2LINES) && (tmp_state == HAL_SPI_STATE_BUSY_RX))))
 8002bd0:	68a0      	ldr	r0, [r4, #8]
 8002bd2:	2800      	cmp	r0, #0
 8002bd4:	f040 80cc 	bne.w	8002d70 <HAL_SPI_TransmitReceive+0x1d8>
 8002bd8:	2b04      	cmp	r3, #4
 8002bda:	f040 80c9 	bne.w	8002d70 <HAL_SPI_TransmitReceive+0x1d8>
  if ((pTxData == NULL) || (pRxData == NULL) || (Size == 0U))
 8002bde:	2d00      	cmp	r5, #0
 8002be0:	f000 80c4 	beq.w	8002d6c <HAL_SPI_TransmitReceive+0x1d4>
 8002be4:	f1b9 0f00 	cmp.w	r9, #0
 8002be8:	f000 80c0 	beq.w	8002d6c <HAL_SPI_TransmitReceive+0x1d4>
 8002bec:	2e00      	cmp	r6, #0
 8002bee:	f000 80bd 	beq.w	8002d6c <HAL_SPI_TransmitReceive+0x1d4>
  if (hspi->State != HAL_SPI_STATE_BUSY_RX)
 8002bf2:	f894 3051 	ldrb.w	r3, [r4, #81]	; 0x51
  hspi->pRxBuffPtr  = (uint8_t *)pRxData;
 8002bf6:	f8c4 9038 	str.w	r9, [r4, #56]	; 0x38
  if (hspi->State != HAL_SPI_STATE_BUSY_RX)
 8002bfa:	2b04      	cmp	r3, #4
    hspi->State = HAL_SPI_STATE_BUSY_TX_RX;
 8002bfc:	bf1c      	itt	ne
 8002bfe:	2305      	movne	r3, #5
 8002c00:	f884 3051 	strbne.w	r3, [r4, #81]	; 0x51
  hspi->ErrorCode   = HAL_SPI_ERROR_NONE;
 8002c04:	2300      	movs	r3, #0
 8002c06:	6563      	str	r3, [r4, #84]	; 0x54
  hspi->RxISR       = NULL;
 8002c08:	6423      	str	r3, [r4, #64]	; 0x40
  hspi->TxISR       = NULL;
 8002c0a:	6463      	str	r3, [r4, #68]	; 0x44
  if ((hspi->Instance->CR1 & SPI_CR1_SPE) != SPI_CR1_SPE)
 8002c0c:	6823      	ldr	r3, [r4, #0]
  hspi->RxXferCount = Size;
 8002c0e:	87e6      	strh	r6, [r4, #62]	; 0x3e
  hspi->TxXferCount = Size;
 8002c10:	86e6      	strh	r6, [r4, #54]	; 0x36
  if ((hspi->Instance->CR1 & SPI_CR1_SPE) != SPI_CR1_SPE)
 8002c12:	681a      	ldr	r2, [r3, #0]
  hspi->RxXferSize  = Size;
 8002c14:	87a6      	strh	r6, [r4, #60]	; 0x3c
  if ((hspi->Instance->CR1 & SPI_CR1_SPE) != SPI_CR1_SPE)
 8002c16:	0650      	lsls	r0, r2, #25
    __HAL_SPI_ENABLE(hspi);
 8002c18:	bf58      	it	pl
 8002c1a:	681a      	ldrpl	r2, [r3, #0]
  hspi->pTxBuffPtr  = (uint8_t *)pTxData;
 8002c1c:	6325      	str	r5, [r4, #48]	; 0x30
    __HAL_SPI_ENABLE(hspi);
 8002c1e:	bf58      	it	pl
 8002c20:	f042 0240 	orrpl.w	r2, r2, #64	; 0x40
  hspi->TxXferSize  = Size;
 8002c24:	86a6      	strh	r6, [r4, #52]	; 0x34
    __HAL_SPI_ENABLE(hspi);
 8002c26:	bf58      	it	pl
 8002c28:	601a      	strpl	r2, [r3, #0]
  if (hspi->Init.DataSize == SPI_DATASIZE_16BIT)
 8002c2a:	68e2      	ldr	r2, [r4, #12]
 8002c2c:	f5b2 6f00 	cmp.w	r2, #2048	; 0x800
 8002c30:	d158      	bne.n	8002ce4 <HAL_SPI_TransmitReceive+0x14c>
    if ((hspi->Init.Mode == SPI_MODE_SLAVE) || (initial_TxXferCount == 0x01U))
 8002c32:	b109      	cbz	r1, 8002c38 <HAL_SPI_TransmitReceive+0xa0>
 8002c34:	2e01      	cmp	r6, #1
 8002c36:	d107      	bne.n	8002c48 <HAL_SPI_TransmitReceive+0xb0>
      hspi->Instance->DR = *((uint16_t *)hspi->pTxBuffPtr);
 8002c38:	f835 2b02 	ldrh.w	r2, [r5], #2
 8002c3c:	60da      	str	r2, [r3, #12]
      hspi->TxXferCount--;
 8002c3e:	8ee3      	ldrh	r3, [r4, #54]	; 0x36
      hspi->pTxBuffPtr += sizeof(uint16_t);
 8002c40:	6325      	str	r5, [r4, #48]	; 0x30
      hspi->TxXferCount--;
 8002c42:	3b01      	subs	r3, #1
 8002c44:	b29b      	uxth	r3, r3
 8002c46:	86e3      	strh	r3, [r4, #54]	; 0x36
        txallowed = 1U;
 8002c48:	2501      	movs	r5, #1
    while ((hspi->TxXferCount > 0U) || (hspi->RxXferCount > 0U))
 8002c4a:	8ee3      	ldrh	r3, [r4, #54]	; 0x36
 8002c4c:	b29b      	uxth	r3, r3
 8002c4e:	b9ab      	cbnz	r3, 8002c7c <HAL_SPI_TransmitReceive+0xe4>
 8002c50:	8fe3      	ldrh	r3, [r4, #62]	; 0x3e
 8002c52:	b29b      	uxth	r3, r3
 8002c54:	b993      	cbnz	r3, 8002c7c <HAL_SPI_TransmitReceive+0xe4>
  if (SPI_EndRxTxTransaction(hspi, Timeout, tickstart) != HAL_OK)
 8002c56:	4642      	mov	r2, r8
 8002c58:	4639      	mov	r1, r7
 8002c5a:	4620      	mov	r0, r4
 8002c5c:	f7ff feaa 	bl	80029b4 <SPI_EndRxTxTransaction>
 8002c60:	2800      	cmp	r0, #0
 8002c62:	f040 8081 	bne.w	8002d68 <HAL_SPI_TransmitReceive+0x1d0>
  if (hspi->Init.Direction == SPI_DIRECTION_2LINES)
 8002c66:	68a3      	ldr	r3, [r4, #8]
 8002c68:	2b00      	cmp	r3, #0
 8002c6a:	d132      	bne.n	8002cd2 <HAL_SPI_TransmitReceive+0x13a>
    __HAL_SPI_CLEAR_OVRFLAG(hspi);
 8002c6c:	6823      	ldr	r3, [r4, #0]
 8002c6e:	9001      	str	r0, [sp, #4]
 8002c70:	68da      	ldr	r2, [r3, #12]
 8002c72:	9201      	str	r2, [sp, #4]
 8002c74:	689b      	ldr	r3, [r3, #8]
 8002c76:	9301      	str	r3, [sp, #4]
 8002c78:	9b01      	ldr	r3, [sp, #4]
 8002c7a:	e02a      	b.n	8002cd2 <HAL_SPI_TransmitReceive+0x13a>
      if ((__HAL_SPI_GET_FLAG(hspi, SPI_FLAG_TXE)) && (hspi->TxXferCount > 0U) && (txallowed == 1U))
 8002c7c:	6822      	ldr	r2, [r4, #0]
 8002c7e:	6893      	ldr	r3, [r2, #8]
 8002c80:	0799      	lsls	r1, r3, #30
 8002c82:	d50d      	bpl.n	8002ca0 <HAL_SPI_TransmitReceive+0x108>
 8002c84:	8ee3      	ldrh	r3, [r4, #54]	; 0x36
 8002c86:	b29b      	uxth	r3, r3
 8002c88:	b153      	cbz	r3, 8002ca0 <HAL_SPI_TransmitReceive+0x108>
 8002c8a:	b14d      	cbz	r5, 8002ca0 <HAL_SPI_TransmitReceive+0x108>
        txallowed = 0U;
 8002c8c:	2500      	movs	r5, #0
        hspi->Instance->DR = *((uint16_t *)hspi->pTxBuffPtr);
 8002c8e:	6b23      	ldr	r3, [r4, #48]	; 0x30
 8002c90:	f833 1b02 	ldrh.w	r1, [r3], #2
 8002c94:	60d1      	str	r1, [r2, #12]
        hspi->pTxBuffPtr += sizeof(uint16_t);
 8002c96:	6323      	str	r3, [r4, #48]	; 0x30
        hspi->TxXferCount--;
 8002c98:	8ee3      	ldrh	r3, [r4, #54]	; 0x36
 8002c9a:	3b01      	subs	r3, #1
 8002c9c:	b29b      	uxth	r3, r3
 8002c9e:	86e3      	strh	r3, [r4, #54]	; 0x36
      if ((__HAL_SPI_GET_FLAG(hspi, SPI_FLAG_RXNE)) && (hspi->RxXferCount > 0U))
 8002ca0:	6893      	ldr	r3, [r2, #8]
 8002ca2:	07db      	lsls	r3, r3, #31
 8002ca4:	d50c      	bpl.n	8002cc0 <HAL_SPI_TransmitReceive+0x128>
 8002ca6:	8fe3      	ldrh	r3, [r4, #62]	; 0x3e
 8002ca8:	b29b      	uxth	r3, r3
 8002caa:	b14b      	cbz	r3, 8002cc0 <HAL_SPI_TransmitReceive+0x128>
        txallowed = 1U;
 8002cac:	2501      	movs	r5, #1
        *((uint16_t *)hspi->pRxBuffPtr) = (uint16_t)hspi->Instance->DR;
 8002cae:	68d2      	ldr	r2, [r2, #12]
 8002cb0:	6ba3      	ldr	r3, [r4, #56]	; 0x38
 8002cb2:	f823 2b02 	strh.w	r2, [r3], #2
        hspi->pRxBuffPtr += sizeof(uint16_t);
 8002cb6:	63a3      	str	r3, [r4, #56]	; 0x38
        hspi->RxXferCount--;
 8002cb8:	8fe3      	ldrh	r3, [r4, #62]	; 0x3e
 8002cba:	3b01      	subs	r3, #1
 8002cbc:	b29b      	uxth	r3, r3
 8002cbe:	87e3      	strh	r3, [r4, #62]	; 0x3e
      if (((HAL_GetTick() - tickstart) >=  Timeout) && (Timeout != HAL_MAX_DELAY))
 8002cc0:	f7fd fee6 	bl	8000a90 <HAL_GetTick>
 8002cc4:	eba0 0008 	sub.w	r0, r0, r8
 8002cc8:	4287      	cmp	r7, r0
 8002cca:	d8be      	bhi.n	8002c4a <HAL_SPI_TransmitReceive+0xb2>
 8002ccc:	1c7e      	adds	r6, r7, #1
 8002cce:	d0bc      	beq.n	8002c4a <HAL_SPI_TransmitReceive+0xb2>
        errorcode = HAL_TIMEOUT;
 8002cd0:	2003      	movs	r0, #3
  hspi->State = HAL_SPI_STATE_READY;
 8002cd2:	2301      	movs	r3, #1
 8002cd4:	f884 3051 	strb.w	r3, [r4, #81]	; 0x51
  __HAL_UNLOCK(hspi);
 8002cd8:	2300      	movs	r3, #0
 8002cda:	f884 3050 	strb.w	r3, [r4, #80]	; 0x50
}
 8002cde:	b003      	add	sp, #12
 8002ce0:	e8bd 83f0 	ldmia.w	sp!, {r4, r5, r6, r7, r8, r9, pc}
    if ((hspi->Init.Mode == SPI_MODE_SLAVE) || (initial_TxXferCount == 0x01U))
 8002ce4:	b109      	cbz	r1, 8002cea <HAL_SPI_TransmitReceive+0x152>
 8002ce6:	2e01      	cmp	r6, #1
 8002ce8:	d108      	bne.n	8002cfc <HAL_SPI_TransmitReceive+0x164>
      *((__IO uint8_t *)&hspi->Instance->DR) = (*hspi->pTxBuffPtr);
 8002cea:	782a      	ldrb	r2, [r5, #0]
 8002cec:	731a      	strb	r2, [r3, #12]
      hspi->pTxBuffPtr += sizeof(uint8_t);
 8002cee:	6b23      	ldr	r3, [r4, #48]	; 0x30
 8002cf0:	3301      	adds	r3, #1
 8002cf2:	6323      	str	r3, [r4, #48]	; 0x30
      hspi->TxXferCount--;
 8002cf4:	8ee3      	ldrh	r3, [r4, #54]	; 0x36
 8002cf6:	3b01      	subs	r3, #1
 8002cf8:	b29b      	uxth	r3, r3
 8002cfa:	86e3      	strh	r3, [r4, #54]	; 0x36
        txallowed = 1U;
 8002cfc:	2501      	movs	r5, #1
    while ((hspi->TxXferCount > 0U) || (hspi->RxXferCount > 0U))
 8002cfe:	8ee3      	ldrh	r3, [r4, #54]	; 0x36
 8002d00:	b29b      	uxth	r3, r3
 8002d02:	b91b      	cbnz	r3, 8002d0c <HAL_SPI_TransmitReceive+0x174>
 8002d04:	8fe3      	ldrh	r3, [r4, #62]	; 0x3e
 8002d06:	b29b      	uxth	r3, r3
 8002d08:	2b00      	cmp	r3, #0
 8002d0a:	d0a4      	beq.n	8002c56 <HAL_SPI_TransmitReceive+0xbe>
      if ((__HAL_SPI_GET_FLAG(hspi, SPI_FLAG_TXE)) && (hspi->TxXferCount > 0U) && (txallowed == 1U))
 8002d0c:	6822      	ldr	r2, [r4, #0]
 8002d0e:	6893      	ldr	r3, [r2, #8]
 8002d10:	0798      	lsls	r0, r3, #30
 8002d12:	d50e      	bpl.n	8002d32 <HAL_SPI_TransmitReceive+0x19a>
 8002d14:	8ee3      	ldrh	r3, [r4, #54]	; 0x36
 8002d16:	b29b      	uxth	r3, r3
 8002d18:	b15b      	cbz	r3, 8002d32 <HAL_SPI_TransmitReceive+0x19a>
 8002d1a:	b155      	cbz	r5, 8002d32 <HAL_SPI_TransmitReceive+0x19a>
        txallowed = 0U;
 8002d1c:	2500      	movs	r5, #0
        *(__IO uint8_t *)&hspi->Instance->DR = (*hspi->pTxBuffPtr);
 8002d1e:	6b23      	ldr	r3, [r4, #48]	; 0x30
 8002d20:	781b      	ldrb	r3, [r3, #0]
 8002d22:	7313      	strb	r3, [r2, #12]
        hspi->pTxBuffPtr++;
 8002d24:	6b23      	ldr	r3, [r4, #48]	; 0x30
 8002d26:	3301      	adds	r3, #1
 8002d28:	6323      	str	r3, [r4, #48]	; 0x30
        hspi->TxXferCount--;
 8002d2a:	8ee3      	ldrh	r3, [r4, #54]	; 0x36
 8002d2c:	3b01      	subs	r3, #1
 8002d2e:	b29b      	uxth	r3, r3
 8002d30:	86e3      	strh	r3, [r4, #54]	; 0x36
      if ((__HAL_SPI_GET_FLAG(hspi, SPI_FLAG_RXNE)) && (hspi->RxXferCount > 0U))
 8002d32:	6822      	ldr	r2, [r4, #0]
 8002d34:	6893      	ldr	r3, [r2, #8]
 8002d36:	07d9      	lsls	r1, r3, #31
 8002d38:	d50d      	bpl.n	8002d56 <HAL_SPI_TransmitReceive+0x1be>
 8002d3a:	8fe3      	ldrh	r3, [r4, #62]	; 0x3e
 8002d3c:	b29b      	uxth	r3, r3
 8002d3e:	b153      	cbz	r3, 8002d56 <HAL_SPI_TransmitReceive+0x1be>
        txallowed = 1U;
 8002d40:	2501      	movs	r5, #1
        (*(uint8_t *)hspi->pRxBuffPtr) = hspi->Instance->DR;
 8002d42:	68d2      	ldr	r2, [r2, #12]
 8002d44:	6ba3      	ldr	r3, [r4, #56]	; 0x38
 8002d46:	701a      	strb	r2, [r3, #0]
        hspi->pRxBuffPtr++;
 8002d48:	6ba3      	ldr	r3, [r4, #56]	; 0x38
 8002d4a:	3301      	adds	r3, #1
 8002d4c:	63a3      	str	r3, [r4, #56]	; 0x38
        hspi->RxXferCount--;
 8002d4e:	8fe3      	ldrh	r3, [r4, #62]	; 0x3e
 8002d50:	3b01      	subs	r3, #1
 8002d52:	b29b      	uxth	r3, r3
 8002d54:	87e3      	strh	r3, [r4, #62]	; 0x3e
      if ((((HAL_GetTick() - tickstart) >=  Timeout) && ((Timeout != HAL_MAX_DELAY))) || (Timeout == 0U))
 8002d56:	f7fd fe9b 	bl	8000a90 <HAL_GetTick>
 8002d5a:	eba0 0008 	sub.w	r0, r0, r8
 8002d5e:	4287      	cmp	r7, r0
 8002d60:	d8cd      	bhi.n	8002cfe <HAL_SPI_TransmitReceive+0x166>
 8002d62:	1c7b      	adds	r3, r7, #1
 8002d64:	d0cb      	beq.n	8002cfe <HAL_SPI_TransmitReceive+0x166>
 8002d66:	e7b3      	b.n	8002cd0 <HAL_SPI_TransmitReceive+0x138>
    hspi->ErrorCode = HAL_SPI_ERROR_FLAG;
 8002d68:	2320      	movs	r3, #32
 8002d6a:	6563      	str	r3, [r4, #84]	; 0x54
    errorcode = HAL_ERROR;
 8002d6c:	2001      	movs	r0, #1
 8002d6e:	e7b0      	b.n	8002cd2 <HAL_SPI_TransmitReceive+0x13a>
    errorcode = HAL_BUSY;
 8002d70:	2002      	movs	r0, #2
 8002d72:	e7ae      	b.n	8002cd2 <HAL_SPI_TransmitReceive+0x13a>
  __HAL_LOCK(hspi);
 8002d74:	2002      	movs	r0, #2
 8002d76:	e7b2      	b.n	8002cde <HAL_SPI_TransmitReceive+0x146>

08002d78 <HAL_SPI_Receive>:
{
 8002d78:	e92d 41f3 	stmdb	sp!, {r0, r1, r4, r5, r6, r7, r8, lr}
 8002d7c:	461d      	mov	r5, r3
  if ((hspi->Init.Mode == SPI_MODE_MASTER) && (hspi->Init.Direction == SPI_DIRECTION_2LINES))
 8002d7e:	6843      	ldr	r3, [r0, #4]
{
 8002d80:	4604      	mov	r4, r0
  if ((hspi->Init.Mode == SPI_MODE_MASTER) && (hspi->Init.Direction == SPI_DIRECTION_2LINES))
 8002d82:	f5b3 7f82 	cmp.w	r3, #260	; 0x104
{
 8002d86:	4688      	mov	r8, r1
 8002d88:	4617      	mov	r7, r2
  if ((hspi->Init.Mode == SPI_MODE_MASTER) && (hspi->Init.Direction == SPI_DIRECTION_2LINES))
 8002d8a:	d10c      	bne.n	8002da6 <HAL_SPI_Receive+0x2e>
 8002d8c:	6883      	ldr	r3, [r0, #8]
 8002d8e:	b953      	cbnz	r3, 8002da6 <HAL_SPI_Receive+0x2e>
    hspi->State = HAL_SPI_STATE_BUSY_RX;
 8002d90:	2304      	movs	r3, #4
 8002d92:	f880 3051 	strb.w	r3, [r0, #81]	; 0x51
    return HAL_SPI_TransmitReceive(hspi, pData, pData, Size, Timeout);
 8002d96:	4613      	mov	r3, r2
 8002d98:	9500      	str	r5, [sp, #0]
 8002d9a:	460a      	mov	r2, r1
 8002d9c:	f7ff fefc 	bl	8002b98 <HAL_SPI_TransmitReceive>
}
 8002da0:	b002      	add	sp, #8
 8002da2:	e8bd 81f0 	ldmia.w	sp!, {r4, r5, r6, r7, r8, pc}
  __HAL_LOCK(hspi);
 8002da6:	f894 3050 	ldrb.w	r3, [r4, #80]	; 0x50
 8002daa:	2b01      	cmp	r3, #1
 8002dac:	d079      	beq.n	8002ea2 <HAL_SPI_Receive+0x12a>
 8002dae:	2301      	movs	r3, #1
 8002db0:	f884 3050 	strb.w	r3, [r4, #80]	; 0x50
  tickstart = HAL_GetTick();
 8002db4:	f7fd fe6c 	bl	8000a90 <HAL_GetTick>
 8002db8:	4606      	mov	r6, r0
  if (hspi->State != HAL_SPI_STATE_READY)
 8002dba:	f894 0051 	ldrb.w	r0, [r4, #81]	; 0x51
 8002dbe:	b2c0      	uxtb	r0, r0
 8002dc0:	2801      	cmp	r0, #1
 8002dc2:	d16c      	bne.n	8002e9e <HAL_SPI_Receive+0x126>
  if ((pData == NULL) || (Size == 0U))
 8002dc4:	f1b8 0f00 	cmp.w	r8, #0
 8002dc8:	d057      	beq.n	8002e7a <HAL_SPI_Receive+0x102>
 8002dca:	2f00      	cmp	r7, #0
 8002dcc:	d055      	beq.n	8002e7a <HAL_SPI_Receive+0x102>
  hspi->State       = HAL_SPI_STATE_BUSY_RX;
 8002dce:	2304      	movs	r3, #4
 8002dd0:	f884 3051 	strb.w	r3, [r4, #81]	; 0x51
  hspi->ErrorCode   = HAL_SPI_ERROR_NONE;
 8002dd4:	2300      	movs	r3, #0
 8002dd6:	6563      	str	r3, [r4, #84]	; 0x54
  hspi->pTxBuffPtr  = (uint8_t *)NULL;
 8002dd8:	6323      	str	r3, [r4, #48]	; 0x30
  hspi->RxXferCount = Size;
 8002dda:	87e7      	strh	r7, [r4, #62]	; 0x3e
  hspi->TxXferSize  = 0U;
 8002ddc:	86a3      	strh	r3, [r4, #52]	; 0x34
  hspi->TxXferCount = 0U;
 8002dde:	86e3      	strh	r3, [r4, #54]	; 0x36
  hspi->RxISR       = NULL;
 8002de0:	6423      	str	r3, [r4, #64]	; 0x40
  hspi->TxISR       = NULL;
 8002de2:	6463      	str	r3, [r4, #68]	; 0x44
  if (hspi->Init.Direction == SPI_DIRECTION_1LINE)
 8002de4:	68a3      	ldr	r3, [r4, #8]
  hspi->RxXferSize  = Size;
 8002de6:	87a7      	strh	r7, [r4, #60]	; 0x3c
  if (hspi->Init.Direction == SPI_DIRECTION_1LINE)
 8002de8:	f5b3 4f00 	cmp.w	r3, #32768	; 0x8000
 8002dec:	6823      	ldr	r3, [r4, #0]
  hspi->pRxBuffPtr  = (uint8_t *)pData;
 8002dee:	f8c4 8038 	str.w	r8, [r4, #56]	; 0x38
    SPI_1LINE_RX(hspi);
 8002df2:	bf02      	ittt	eq
 8002df4:	681a      	ldreq	r2, [r3, #0]
 8002df6:	f422 4280 	biceq.w	r2, r2, #16384	; 0x4000
 8002dfa:	601a      	streq	r2, [r3, #0]
  if ((hspi->Instance->CR1 & SPI_CR1_SPE) != SPI_CR1_SPE)
 8002dfc:	681a      	ldr	r2, [r3, #0]
 8002dfe:	0657      	lsls	r7, r2, #25
    __HAL_SPI_ENABLE(hspi);
 8002e00:	bf5e      	ittt	pl
 8002e02:	681a      	ldrpl	r2, [r3, #0]
 8002e04:	f042 0240 	orrpl.w	r2, r2, #64	; 0x40
 8002e08:	601a      	strpl	r2, [r3, #0]
  if (hspi->Init.DataSize == SPI_DATASIZE_8BIT)
 8002e0a:	68e3      	ldr	r3, [r4, #12]
 8002e0c:	b1f3      	cbz	r3, 8002e4c <HAL_SPI_Receive+0xd4>
    while (hspi->RxXferCount > 0U)
 8002e0e:	8fe3      	ldrh	r3, [r4, #62]	; 0x3e
 8002e10:	b29b      	uxth	r3, r3
 8002e12:	b1fb      	cbz	r3, 8002e54 <HAL_SPI_Receive+0xdc>
      if (__HAL_SPI_GET_FLAG(hspi, SPI_FLAG_RXNE))
 8002e14:	6823      	ldr	r3, [r4, #0]
 8002e16:	689a      	ldr	r2, [r3, #8]
 8002e18:	07d2      	lsls	r2, r2, #31
 8002e1a:	d535      	bpl.n	8002e88 <HAL_SPI_Receive+0x110>
        *((uint16_t *)hspi->pRxBuffPtr) = (uint16_t)hspi->Instance->DR;
 8002e1c:	68da      	ldr	r2, [r3, #12]
 8002e1e:	6ba3      	ldr	r3, [r4, #56]	; 0x38
 8002e20:	f823 2b02 	strh.w	r2, [r3], #2
        hspi->pRxBuffPtr += sizeof(uint16_t);
 8002e24:	63a3      	str	r3, [r4, #56]	; 0x38
        hspi->RxXferCount--;
 8002e26:	8fe3      	ldrh	r3, [r4, #62]	; 0x3e
 8002e28:	3b01      	subs	r3, #1
 8002e2a:	b29b      	uxth	r3, r3
 8002e2c:	87e3      	strh	r3, [r4, #62]	; 0x3e
 8002e2e:	e7ee      	b.n	8002e0e <HAL_SPI_Receive+0x96>
      if (__HAL_SPI_GET_FLAG(hspi, SPI_FLAG_RXNE))
 8002e30:	6823      	ldr	r3, [r4, #0]
 8002e32:	689a      	ldr	r2, [r3, #8]
 8002e34:	07d0      	lsls	r0, r2, #31
 8002e36:	d518      	bpl.n	8002e6a <HAL_SPI_Receive+0xf2>
        (* (uint8_t *)hspi->pRxBuffPtr) = *(__IO uint8_t *)&hspi->Instance->DR;
 8002e38:	7b1b      	ldrb	r3, [r3, #12]
 8002e3a:	6ba2      	ldr	r2, [r4, #56]	; 0x38
 8002e3c:	7013      	strb	r3, [r2, #0]
        hspi->pRxBuffPtr += sizeof(uint8_t);
 8002e3e:	6ba3      	ldr	r3, [r4, #56]	; 0x38
 8002e40:	3301      	adds	r3, #1
 8002e42:	63a3      	str	r3, [r4, #56]	; 0x38
        hspi->RxXferCount--;
 8002e44:	8fe3      	ldrh	r3, [r4, #62]	; 0x3e
 8002e46:	3b01      	subs	r3, #1
 8002e48:	b29b      	uxth	r3, r3
 8002e4a:	87e3      	strh	r3, [r4, #62]	; 0x3e
    while (hspi->RxXferCount > 0U)
 8002e4c:	8fe3      	ldrh	r3, [r4, #62]	; 0x3e
 8002e4e:	b29b      	uxth	r3, r3
 8002e50:	2b00      	cmp	r3, #0
 8002e52:	d1ed      	bne.n	8002e30 <HAL_SPI_Receive+0xb8>
  if (SPI_EndRxTransaction(hspi, Timeout, tickstart) != HAL_OK)
 8002e54:	4632      	mov	r2, r6
 8002e56:	4629      	mov	r1, r5
 8002e58:	4620      	mov	r0, r4
 8002e5a:	f7ff fd84 	bl	8002966 <SPI_EndRxTransaction>
 8002e5e:	b9d8      	cbnz	r0, 8002e98 <HAL_SPI_Receive+0x120>
  if (hspi->ErrorCode != HAL_SPI_ERROR_NONE)
 8002e60:	6d60      	ldr	r0, [r4, #84]	; 0x54
    errorcode = HAL_BUSY;
 8002e62:	3000      	adds	r0, #0
 8002e64:	bf18      	it	ne
 8002e66:	2001      	movne	r0, #1
 8002e68:	e007      	b.n	8002e7a <HAL_SPI_Receive+0x102>
        if ((((HAL_GetTick() - tickstart) >=  Timeout) && (Timeout != HAL_MAX_DELAY)) || (Timeout == 0U))
 8002e6a:	f7fd fe11 	bl	8000a90 <HAL_GetTick>
 8002e6e:	1b80      	subs	r0, r0, r6
 8002e70:	4285      	cmp	r5, r0
 8002e72:	d8eb      	bhi.n	8002e4c <HAL_SPI_Receive+0xd4>
 8002e74:	1c69      	adds	r1, r5, #1
 8002e76:	d0e9      	beq.n	8002e4c <HAL_SPI_Receive+0xd4>
          errorcode = HAL_TIMEOUT;
 8002e78:	2003      	movs	r0, #3
  hspi->State = HAL_SPI_STATE_READY;
 8002e7a:	2301      	movs	r3, #1
 8002e7c:	f884 3051 	strb.w	r3, [r4, #81]	; 0x51
  __HAL_UNLOCK(hspi);
 8002e80:	2300      	movs	r3, #0
 8002e82:	f884 3050 	strb.w	r3, [r4, #80]	; 0x50
  return errorcode;
 8002e86:	e78b      	b.n	8002da0 <HAL_SPI_Receive+0x28>
        if ((((HAL_GetTick() - tickstart) >=  Timeout) && (Timeout != HAL_MAX_DELAY)) || (Timeout == 0U))
 8002e88:	f7fd fe02 	bl	8000a90 <HAL_GetTick>
 8002e8c:	1b80      	subs	r0, r0, r6
 8002e8e:	4285      	cmp	r5, r0
 8002e90:	d8bd      	bhi.n	8002e0e <HAL_SPI_Receive+0x96>
 8002e92:	1c6b      	adds	r3, r5, #1
 8002e94:	d0bb      	beq.n	8002e0e <HAL_SPI_Receive+0x96>
 8002e96:	e7ef      	b.n	8002e78 <HAL_SPI_Receive+0x100>
    hspi->ErrorCode = HAL_SPI_ERROR_FLAG;
 8002e98:	2320      	movs	r3, #32
 8002e9a:	6563      	str	r3, [r4, #84]	; 0x54
 8002e9c:	e7e0      	b.n	8002e60 <HAL_SPI_Receive+0xe8>
    errorcode = HAL_BUSY;
 8002e9e:	2002      	movs	r0, #2
 8002ea0:	e7eb      	b.n	8002e7a <HAL_SPI_Receive+0x102>
  __HAL_LOCK(hspi);
 8002ea2:	2002      	movs	r0, #2
 8002ea4:	e77c      	b.n	8002da0 <HAL_SPI_Receive+0x28>

08002ea6 <HAL_TIM_Base_Start_IT>:

  /* Check the parameters */
  assert_param(IS_TIM_INSTANCE(htim->Instance));

  /* Enable the TIM Update interrupt */
  __HAL_TIM_ENABLE_IT(htim, TIM_IT_UPDATE);
 8002ea6:	6803      	ldr	r3, [r0, #0]
    __HAL_TIM_ENABLE(htim);
  }

  /* Return function status */
  return HAL_OK;
}
 8002ea8:	2000      	movs	r0, #0
  __HAL_TIM_ENABLE_IT(htim, TIM_IT_UPDATE);
 8002eaa:	68da      	ldr	r2, [r3, #12]
 8002eac:	f042 0201 	orr.w	r2, r2, #1
 8002eb0:	60da      	str	r2, [r3, #12]
  tmpsmcr = htim->Instance->SMCR & TIM_SMCR_SMS;
 8002eb2:	689a      	ldr	r2, [r3, #8]
 8002eb4:	f002 0207 	and.w	r2, r2, #7
  if (!IS_TIM_SLAVEMODE_TRIGGER_ENABLED(tmpsmcr))
 8002eb8:	2a06      	cmp	r2, #6
    __HAL_TIM_ENABLE(htim);
 8002eba:	bf1e      	ittt	ne
 8002ebc:	681a      	ldrne	r2, [r3, #0]
 8002ebe:	f042 0201 	orrne.w	r2, r2, #1
 8002ec2:	601a      	strne	r2, [r3, #0]
}
 8002ec4:	4770      	bx	lr

08002ec6 <HAL_TIM_Encoder_Start>:
  *            @arg TIM_CHANNEL_2: TIM Channel 2 selected
  *            @arg TIM_CHANNEL_ALL: TIM Channel 1 and TIM Channel 2 are selected
  * @retval HAL status
  */
HAL_StatusTypeDef HAL_TIM_Encoder_Start(TIM_HandleTypeDef *htim, uint32_t Channel)
{
 8002ec6:	6803      	ldr	r3, [r0, #0]
  /* Check the parameters */
  assert_param(IS_TIM_CC2_INSTANCE(htim->Instance));

  /* Enable the encoder interface channels */
  switch (Channel)
 8002ec8:	b189      	cbz	r1, 8002eee <HAL_TIM_Encoder_Start+0x28>
 8002eca:	2904      	cmp	r1, #4
 8002ecc:	d007      	beq.n	8002ede <HAL_TIM_Encoder_Start+0x18>
  assert_param(IS_TIM_CHANNELS(Channel));

  tmp = TIM_CCER_CC1E << (Channel & 0x1FU); /* 0x1FU = 31 bits max shift */

  /* Reset the CCxE Bit */
  TIMx->CCER &= ~tmp;
 8002ece:	6a1a      	ldr	r2, [r3, #32]
 8002ed0:	f022 0201 	bic.w	r2, r2, #1
 8002ed4:	621a      	str	r2, [r3, #32]

  /* Set or reset the CCxE Bit */
  TIMx->CCER |= (uint32_t)(ChannelState << (Channel & 0x1FU)); /* 0x1FU = 31 bits max shift */
 8002ed6:	6a1a      	ldr	r2, [r3, #32]
 8002ed8:	f042 0201 	orr.w	r2, r2, #1
 8002edc:	621a      	str	r2, [r3, #32]
  TIMx->CCER &= ~tmp;
 8002ede:	6a1a      	ldr	r2, [r3, #32]
 8002ee0:	f022 0210 	bic.w	r2, r2, #16
 8002ee4:	621a      	str	r2, [r3, #32]
  TIMx->CCER |= (uint32_t)(ChannelState << (Channel & 0x1FU)); /* 0x1FU = 31 bits max shift */
 8002ee6:	6a1a      	ldr	r2, [r3, #32]
 8002ee8:	f042 0210 	orr.w	r2, r2, #16
 8002eec:	e006      	b.n	8002efc <HAL_TIM_Encoder_Start+0x36>
  TIMx->CCER &= ~tmp;
 8002eee:	6a1a      	ldr	r2, [r3, #32]
 8002ef0:	f022 0201 	bic.w	r2, r2, #1
 8002ef4:	621a      	str	r2, [r3, #32]
  TIMx->CCER |= (uint32_t)(ChannelState << (Channel & 0x1FU)); /* 0x1FU = 31 bits max shift */
 8002ef6:	6a1a      	ldr	r2, [r3, #32]
 8002ef8:	f042 0201 	orr.w	r2, r2, #1
 8002efc:	621a      	str	r2, [r3, #32]
  __HAL_TIM_ENABLE(htim);
 8002efe:	681a      	ldr	r2, [r3, #0]
}
 8002f00:	2000      	movs	r0, #0
  __HAL_TIM_ENABLE(htim);
 8002f02:	f042 0201 	orr.w	r2, r2, #1
 8002f06:	601a      	str	r2, [r3, #0]
}
 8002f08:	4770      	bx	lr

08002f0a <HAL_TIM_OC_DelayElapsedCallback>:
 8002f0a:	4770      	bx	lr

08002f0c <HAL_TIM_IC_CaptureCallback>:
 8002f0c:	4770      	bx	lr

08002f0e <HAL_TIM_PWM_PulseFinishedCallback>:
 8002f0e:	4770      	bx	lr

08002f10 <HAL_TIM_TriggerCallback>:
 8002f10:	4770      	bx	lr

08002f12 <HAL_TIM_IRQHandler>:
  if (__HAL_TIM_GET_FLAG(htim, TIM_FLAG_CC1) != RESET)
 8002f12:	6803      	ldr	r3, [r0, #0]
{
 8002f14:	b510      	push	{r4, lr}
  if (__HAL_TIM_GET_FLAG(htim, TIM_FLAG_CC1) != RESET)
 8002f16:	691a      	ldr	r2, [r3, #16]
{
 8002f18:	4604      	mov	r4, r0
  if (__HAL_TIM_GET_FLAG(htim, TIM_FLAG_CC1) != RESET)
 8002f1a:	0791      	lsls	r1, r2, #30
 8002f1c:	d50e      	bpl.n	8002f3c <HAL_TIM_IRQHandler+0x2a>
    if (__HAL_TIM_GET_IT_SOURCE(htim, TIM_IT_CC1) != RESET)
 8002f1e:	68da      	ldr	r2, [r3, #12]
 8002f20:	0792      	lsls	r2, r2, #30
 8002f22:	d50b      	bpl.n	8002f3c <HAL_TIM_IRQHandler+0x2a>
        __HAL_TIM_CLEAR_IT(htim, TIM_IT_CC1);
 8002f24:	f06f 0202 	mvn.w	r2, #2
 8002f28:	611a      	str	r2, [r3, #16]
        htim->Channel = HAL_TIM_ACTIVE_CHANNEL_1;
 8002f2a:	2201      	movs	r2, #1
        if ((htim->Instance->CCMR1 & TIM_CCMR1_CC1S) != 0x00U)
 8002f2c:	699b      	ldr	r3, [r3, #24]
        htim->Channel = HAL_TIM_ACTIVE_CHANNEL_1;
 8002f2e:	7702      	strb	r2, [r0, #28]
        if ((htim->Instance->CCMR1 & TIM_CCMR1_CC1S) != 0x00U)
 8002f30:	079b      	lsls	r3, r3, #30
 8002f32:	d077      	beq.n	8003024 <HAL_TIM_IRQHandler+0x112>
          HAL_TIM_IC_CaptureCallback(htim);
 8002f34:	f7ff ffea 	bl	8002f0c <HAL_TIM_IC_CaptureCallback>
        htim->Channel = HAL_TIM_ACTIVE_CHANNEL_CLEARED;
 8002f38:	2300      	movs	r3, #0
 8002f3a:	7723      	strb	r3, [r4, #28]
  if (__HAL_TIM_GET_FLAG(htim, TIM_FLAG_CC2) != RESET)
 8002f3c:	6823      	ldr	r3, [r4, #0]
 8002f3e:	691a      	ldr	r2, [r3, #16]
 8002f40:	0750      	lsls	r0, r2, #29
 8002f42:	d510      	bpl.n	8002f66 <HAL_TIM_IRQHandler+0x54>
    if (__HAL_TIM_GET_IT_SOURCE(htim, TIM_IT_CC2) != RESET)
 8002f44:	68da      	ldr	r2, [r3, #12]
 8002f46:	0751      	lsls	r1, r2, #29
 8002f48:	d50d      	bpl.n	8002f66 <HAL_TIM_IRQHandler+0x54>
      __HAL_TIM_CLEAR_IT(htim, TIM_IT_CC2);
 8002f4a:	f06f 0204 	mvn.w	r2, #4
 8002f4e:	611a      	str	r2, [r3, #16]
      htim->Channel = HAL_TIM_ACTIVE_CHANNEL_2;
 8002f50:	2202      	movs	r2, #2
      if ((htim->Instance->CCMR1 & TIM_CCMR1_CC2S) != 0x00U)
 8002f52:	699b      	ldr	r3, [r3, #24]
      htim->Channel = HAL_TIM_ACTIVE_CHANNEL_2;
 8002f54:	7722      	strb	r2, [r4, #28]
      if ((htim->Instance->CCMR1 & TIM_CCMR1_CC2S) != 0x00U)
 8002f56:	f413 7f40 	tst.w	r3, #768	; 0x300
        HAL_TIM_IC_CaptureCallback(htim);
 8002f5a:	4620      	mov	r0, r4
      if ((htim->Instance->CCMR1 & TIM_CCMR1_CC2S) != 0x00U)
 8002f5c:	d068      	beq.n	8003030 <HAL_TIM_IRQHandler+0x11e>
        HAL_TIM_IC_CaptureCallback(htim);
 8002f5e:	f7ff ffd5 	bl	8002f0c <HAL_TIM_IC_CaptureCallback>
      htim->Channel = HAL_TIM_ACTIVE_CHANNEL_CLEARED;
 8002f62:	2300      	movs	r3, #0
 8002f64:	7723      	strb	r3, [r4, #28]
  if (__HAL_TIM_GET_FLAG(htim, TIM_FLAG_CC3) != RESET)
 8002f66:	6823      	ldr	r3, [r4, #0]
 8002f68:	691a      	ldr	r2, [r3, #16]
 8002f6a:	0712      	lsls	r2, r2, #28
 8002f6c:	d50f      	bpl.n	8002f8e <HAL_TIM_IRQHandler+0x7c>
    if (__HAL_TIM_GET_IT_SOURCE(htim, TIM_IT_CC3) != RESET)
 8002f6e:	68da      	ldr	r2, [r3, #12]
 8002f70:	0710      	lsls	r0, r2, #28
 8002f72:	d50c      	bpl.n	8002f8e <HAL_TIM_IRQHandler+0x7c>
      __HAL_TIM_CLEAR_IT(htim, TIM_IT_CC3);
 8002f74:	f06f 0208 	mvn.w	r2, #8
 8002f78:	611a      	str	r2, [r3, #16]
      htim->Channel = HAL_TIM_ACTIVE_CHANNEL_3;
 8002f7a:	2204      	movs	r2, #4
      if ((htim->Instance->CCMR2 & TIM_CCMR2_CC3S) != 0x00U)
 8002f7c:	69db      	ldr	r3, [r3, #28]
      htim->Channel = HAL_TIM_ACTIVE_CHANNEL_3;
 8002f7e:	7722      	strb	r2, [r4, #28]
      if ((htim->Instance->CCMR2 & TIM_CCMR2_CC3S) != 0x00U)
 8002f80:	0799      	lsls	r1, r3, #30
        HAL_TIM_IC_CaptureCallback(htim);
 8002f82:	4620      	mov	r0, r4
      if ((htim->Instance->CCMR2 & TIM_CCMR2_CC3S) != 0x00U)
 8002f84:	d05a      	beq.n	800303c <HAL_TIM_IRQHandler+0x12a>
        HAL_TIM_IC_CaptureCallback(htim);
 8002f86:	f7ff ffc1 	bl	8002f0c <HAL_TIM_IC_CaptureCallback>
      htim->Channel = HAL_TIM_ACTIVE_CHANNEL_CLEARED;
 8002f8a:	2300      	movs	r3, #0
 8002f8c:	7723      	strb	r3, [r4, #28]
  if (__HAL_TIM_GET_FLAG(htim, TIM_FLAG_CC4) != RESET)
 8002f8e:	6823      	ldr	r3, [r4, #0]
 8002f90:	691a      	ldr	r2, [r3, #16]
 8002f92:	06d2      	lsls	r2, r2, #27
 8002f94:	d510      	bpl.n	8002fb8 <HAL_TIM_IRQHandler+0xa6>
    if (__HAL_TIM_GET_IT_SOURCE(htim, TIM_IT_CC4) != RESET)
 8002f96:	68da      	ldr	r2, [r3, #12]
 8002f98:	06d0      	lsls	r0, r2, #27
 8002f9a:	d50d      	bpl.n	8002fb8 <HAL_TIM_IRQHandler+0xa6>
      __HAL_TIM_CLEAR_IT(htim, TIM_IT_CC4);
 8002f9c:	f06f 0210 	mvn.w	r2, #16
 8002fa0:	611a      	str	r2, [r3, #16]
      htim->Channel = HAL_TIM_ACTIVE_CHANNEL_4;
 8002fa2:	2208      	movs	r2, #8
      if ((htim->Instance->CCMR2 & TIM_CCMR2_CC4S) != 0x00U)
 8002fa4:	69db      	ldr	r3, [r3, #28]
      htim->Channel = HAL_TIM_ACTIVE_CHANNEL_4;
 8002fa6:	7722      	strb	r2, [r4, #28]
      if ((htim->Instance->CCMR2 & TIM_CCMR2_CC4S) != 0x00U)
 8002fa8:	f413 7f40 	tst.w	r3, #768	; 0x300
        HAL_TIM_IC_CaptureCallback(htim);
 8002fac:	4620      	mov	r0, r4
      if ((htim->Instance->CCMR2 & TIM_CCMR2_CC4S) != 0x00U)
 8002fae:	d04b      	beq.n	8003048 <HAL_TIM_IRQHandler+0x136>
        HAL_TIM_IC_CaptureCallback(htim);
 8002fb0:	f7ff ffac 	bl	8002f0c <HAL_TIM_IC_CaptureCallback>
      htim->Channel = HAL_TIM_ACTIVE_CHANNEL_CLEARED;
 8002fb4:	2300      	movs	r3, #0
 8002fb6:	7723      	strb	r3, [r4, #28]
  if (__HAL_TIM_GET_FLAG(htim, TIM_FLAG_UPDATE) != RESET)
 8002fb8:	6823      	ldr	r3, [r4, #0]
 8002fba:	691a      	ldr	r2, [r3, #16]
 8002fbc:	07d1      	lsls	r1, r2, #31
 8002fbe:	d508      	bpl.n	8002fd2 <HAL_TIM_IRQHandler+0xc0>
    if (__HAL_TIM_GET_IT_SOURCE(htim, TIM_IT_UPDATE) != RESET)
 8002fc0:	68da      	ldr	r2, [r3, #12]
 8002fc2:	07d2      	lsls	r2, r2, #31
 8002fc4:	d505      	bpl.n	8002fd2 <HAL_TIM_IRQHandler+0xc0>
      __HAL_TIM_CLEAR_IT(htim, TIM_IT_UPDATE);
 8002fc6:	f06f 0201 	mvn.w	r2, #1
      HAL_TIM_PeriodElapsedCallback(htim);
 8002fca:	4620      	mov	r0, r4
      __HAL_TIM_CLEAR_IT(htim, TIM_IT_UPDATE);
 8002fcc:	611a      	str	r2, [r3, #16]
      HAL_TIM_PeriodElapsedCallback(htim);
 8002fce:	f000 fe39 	bl	8003c44 <HAL_TIM_PeriodElapsedCallback>
  if (__HAL_TIM_GET_FLAG(htim, TIM_FLAG_BREAK) != RESET)
 8002fd2:	6823      	ldr	r3, [r4, #0]
 8002fd4:	691a      	ldr	r2, [r3, #16]
 8002fd6:	0610      	lsls	r0, r2, #24
 8002fd8:	d508      	bpl.n	8002fec <HAL_TIM_IRQHandler+0xda>
    if (__HAL_TIM_GET_IT_SOURCE(htim, TIM_IT_BREAK) != RESET)
 8002fda:	68da      	ldr	r2, [r3, #12]
 8002fdc:	0611      	lsls	r1, r2, #24
 8002fde:	d505      	bpl.n	8002fec <HAL_TIM_IRQHandler+0xda>
      __HAL_TIM_CLEAR_IT(htim, TIM_IT_BREAK);
 8002fe0:	f06f 0280 	mvn.w	r2, #128	; 0x80
      HAL_TIMEx_BreakCallback(htim);
 8002fe4:	4620      	mov	r0, r4
      __HAL_TIM_CLEAR_IT(htim, TIM_IT_BREAK);
 8002fe6:	611a      	str	r2, [r3, #16]
      HAL_TIMEx_BreakCallback(htim);
 8002fe8:	f000 f906 	bl	80031f8 <HAL_TIMEx_BreakCallback>
  if (__HAL_TIM_GET_FLAG(htim, TIM_FLAG_TRIGGER) != RESET)
 8002fec:	6823      	ldr	r3, [r4, #0]
 8002fee:	691a      	ldr	r2, [r3, #16]
 8002ff0:	0652      	lsls	r2, r2, #25
 8002ff2:	d508      	bpl.n	8003006 <HAL_TIM_IRQHandler+0xf4>
    if (__HAL_TIM_GET_IT_SOURCE(htim, TIM_IT_TRIGGER) != RESET)
 8002ff4:	68da      	ldr	r2, [r3, #12]
 8002ff6:	0650      	lsls	r0, r2, #25
 8002ff8:	d505      	bpl.n	8003006 <HAL_TIM_IRQHandler+0xf4>
      __HAL_TIM_CLEAR_IT(htim, TIM_IT_TRIGGER);
 8002ffa:	f06f 0240 	mvn.w	r2, #64	; 0x40
      HAL_TIM_TriggerCallback(htim);
 8002ffe:	4620      	mov	r0, r4
      __HAL_TIM_CLEAR_IT(htim, TIM_IT_TRIGGER);
 8003000:	611a      	str	r2, [r3, #16]
      HAL_TIM_TriggerCallback(htim);
 8003002:	f7ff ff85 	bl	8002f10 <HAL_TIM_TriggerCallback>
  if (__HAL_TIM_GET_FLAG(htim, TIM_FLAG_COM) != RESET)
 8003006:	6823      	ldr	r3, [r4, #0]
 8003008:	691a      	ldr	r2, [r3, #16]
 800300a:	0691      	lsls	r1, r2, #26
 800300c:	d522      	bpl.n	8003054 <HAL_TIM_IRQHandler+0x142>
    if (__HAL_TIM_GET_IT_SOURCE(htim, TIM_IT_COM) != RESET)
 800300e:	68da      	ldr	r2, [r3, #12]
 8003010:	0692      	lsls	r2, r2, #26
 8003012:	d51f      	bpl.n	8003054 <HAL_TIM_IRQHandler+0x142>
      __HAL_TIM_CLEAR_IT(htim, TIM_FLAG_COM);
 8003014:	f06f 0220 	mvn.w	r2, #32
      HAL_TIMEx_CommutCallback(htim);
 8003018:	4620      	mov	r0, r4
}
 800301a:	e8bd 4010 	ldmia.w	sp!, {r4, lr}
      __HAL_TIM_CLEAR_IT(htim, TIM_FLAG_COM);
 800301e:	611a      	str	r2, [r3, #16]
      HAL_TIMEx_CommutCallback(htim);
 8003020:	f000 b8e9 	b.w	80031f6 <HAL_TIMEx_CommutCallback>
          HAL_TIM_OC_DelayElapsedCallback(htim);
 8003024:	f7ff ff71 	bl	8002f0a <HAL_TIM_OC_DelayElapsedCallback>
          HAL_TIM_PWM_PulseFinishedCallback(htim);
 8003028:	4620      	mov	r0, r4
 800302a:	f7ff ff70 	bl	8002f0e <HAL_TIM_PWM_PulseFinishedCallback>
 800302e:	e783      	b.n	8002f38 <HAL_TIM_IRQHandler+0x26>
        HAL_TIM_OC_DelayElapsedCallback(htim);
 8003030:	f7ff ff6b 	bl	8002f0a <HAL_TIM_OC_DelayElapsedCallback>
        HAL_TIM_PWM_PulseFinishedCallback(htim);
 8003034:	4620      	mov	r0, r4
 8003036:	f7ff ff6a 	bl	8002f0e <HAL_TIM_PWM_PulseFinishedCallback>
 800303a:	e792      	b.n	8002f62 <HAL_TIM_IRQHandler+0x50>
        HAL_TIM_OC_DelayElapsedCallback(htim);
 800303c:	f7ff ff65 	bl	8002f0a <HAL_TIM_OC_DelayElapsedCallback>
        HAL_TIM_PWM_PulseFinishedCallback(htim);
 8003040:	4620      	mov	r0, r4
 8003042:	f7ff ff64 	bl	8002f0e <HAL_TIM_PWM_PulseFinishedCallback>
 8003046:	e7a0      	b.n	8002f8a <HAL_TIM_IRQHandler+0x78>
        HAL_TIM_OC_DelayElapsedCallback(htim);
 8003048:	f7ff ff5f 	bl	8002f0a <HAL_TIM_OC_DelayElapsedCallback>
        HAL_TIM_PWM_PulseFinishedCallback(htim);
 800304c:	4620      	mov	r0, r4
 800304e:	f7ff ff5e 	bl	8002f0e <HAL_TIM_PWM_PulseFinishedCallback>
 8003052:	e7af      	b.n	8002fb4 <HAL_TIM_IRQHandler+0xa2>
 8003054:	bd10      	pop	{r4, pc}
	...

08003058 <TIM_Base_SetConfig>:
  if (IS_TIM_COUNTER_MODE_SELECT_INSTANCE(TIMx))
 8003058:	4a24      	ldr	r2, [pc, #144]	; (80030ec <TIM_Base_SetConfig+0x94>)
  tmpcr1 = TIMx->CR1;
 800305a:	6803      	ldr	r3, [r0, #0]
  if (IS_TIM_COUNTER_MODE_SELECT_INSTANCE(TIMx))
 800305c:	4290      	cmp	r0, r2
 800305e:	d012      	beq.n	8003086 <TIM_Base_SetConfig+0x2e>
 8003060:	f502 6200 	add.w	r2, r2, #2048	; 0x800
 8003064:	4290      	cmp	r0, r2
 8003066:	d00e      	beq.n	8003086 <TIM_Base_SetConfig+0x2e>
 8003068:	f1b0 4f80 	cmp.w	r0, #1073741824	; 0x40000000
 800306c:	d00b      	beq.n	8003086 <TIM_Base_SetConfig+0x2e>
 800306e:	f5a2 3298 	sub.w	r2, r2, #77824	; 0x13000
 8003072:	4290      	cmp	r0, r2
 8003074:	d007      	beq.n	8003086 <TIM_Base_SetConfig+0x2e>
 8003076:	f502 6280 	add.w	r2, r2, #1024	; 0x400
 800307a:	4290      	cmp	r0, r2
 800307c:	d003      	beq.n	8003086 <TIM_Base_SetConfig+0x2e>
 800307e:	f502 6280 	add.w	r2, r2, #1024	; 0x400
 8003082:	4290      	cmp	r0, r2
 8003084:	d11d      	bne.n	80030c2 <TIM_Base_SetConfig+0x6a>
    tmpcr1 |= Structure->CounterMode;
 8003086:	684a      	ldr	r2, [r1, #4]
    tmpcr1 &= ~(TIM_CR1_DIR | TIM_CR1_CMS);
 8003088:	f023 0370 	bic.w	r3, r3, #112	; 0x70
    tmpcr1 |= Structure->CounterMode;
 800308c:	4313      	orrs	r3, r2
  if (IS_TIM_CLOCK_DIVISION_INSTANCE(TIMx))
 800308e:	4a17      	ldr	r2, [pc, #92]	; (80030ec <TIM_Base_SetConfig+0x94>)
 8003090:	4290      	cmp	r0, r2
 8003092:	d012      	beq.n	80030ba <TIM_Base_SetConfig+0x62>
 8003094:	f502 6200 	add.w	r2, r2, #2048	; 0x800
 8003098:	4290      	cmp	r0, r2
 800309a:	d00e      	beq.n	80030ba <TIM_Base_SetConfig+0x62>
 800309c:	f1b0 4f80 	cmp.w	r0, #1073741824	; 0x40000000
 80030a0:	d00b      	beq.n	80030ba <TIM_Base_SetConfig+0x62>
 80030a2:	f5a2 3298 	sub.w	r2, r2, #77824	; 0x13000
 80030a6:	4290      	cmp	r0, r2
 80030a8:	d007      	beq.n	80030ba <TIM_Base_SetConfig+0x62>
 80030aa:	f502 6280 	add.w	r2, r2, #1024	; 0x400
 80030ae:	4290      	cmp	r0, r2
 80030b0:	d003      	beq.n	80030ba <TIM_Base_SetConfig+0x62>
 80030b2:	f502 6280 	add.w	r2, r2, #1024	; 0x400
 80030b6:	4290      	cmp	r0, r2
 80030b8:	d103      	bne.n	80030c2 <TIM_Base_SetConfig+0x6a>
    tmpcr1 |= (uint32_t)Structure->ClockDivision;
 80030ba:	68ca      	ldr	r2, [r1, #12]
    tmpcr1 &= ~TIM_CR1_CKD;
 80030bc:	f423 7340 	bic.w	r3, r3, #768	; 0x300
    tmpcr1 |= (uint32_t)Structure->ClockDivision;
 80030c0:	4313      	orrs	r3, r2
  MODIFY_REG(tmpcr1, TIM_CR1_ARPE, Structure->AutoReloadPreload);
 80030c2:	694a      	ldr	r2, [r1, #20]
 80030c4:	f023 0380 	bic.w	r3, r3, #128	; 0x80
 80030c8:	4313      	orrs	r3, r2
  TIMx->CR1 = tmpcr1;
 80030ca:	6003      	str	r3, [r0, #0]
  TIMx->ARR = (uint32_t)Structure->Period ;
 80030cc:	688b      	ldr	r3, [r1, #8]
 80030ce:	62c3      	str	r3, [r0, #44]	; 0x2c
  TIMx->PSC = Structure->Prescaler;
 80030d0:	680b      	ldr	r3, [r1, #0]
 80030d2:	6283      	str	r3, [r0, #40]	; 0x28
  if (IS_TIM_REPETITION_COUNTER_INSTANCE(TIMx))
 80030d4:	4b05      	ldr	r3, [pc, #20]	; (80030ec <TIM_Base_SetConfig+0x94>)
 80030d6:	4298      	cmp	r0, r3
 80030d8:	d003      	beq.n	80030e2 <TIM_Base_SetConfig+0x8a>
 80030da:	f503 6300 	add.w	r3, r3, #2048	; 0x800
 80030de:	4298      	cmp	r0, r3
 80030e0:	d101      	bne.n	80030e6 <TIM_Base_SetConfig+0x8e>
    TIMx->RCR = Structure->RepetitionCounter;
 80030e2:	690b      	ldr	r3, [r1, #16]
 80030e4:	6303      	str	r3, [r0, #48]	; 0x30
  TIMx->EGR = TIM_EGR_UG;
 80030e6:	2301      	movs	r3, #1
 80030e8:	6143      	str	r3, [r0, #20]
 80030ea:	4770      	bx	lr
 80030ec:	40012c00 	.word	0x40012c00

080030f0 <HAL_TIM_Base_Init>:
{
 80030f0:	b510      	push	{r4, lr}
  if (htim == NULL)
 80030f2:	4604      	mov	r4, r0
 80030f4:	b1a0      	cbz	r0, 8003120 <HAL_TIM_Base_Init+0x30>
  if (htim->State == HAL_TIM_STATE_RESET)
 80030f6:	f890 303d 	ldrb.w	r3, [r0, #61]	; 0x3d
 80030fa:	f003 02ff 	and.w	r2, r3, #255	; 0xff
 80030fe:	b91b      	cbnz	r3, 8003108 <HAL_TIM_Base_Init+0x18>
    htim->Lock = HAL_UNLOCKED;
 8003100:	f880 203c 	strb.w	r2, [r0, #60]	; 0x3c
    HAL_TIM_Base_MspInit(htim);
 8003104:	f002 fa72 	bl	80055ec <HAL_TIM_Base_MspInit>
  htim->State = HAL_TIM_STATE_BUSY;
 8003108:	2302      	movs	r3, #2
  TIM_Base_SetConfig(htim->Instance, &htim->Init);
 800310a:	6820      	ldr	r0, [r4, #0]
  htim->State = HAL_TIM_STATE_BUSY;
 800310c:	f884 303d 	strb.w	r3, [r4, #61]	; 0x3d
  TIM_Base_SetConfig(htim->Instance, &htim->Init);
 8003110:	1d21      	adds	r1, r4, #4
 8003112:	f7ff ffa1 	bl	8003058 <TIM_Base_SetConfig>
  htim->State = HAL_TIM_STATE_READY;
 8003116:	2301      	movs	r3, #1
  return HAL_OK;
 8003118:	2000      	movs	r0, #0
  htim->State = HAL_TIM_STATE_READY;
 800311a:	f884 303d 	strb.w	r3, [r4, #61]	; 0x3d
  return HAL_OK;
 800311e:	bd10      	pop	{r4, pc}
    return HAL_ERROR;
 8003120:	2001      	movs	r0, #1
}
 8003122:	bd10      	pop	{r4, pc}

08003124 <HAL_TIM_Encoder_Init>:
{
 8003124:	b5f8      	push	{r3, r4, r5, r6, r7, lr}
 8003126:	460c      	mov	r4, r1
  if (htim == NULL)
 8003128:	4605      	mov	r5, r0
 800312a:	2800      	cmp	r0, #0
 800312c:	d043      	beq.n	80031b6 <HAL_TIM_Encoder_Init+0x92>
  if (htim->State == HAL_TIM_STATE_RESET)
 800312e:	f890 303d 	ldrb.w	r3, [r0, #61]	; 0x3d
 8003132:	f003 02ff 	and.w	r2, r3, #255	; 0xff
 8003136:	b91b      	cbnz	r3, 8003140 <HAL_TIM_Encoder_Init+0x1c>
    htim->Lock = HAL_UNLOCKED;
 8003138:	f880 203c 	strb.w	r2, [r0, #60]	; 0x3c
    HAL_TIM_Encoder_MspInit(htim);
 800313c:	f002 fa26 	bl	800558c <HAL_TIM_Encoder_MspInit>
  htim->Instance->SMCR &= ~(TIM_SMCR_SMS | TIM_SMCR_ECE);
 8003140:	4629      	mov	r1, r5
  htim->State = HAL_TIM_STATE_BUSY;
 8003142:	2302      	movs	r3, #2
  htim->Instance->SMCR &= ~(TIM_SMCR_SMS | TIM_SMCR_ECE);
 8003144:	f851 0b04 	ldr.w	r0, [r1], #4
  htim->State = HAL_TIM_STATE_BUSY;
 8003148:	f885 303d 	strb.w	r3, [r5, #61]	; 0x3d
  htim->Instance->SMCR &= ~(TIM_SMCR_SMS | TIM_SMCR_ECE);
 800314c:	6883      	ldr	r3, [r0, #8]
 800314e:	f423 4380 	bic.w	r3, r3, #16384	; 0x4000
 8003152:	f023 0307 	bic.w	r3, r3, #7
 8003156:	6083      	str	r3, [r0, #8]
  TIM_Base_SetConfig(htim->Instance, &htim->Init);
 8003158:	f7ff ff7e 	bl	8003058 <TIM_Base_SetConfig>
  tmpsmcr = htim->Instance->SMCR;
 800315c:	6828      	ldr	r0, [r5, #0]
  tmpsmcr |= sConfig->EncoderMode;
 800315e:	6823      	ldr	r3, [r4, #0]
  tmpsmcr = htim->Instance->SMCR;
 8003160:	6886      	ldr	r6, [r0, #8]
  tmpccmr1 = htim->Instance->CCMR1;
 8003162:	6982      	ldr	r2, [r0, #24]
  tmpccmr1 |= (sConfig->IC1Selection | (sConfig->IC2Selection << 8U));
 8003164:	68a1      	ldr	r1, [r4, #8]
  tmpsmcr |= sConfig->EncoderMode;
 8003166:	431e      	orrs	r6, r3
  tmpccmr1 |= (sConfig->IC1Selection | (sConfig->IC2Selection << 8U));
 8003168:	69a3      	ldr	r3, [r4, #24]
  tmpccmr1 &= ~(TIM_CCMR1_CC1S | TIM_CCMR1_CC2S);
 800316a:	f422 7240 	bic.w	r2, r2, #768	; 0x300
 800316e:	f022 0203 	bic.w	r2, r2, #3
  tmpccmr1 |= (sConfig->IC1Selection | (sConfig->IC2Selection << 8U));
 8003172:	ea41 2303 	orr.w	r3, r1, r3, lsl #8
 8003176:	4313      	orrs	r3, r2
  tmpccmr1 &= ~(TIM_CCMR1_IC1F | TIM_CCMR1_IC2F);
 8003178:	f423 427c 	bic.w	r2, r3, #64512	; 0xfc00
  tmpccmr1 |= (sConfig->IC1Filter << 4U) | (sConfig->IC2Filter << 12U);
 800317c:	6923      	ldr	r3, [r4, #16]
  tmpccmr1 |= sConfig->IC1Prescaler | (sConfig->IC2Prescaler << 8U);
 800317e:	69e1      	ldr	r1, [r4, #28]
  tmpccmr1 |= (sConfig->IC1Filter << 4U) | (sConfig->IC2Filter << 12U);
 8003180:	011b      	lsls	r3, r3, #4
 8003182:	ea43 2301 	orr.w	r3, r3, r1, lsl #8
 8003186:	68e1      	ldr	r1, [r4, #12]
  tmpccer = htim->Instance->CCER;
 8003188:	6a07      	ldr	r7, [r0, #32]
  tmpccmr1 |= (sConfig->IC1Filter << 4U) | (sConfig->IC2Filter << 12U);
 800318a:	430b      	orrs	r3, r1
 800318c:	6a21      	ldr	r1, [r4, #32]
  tmpccmr1 &= ~(TIM_CCMR1_IC1F | TIM_CCMR1_IC2F);
 800318e:	f022 02fc 	bic.w	r2, r2, #252	; 0xfc
  tmpccmr1 |= (sConfig->IC1Filter << 4U) | (sConfig->IC2Filter << 12U);
 8003192:	ea43 3301 	orr.w	r3, r3, r1, lsl #12
 8003196:	4313      	orrs	r3, r2
  tmpccer |= sConfig->IC1Polarity | (sConfig->IC2Polarity << 4U);
 8003198:	6961      	ldr	r1, [r4, #20]
  tmpccer &= ~(TIM_CCER_CC1P | TIM_CCER_CC2P);
 800319a:	f027 0222 	bic.w	r2, r7, #34	; 0x22
  tmpccer |= sConfig->IC1Polarity | (sConfig->IC2Polarity << 4U);
 800319e:	6867      	ldr	r7, [r4, #4]
  htim->Instance->SMCR = tmpsmcr;
 80031a0:	6086      	str	r6, [r0, #8]
  htim->Instance->CCMR1 = tmpccmr1;
 80031a2:	6183      	str	r3, [r0, #24]
  htim->State = HAL_TIM_STATE_READY;
 80031a4:	2301      	movs	r3, #1
  tmpccer |= sConfig->IC1Polarity | (sConfig->IC2Polarity << 4U);
 80031a6:	ea47 1701 	orr.w	r7, r7, r1, lsl #4
 80031aa:	4317      	orrs	r7, r2
  htim->Instance->CCER = tmpccer;
 80031ac:	6207      	str	r7, [r0, #32]
  htim->State = HAL_TIM_STATE_READY;
 80031ae:	f885 303d 	strb.w	r3, [r5, #61]	; 0x3d
  return HAL_OK;
 80031b2:	2000      	movs	r0, #0
 80031b4:	bdf8      	pop	{r3, r4, r5, r6, r7, pc}
    return HAL_ERROR;
 80031b6:	2001      	movs	r0, #1
}
 80031b8:	bdf8      	pop	{r3, r4, r5, r6, r7, pc}

080031ba <HAL_TIMEx_MasterConfigSynchronization>:
  assert_param(IS_TIM_SYNCHRO_INSTANCE(htim->Instance));
  assert_param(IS_TIM_TRGO_SOURCE(sMasterConfig->MasterOutputTrigger));
  assert_param(IS_TIM_MSM_STATE(sMasterConfig->MasterSlaveMode));

  /* Check input state */
  __HAL_LOCK(htim);
 80031ba:	f890 303c 	ldrb.w	r3, [r0, #60]	; 0x3c
{
 80031be:	b530      	push	{r4, r5, lr}
  __HAL_LOCK(htim);
 80031c0:	2b01      	cmp	r3, #1
 80031c2:	f04f 0302 	mov.w	r3, #2
 80031c6:	d014      	beq.n	80031f2 <HAL_TIMEx_MasterConfigSynchronization+0x38>

  /* Change the handler state */
  htim->State = HAL_TIM_STATE_BUSY;

  /* Get the TIMx CR2 register value */
  tmpcr2 = htim->Instance->CR2;
 80031c8:	6804      	ldr	r4, [r0, #0]
  htim->State = HAL_TIM_STATE_BUSY;
 80031ca:	f880 303d 	strb.w	r3, [r0, #61]	; 0x3d
  tmpcr2 = htim->Instance->CR2;
 80031ce:	6862      	ldr	r2, [r4, #4]

  /* Get the TIMx SMCR register value */
  tmpsmcr = htim->Instance->SMCR;
 80031d0:	68a3      	ldr	r3, [r4, #8]

  /* Reset the MMS Bits */
  tmpcr2 &= ~TIM_CR2_MMS;
  /* Select the TRGO source */
  tmpcr2 |=  sMasterConfig->MasterOutputTrigger;
 80031d2:	680d      	ldr	r5, [r1, #0]

  /* Reset the MSM Bit */
  tmpsmcr &= ~TIM_SMCR_MSM;
  /* Set master mode */
  tmpsmcr |= sMasterConfig->MasterSlaveMode;
 80031d4:	6849      	ldr	r1, [r1, #4]
  tmpcr2 &= ~TIM_CR2_MMS;
 80031d6:	f022 0270 	bic.w	r2, r2, #112	; 0x70
  tmpsmcr &= ~TIM_SMCR_MSM;
 80031da:	f023 0380 	bic.w	r3, r3, #128	; 0x80
  tmpsmcr |= sMasterConfig->MasterSlaveMode;
 80031de:	430b      	orrs	r3, r1
  tmpcr2 |=  sMasterConfig->MasterOutputTrigger;
 80031e0:	432a      	orrs	r2, r5

  /* Update TIMx CR2 */
  htim->Instance->CR2 = tmpcr2;
 80031e2:	6062      	str	r2, [r4, #4]

  /* Update TIMx SMCR */
  htim->Instance->SMCR = tmpsmcr;
 80031e4:	60a3      	str	r3, [r4, #8]

  /* Change the htim state */
  htim->State = HAL_TIM_STATE_READY;
 80031e6:	2301      	movs	r3, #1
 80031e8:	f880 303d 	strb.w	r3, [r0, #61]	; 0x3d

  __HAL_UNLOCK(htim);
 80031ec:	2300      	movs	r3, #0
 80031ee:	f880 303c 	strb.w	r3, [r0, #60]	; 0x3c
  __HAL_LOCK(htim);
 80031f2:	4618      	mov	r0, r3

  return HAL_OK;
}
 80031f4:	bd30      	pop	{r4, r5, pc}

080031f6 <HAL_TIMEx_CommutCallback>:
 80031f6:	4770      	bx	lr

080031f8 <HAL_TIMEx_BreakCallback>:
  * @brief  Hall Break detection callback in non-blocking mode
  * @param  htim TIM handle
  * @retval None
  */
__weak void HAL_TIMEx_BreakCallback(TIM_HandleTypeDef *htim)
{
 80031f8:	4770      	bx	lr
	...

080031fc <UART_SetConfig>:
  * @param  huart  Pointer to a UART_HandleTypeDef structure that contains
  *                the configuration information for the specified UART module.
  * @retval None
  */
static void UART_SetConfig(UART_HandleTypeDef *huart)
{
 80031fc:	b538      	push	{r3, r4, r5, lr}
 80031fe:	4605      	mov	r5, r0
  assert_param(IS_UART_MODE(huart->Init.Mode));

  /*-------------------------- USART CR2 Configuration -----------------------*/
  /* Configure the UART Stop Bits: Set STOP[13:12] bits
     according to huart->Init.StopBits value */
  MODIFY_REG(huart->Instance->CR2, USART_CR2_STOP, huart->Init.StopBits);
 8003200:	6803      	ldr	r3, [r0, #0]
 8003202:	68c1      	ldr	r1, [r0, #12]
 8003204:	691a      	ldr	r2, [r3, #16]
 8003206:	2419      	movs	r4, #25
 8003208:	f422 5240 	bic.w	r2, r2, #12288	; 0x3000
 800320c:	430a      	orrs	r2, r1
 800320e:	611a      	str	r2, [r3, #16]
  tmpreg = (uint32_t)huart->Init.WordLength | huart->Init.Parity | huart->Init.Mode | huart->Init.OverSampling;
  MODIFY_REG(huart->Instance->CR1,
             (uint32_t)(USART_CR1_M | USART_CR1_PCE | USART_CR1_PS | USART_CR1_TE | USART_CR1_RE | USART_CR1_OVER8),
             tmpreg);
#else
  tmpreg = (uint32_t)huart->Init.WordLength | huart->Init.Parity | huart->Init.Mode;
 8003210:	6882      	ldr	r2, [r0, #8]
 8003212:	6900      	ldr	r0, [r0, #16]
  MODIFY_REG(huart->Instance->CR1,
 8003214:	68d9      	ldr	r1, [r3, #12]
  tmpreg = (uint32_t)huart->Init.WordLength | huart->Init.Parity | huart->Init.Mode;
 8003216:	4302      	orrs	r2, r0
 8003218:	6968      	ldr	r0, [r5, #20]
  MODIFY_REG(huart->Instance->CR1,
 800321a:	f421 51b0 	bic.w	r1, r1, #5632	; 0x1600
 800321e:	f021 010c 	bic.w	r1, r1, #12
  tmpreg = (uint32_t)huart->Init.WordLength | huart->Init.Parity | huart->Init.Mode;
 8003222:	4302      	orrs	r2, r0
  MODIFY_REG(huart->Instance->CR1,
 8003224:	430a      	orrs	r2, r1
 8003226:	60da      	str	r2, [r3, #12]
             tmpreg);
#endif /* USART_CR1_OVER8 */

  /*-------------------------- USART CR3 Configuration -----------------------*/
  /* Configure the UART HFC: Set CTSE and RTSE bits according to huart->Init.HwFlowCtl value */
  MODIFY_REG(huart->Instance->CR3, (USART_CR3_RTSE | USART_CR3_CTSE), huart->Init.HwFlowCtl);
 8003228:	695a      	ldr	r2, [r3, #20]
 800322a:	69a9      	ldr	r1, [r5, #24]
 800322c:	f422 7240 	bic.w	r2, r2, #768	; 0x300
 8003230:	430a      	orrs	r2, r1
 8003232:	615a      	str	r2, [r3, #20]
      huart->Instance->BRR = UART_BRR_SAMPLING16(pclk, huart->Init.BaudRate);
    }
  }
#else
  /*-------------------------- USART BRR Configuration ---------------------*/
  if(huart->Instance == USART1)
 8003234:	4a0d      	ldr	r2, [pc, #52]	; (800326c <UART_SetConfig+0x70>)
 8003236:	4293      	cmp	r3, r2
 8003238:	d114      	bne.n	8003264 <UART_SetConfig+0x68>
  {
    pclk = HAL_RCC_GetPCLK2Freq();
 800323a:	f7ff fad1 	bl	80027e0 <HAL_RCC_GetPCLK2Freq>
    huart->Instance->BRR = UART_BRR_SAMPLING16(pclk, huart->Init.BaudRate);
  }
  else
  {
    pclk = HAL_RCC_GetPCLK1Freq();
    huart->Instance->BRR = UART_BRR_SAMPLING16(pclk, huart->Init.BaudRate);
 800323e:	4360      	muls	r0, r4
 8003240:	686c      	ldr	r4, [r5, #4]
 8003242:	2264      	movs	r2, #100	; 0x64
 8003244:	00a4      	lsls	r4, r4, #2
 8003246:	fbb0 f0f4 	udiv	r0, r0, r4
 800324a:	fbb0 f4f2 	udiv	r4, r0, r2
 800324e:	fb02 0314 	mls	r3, r2, r4, r0
 8003252:	011b      	lsls	r3, r3, #4
 8003254:	3332      	adds	r3, #50	; 0x32
 8003256:	fbb3 f3f2 	udiv	r3, r3, r2
 800325a:	6829      	ldr	r1, [r5, #0]
 800325c:	eb03 1304 	add.w	r3, r3, r4, lsl #4
 8003260:	608b      	str	r3, [r1, #8]
 8003262:	bd38      	pop	{r3, r4, r5, pc}
    pclk = HAL_RCC_GetPCLK1Freq();
 8003264:	f7ff faac 	bl	80027c0 <HAL_RCC_GetPCLK1Freq>
 8003268:	e7e9      	b.n	800323e <UART_SetConfig+0x42>
 800326a:	bf00      	nop
 800326c:	40013800 	.word	0x40013800

08003270 <UART_WaitOnFlagUntilTimeout.constprop.3>:
static HAL_StatusTypeDef UART_WaitOnFlagUntilTimeout(UART_HandleTypeDef *huart, uint32_t Flag, FlagStatus Status, uint32_t Tickstart, uint32_t Timeout)
 8003270:	b5f8      	push	{r3, r4, r5, r6, r7, lr}
 8003272:	4604      	mov	r4, r0
 8003274:	460e      	mov	r6, r1
 8003276:	4617      	mov	r7, r2
 8003278:	461d      	mov	r5, r3
  while ((__HAL_UART_GET_FLAG(huart, Flag) ? SET : RESET) == Status)
 800327a:	6821      	ldr	r1, [r4, #0]
 800327c:	680b      	ldr	r3, [r1, #0]
 800327e:	ea36 0303 	bics.w	r3, r6, r3
 8003282:	d101      	bne.n	8003288 <UART_WaitOnFlagUntilTimeout.constprop.3+0x18>
  return HAL_OK;
 8003284:	2000      	movs	r0, #0
}
 8003286:	bdf8      	pop	{r3, r4, r5, r6, r7, pc}
    if (Timeout != HAL_MAX_DELAY)
 8003288:	1c6b      	adds	r3, r5, #1
 800328a:	d0f7      	beq.n	800327c <UART_WaitOnFlagUntilTimeout.constprop.3+0xc>
      if ((Timeout == 0U) || ((HAL_GetTick() - Tickstart) > Timeout))
 800328c:	b995      	cbnz	r5, 80032b4 <UART_WaitOnFlagUntilTimeout.constprop.3+0x44>
        CLEAR_BIT(huart->Instance->CR1, (USART_CR1_RXNEIE | USART_CR1_PEIE | USART_CR1_TXEIE));
 800328e:	6823      	ldr	r3, [r4, #0]
        __HAL_UNLOCK(huart);
 8003290:	2003      	movs	r0, #3
        CLEAR_BIT(huart->Instance->CR1, (USART_CR1_RXNEIE | USART_CR1_PEIE | USART_CR1_TXEIE));
 8003292:	68da      	ldr	r2, [r3, #12]
 8003294:	f422 72d0 	bic.w	r2, r2, #416	; 0x1a0
 8003298:	60da      	str	r2, [r3, #12]
        CLEAR_BIT(huart->Instance->CR3, USART_CR3_EIE);
 800329a:	695a      	ldr	r2, [r3, #20]
 800329c:	f022 0201 	bic.w	r2, r2, #1
 80032a0:	615a      	str	r2, [r3, #20]
        huart->gState  = HAL_UART_STATE_READY;
 80032a2:	2320      	movs	r3, #32
 80032a4:	f884 3039 	strb.w	r3, [r4, #57]	; 0x39
        huart->RxState = HAL_UART_STATE_READY;
 80032a8:	f884 303a 	strb.w	r3, [r4, #58]	; 0x3a
        __HAL_UNLOCK(huart);
 80032ac:	2300      	movs	r3, #0
 80032ae:	f884 3038 	strb.w	r3, [r4, #56]	; 0x38
 80032b2:	bdf8      	pop	{r3, r4, r5, r6, r7, pc}
      if ((Timeout == 0U) || ((HAL_GetTick() - Tickstart) > Timeout))
 80032b4:	f7fd fbec 	bl	8000a90 <HAL_GetTick>
 80032b8:	1bc0      	subs	r0, r0, r7
 80032ba:	4285      	cmp	r5, r0
 80032bc:	d2dd      	bcs.n	800327a <UART_WaitOnFlagUntilTimeout.constprop.3+0xa>
 80032be:	e7e6      	b.n	800328e <UART_WaitOnFlagUntilTimeout.constprop.3+0x1e>

080032c0 <HAL_UART_Init>:
{
 80032c0:	b510      	push	{r4, lr}
  if (huart == NULL)
 80032c2:	4604      	mov	r4, r0
 80032c4:	b340      	cbz	r0, 8003318 <HAL_UART_Init+0x58>
  if (huart->gState == HAL_UART_STATE_RESET)
 80032c6:	f890 3039 	ldrb.w	r3, [r0, #57]	; 0x39
 80032ca:	f003 02ff 	and.w	r2, r3, #255	; 0xff
 80032ce:	b91b      	cbnz	r3, 80032d8 <HAL_UART_Init+0x18>
    huart->Lock = HAL_UNLOCKED;
 80032d0:	f880 2038 	strb.w	r2, [r0, #56]	; 0x38
    HAL_UART_MspInit(huart);
 80032d4:	f002 f9a8 	bl	8005628 <HAL_UART_MspInit>
  huart->gState = HAL_UART_STATE_BUSY;
 80032d8:	2324      	movs	r3, #36	; 0x24
  __HAL_UART_DISABLE(huart);
 80032da:	6822      	ldr	r2, [r4, #0]
  huart->gState = HAL_UART_STATE_BUSY;
 80032dc:	f884 3039 	strb.w	r3, [r4, #57]	; 0x39
  __HAL_UART_DISABLE(huart);
 80032e0:	68d3      	ldr	r3, [r2, #12]
  UART_SetConfig(huart);
 80032e2:	4620      	mov	r0, r4
  __HAL_UART_DISABLE(huart);
 80032e4:	f423 5300 	bic.w	r3, r3, #8192	; 0x2000
 80032e8:	60d3      	str	r3, [r2, #12]
  UART_SetConfig(huart);
 80032ea:	f7ff ff87 	bl	80031fc <UART_SetConfig>
  CLEAR_BIT(huart->Instance->CR2, (USART_CR2_LINEN | USART_CR2_CLKEN));
 80032ee:	6823      	ldr	r3, [r4, #0]
  huart->ErrorCode = HAL_UART_ERROR_NONE;
 80032f0:	2000      	movs	r0, #0
  CLEAR_BIT(huart->Instance->CR2, (USART_CR2_LINEN | USART_CR2_CLKEN));
 80032f2:	691a      	ldr	r2, [r3, #16]
 80032f4:	f422 4290 	bic.w	r2, r2, #18432	; 0x4800
 80032f8:	611a      	str	r2, [r3, #16]
  CLEAR_BIT(huart->Instance->CR3, (USART_CR3_SCEN | USART_CR3_HDSEL | USART_CR3_IREN));
 80032fa:	695a      	ldr	r2, [r3, #20]
 80032fc:	f022 022a 	bic.w	r2, r2, #42	; 0x2a
 8003300:	615a      	str	r2, [r3, #20]
  __HAL_UART_ENABLE(huart);
 8003302:	68da      	ldr	r2, [r3, #12]
 8003304:	f442 5200 	orr.w	r2, r2, #8192	; 0x2000
 8003308:	60da      	str	r2, [r3, #12]
  huart->gState = HAL_UART_STATE_READY;
 800330a:	2320      	movs	r3, #32
  huart->ErrorCode = HAL_UART_ERROR_NONE;
 800330c:	63e0      	str	r0, [r4, #60]	; 0x3c
  huart->gState = HAL_UART_STATE_READY;
 800330e:	f884 3039 	strb.w	r3, [r4, #57]	; 0x39
  huart->RxState = HAL_UART_STATE_READY;
 8003312:	f884 303a 	strb.w	r3, [r4, #58]	; 0x3a
  return HAL_OK;
 8003316:	bd10      	pop	{r4, pc}
    return HAL_ERROR;
 8003318:	2001      	movs	r0, #1
}
 800331a:	bd10      	pop	{r4, pc}

0800331c <HAL_UART_Transmit>:
{
 800331c:	e92d 41f0 	stmdb	sp!, {r4, r5, r6, r7, r8, lr}
 8003320:	461f      	mov	r7, r3
  if (huart->gState == HAL_UART_STATE_READY)
 8003322:	f890 3039 	ldrb.w	r3, [r0, #57]	; 0x39
{
 8003326:	4604      	mov	r4, r0
  if (huart->gState == HAL_UART_STATE_READY)
 8003328:	2b20      	cmp	r3, #32
{
 800332a:	460d      	mov	r5, r1
 800332c:	4690      	mov	r8, r2
  if (huart->gState == HAL_UART_STATE_READY)
 800332e:	d14e      	bne.n	80033ce <HAL_UART_Transmit+0xb2>
    if ((pData == NULL) || (Size == 0U))
 8003330:	2900      	cmp	r1, #0
 8003332:	d049      	beq.n	80033c8 <HAL_UART_Transmit+0xac>
 8003334:	2a00      	cmp	r2, #0
 8003336:	d047      	beq.n	80033c8 <HAL_UART_Transmit+0xac>
    __HAL_LOCK(huart);
 8003338:	f890 3038 	ldrb.w	r3, [r0, #56]	; 0x38
 800333c:	2b01      	cmp	r3, #1
 800333e:	d046      	beq.n	80033ce <HAL_UART_Transmit+0xb2>
 8003340:	2301      	movs	r3, #1
 8003342:	f880 3038 	strb.w	r3, [r0, #56]	; 0x38
    huart->ErrorCode = HAL_UART_ERROR_NONE;
 8003346:	2300      	movs	r3, #0
 8003348:	63c3      	str	r3, [r0, #60]	; 0x3c
    huart->gState = HAL_UART_STATE_BUSY_TX;
 800334a:	2321      	movs	r3, #33	; 0x21
 800334c:	f880 3039 	strb.w	r3, [r0, #57]	; 0x39
    tickstart = HAL_GetTick();
 8003350:	f7fd fb9e 	bl	8000a90 <HAL_GetTick>
 8003354:	4606      	mov	r6, r0
    huart->TxXferSize = Size;
 8003356:	f8a4 8024 	strh.w	r8, [r4, #36]	; 0x24
    huart->TxXferCount = Size;
 800335a:	f8a4 8026 	strh.w	r8, [r4, #38]	; 0x26
    while (huart->TxXferCount > 0U)
 800335e:	8ce3      	ldrh	r3, [r4, #38]	; 0x26
 8003360:	b29b      	uxth	r3, r3
 8003362:	b96b      	cbnz	r3, 8003380 <HAL_UART_Transmit+0x64>
    if (UART_WaitOnFlagUntilTimeout(huart, UART_FLAG_TC, RESET, tickstart, Timeout) != HAL_OK)
 8003364:	463b      	mov	r3, r7
 8003366:	4632      	mov	r2, r6
 8003368:	2140      	movs	r1, #64	; 0x40
 800336a:	4620      	mov	r0, r4
 800336c:	f7ff ff80 	bl	8003270 <UART_WaitOnFlagUntilTimeout.constprop.3>
 8003370:	b9a8      	cbnz	r0, 800339e <HAL_UART_Transmit+0x82>
    huart->gState = HAL_UART_STATE_READY;
 8003372:	2320      	movs	r3, #32
    __HAL_UNLOCK(huart);
 8003374:	f884 0038 	strb.w	r0, [r4, #56]	; 0x38
    huart->gState = HAL_UART_STATE_READY;
 8003378:	f884 3039 	strb.w	r3, [r4, #57]	; 0x39
    return HAL_OK;
 800337c:	e8bd 81f0 	ldmia.w	sp!, {r4, r5, r6, r7, r8, pc}
      huart->TxXferCount--;
 8003380:	8ce3      	ldrh	r3, [r4, #38]	; 0x26
        if (UART_WaitOnFlagUntilTimeout(huart, UART_FLAG_TXE, RESET, tickstart, Timeout) != HAL_OK)
 8003382:	4632      	mov	r2, r6
      huart->TxXferCount--;
 8003384:	3b01      	subs	r3, #1
 8003386:	b29b      	uxth	r3, r3
 8003388:	84e3      	strh	r3, [r4, #38]	; 0x26
      if (huart->Init.WordLength == UART_WORDLENGTH_9B)
 800338a:	68a3      	ldr	r3, [r4, #8]
        if (UART_WaitOnFlagUntilTimeout(huart, UART_FLAG_TXE, RESET, tickstart, Timeout) != HAL_OK)
 800338c:	2180      	movs	r1, #128	; 0x80
      if (huart->Init.WordLength == UART_WORDLENGTH_9B)
 800338e:	f5b3 5f80 	cmp.w	r3, #4096	; 0x1000
        if (UART_WaitOnFlagUntilTimeout(huart, UART_FLAG_TXE, RESET, tickstart, Timeout) != HAL_OK)
 8003392:	4620      	mov	r0, r4
 8003394:	463b      	mov	r3, r7
      if (huart->Init.WordLength == UART_WORDLENGTH_9B)
 8003396:	d10e      	bne.n	80033b6 <HAL_UART_Transmit+0x9a>
        if (UART_WaitOnFlagUntilTimeout(huart, UART_FLAG_TXE, RESET, tickstart, Timeout) != HAL_OK)
 8003398:	f7ff ff6a 	bl	8003270 <UART_WaitOnFlagUntilTimeout.constprop.3>
 800339c:	b110      	cbz	r0, 80033a4 <HAL_UART_Transmit+0x88>
          return HAL_TIMEOUT;
 800339e:	2003      	movs	r0, #3
 80033a0:	e8bd 81f0 	ldmia.w	sp!, {r4, r5, r6, r7, r8, pc}
        huart->Instance->DR = (*tmp & (uint16_t)0x01FF);
 80033a4:	882b      	ldrh	r3, [r5, #0]
 80033a6:	6822      	ldr	r2, [r4, #0]
 80033a8:	f3c3 0308 	ubfx	r3, r3, #0, #9
 80033ac:	6053      	str	r3, [r2, #4]
        if (huart->Init.Parity == UART_PARITY_NONE)
 80033ae:	6923      	ldr	r3, [r4, #16]
 80033b0:	b943      	cbnz	r3, 80033c4 <HAL_UART_Transmit+0xa8>
          pData += 2U;
 80033b2:	3502      	adds	r5, #2
 80033b4:	e7d3      	b.n	800335e <HAL_UART_Transmit+0x42>
        if (UART_WaitOnFlagUntilTimeout(huart, UART_FLAG_TXE, RESET, tickstart, Timeout) != HAL_OK)
 80033b6:	f7ff ff5b 	bl	8003270 <UART_WaitOnFlagUntilTimeout.constprop.3>
 80033ba:	2800      	cmp	r0, #0
 80033bc:	d1ef      	bne.n	800339e <HAL_UART_Transmit+0x82>
        huart->Instance->DR = (*pData++ & (uint8_t)0xFF);
 80033be:	6823      	ldr	r3, [r4, #0]
 80033c0:	782a      	ldrb	r2, [r5, #0]
 80033c2:	605a      	str	r2, [r3, #4]
 80033c4:	3501      	adds	r5, #1
 80033c6:	e7ca      	b.n	800335e <HAL_UART_Transmit+0x42>
      return  HAL_ERROR;
 80033c8:	2001      	movs	r0, #1
 80033ca:	e8bd 81f0 	ldmia.w	sp!, {r4, r5, r6, r7, r8, pc}
    return HAL_BUSY;
 80033ce:	2002      	movs	r0, #2
}
 80033d0:	e8bd 81f0 	ldmia.w	sp!, {r4, r5, r6, r7, r8, pc}

080033d4 <MPU6050_SetDataRate>:
	/* Return OK */
	return MPU6050_Result_Ok;
}

MPU6050_Result MPU6050_SetDataRate(I2C_HandleTypeDef* I2Cx,MPU6050* DataStruct, uint8_t rate)
{
 80033d4:	b57f      	push	{r0, r1, r2, r3, r4, r5, r6, lr}
	uint8_t d[2];
	I2C_HandleTypeDef* Handle = I2Cx;
	uint8_t address = DataStruct->Address;
	/* Format array to send */
	d[0] = MPU6050_SMPLRT_DIV;
 80033d6:	2319      	movs	r3, #25
{
 80033d8:	4605      	mov	r5, r0
	d[1] = rate;

	/* Set data sample rate */
	while(HAL_I2C_Master_Transmit(Handle,(uint16_t)address,(uint8_t *)d,2,1000)!=HAL_OK);
 80033da:	f44f 767a 	mov.w	r6, #1000	; 0x3e8
	uint8_t address = DataStruct->Address;
 80033de:	780c      	ldrb	r4, [r1, #0]
	d[0] = MPU6050_SMPLRT_DIV;
 80033e0:	f88d 300c 	strb.w	r3, [sp, #12]
	d[1] = rate;
 80033e4:	f88d 200d 	strb.w	r2, [sp, #13]
	while(HAL_I2C_Master_Transmit(Handle,(uint16_t)address,(uint8_t *)d,2,1000)!=HAL_OK);
 80033e8:	b2a4      	uxth	r4, r4
 80033ea:	9600      	str	r6, [sp, #0]
 80033ec:	2302      	movs	r3, #2
 80033ee:	aa03      	add	r2, sp, #12
 80033f0:	4621      	mov	r1, r4
 80033f2:	4628      	mov	r0, r5
 80033f4:	f7fe fad2 	bl	800199c <HAL_I2C_Master_Transmit>
 80033f8:	2800      	cmp	r0, #0
 80033fa:	d1f6      	bne.n	80033ea <MPU6050_SetDataRate+0x16>
				return MPU6050_Result_Error;
	}*/

	/* Return OK */
	return MPU6050_Result_Ok;
}
 80033fc:	b004      	add	sp, #16
 80033fe:	bd70      	pop	{r4, r5, r6, pc}

08003400 <MPU6050_SetAccelerometer>:
MPU6050_Result MPU6050_SetAccelerometer(I2C_HandleTypeDef* I2Cx,MPU6050* DataStruct, MPU6050_Accelerometer AccelerometerSensitivity)
{
	uint8_t temp;
	I2C_HandleTypeDef* Handle = I2Cx;
	uint8_t address = DataStruct->Address;
	uint8_t regAdd =(uint8_t )MPU6050_ACCEL_CONFIG;
 8003400:	231c      	movs	r3, #28
{
 8003402:	e92d 43f0 	stmdb	sp!, {r4, r5, r6, r7, r8, r9, lr}
 8003406:	4607      	mov	r7, r0
 8003408:	460c      	mov	r4, r1
 800340a:	4616      	mov	r6, r2

	/* Config accelerometer */
	while(HAL_I2C_Master_Transmit(Handle, (uint16_t)address,&regAdd, 1, 1000) != HAL_OK);
 800340c:	f44f 797a 	mov.w	r9, #1000	; 0x3e8
{
 8003410:	b085      	sub	sp, #20
	uint8_t address = DataStruct->Address;
 8003412:	780d      	ldrb	r5, [r1, #0]
	uint8_t regAdd =(uint8_t )MPU6050_ACCEL_CONFIG;
 8003414:	f10d 0810 	add.w	r8, sp, #16
 8003418:	f808 3d01 	strb.w	r3, [r8, #-1]!
	while(HAL_I2C_Master_Transmit(Handle, (uint16_t)address,&regAdd, 1, 1000) != HAL_OK);
 800341c:	b2ad      	uxth	r5, r5
 800341e:	f8cd 9000 	str.w	r9, [sp]
 8003422:	2301      	movs	r3, #1
 8003424:	4642      	mov	r2, r8
 8003426:	4629      	mov	r1, r5
 8003428:	4638      	mov	r0, r7
 800342a:	f7fe fab7 	bl	800199c <HAL_I2C_Master_Transmit>
 800342e:	2800      	cmp	r0, #0
 8003430:	d1f5      	bne.n	800341e <MPU6050_SetAccelerometer+0x1e>
	/*{
				return MPU6050_Result_Error;
	}*/
	while(HAL_I2C_Master_Receive(Handle, (uint16_t)address, &temp, 1, 1000) != HAL_OK);
 8003432:	f44f 787a 	mov.w	r8, #1000	; 0x3e8
 8003436:	f8cd 8000 	str.w	r8, [sp]
 800343a:	2301      	movs	r3, #1
 800343c:	f10d 020e 	add.w	r2, sp, #14
 8003440:	4629      	mov	r1, r5
 8003442:	4638      	mov	r0, r7
 8003444:	f7fe fb78 	bl	8001b38 <HAL_I2C_Master_Receive>
 8003448:	2800      	cmp	r0, #0
 800344a:	d1f4      	bne.n	8003436 <MPU6050_SetAccelerometer+0x36>
	/*{
				return MPU6050_Result_Error;
	}*/
	temp = (temp & 0xE7) | (uint8_t)AccelerometerSensitivity << 3;
	while(HAL_I2C_Master_Transmit(Handle, (uint16_t)address,&temp, 1, 1000) != HAL_OK);
 800344c:	f44f 787a 	mov.w	r8, #1000	; 0x3e8
	temp = (temp & 0xE7) | (uint8_t)AccelerometerSensitivity << 3;
 8003450:	f89d 300e 	ldrb.w	r3, [sp, #14]
 8003454:	f023 0318 	bic.w	r3, r3, #24
 8003458:	ea43 03c6 	orr.w	r3, r3, r6, lsl #3
 800345c:	f88d 300e 	strb.w	r3, [sp, #14]
	while(HAL_I2C_Master_Transmit(Handle, (uint16_t)address,&temp, 1, 1000) != HAL_OK);
 8003460:	f8cd 8000 	str.w	r8, [sp]
 8003464:	2301      	movs	r3, #1
 8003466:	f10d 020e 	add.w	r2, sp, #14
 800346a:	4629      	mov	r1, r5
 800346c:	4638      	mov	r0, r7
 800346e:	f7fe fa95 	bl	800199c <HAL_I2C_Master_Transmit>
 8003472:	2800      	cmp	r0, #0
 8003474:	d1f4      	bne.n	8003460 <MPU6050_SetAccelerometer+0x60>
	/*{
				return MPU6050_Result_Error;
	}*/

	/* Set sensitivities for multiplying gyro and accelerometer data */
	switch (AccelerometerSensitivity) {
 8003476:	2e03      	cmp	r6, #3
 8003478:	d806      	bhi.n	8003488 <MPU6050_SetAccelerometer+0x88>
 800347a:	e8df f006 	tbb	[pc, r6]
 800347e:	0902      	.short	0x0902
 8003480:	0f0c      	.short	0x0f0c
		case MPU6050_Accelerometer_2G:
			DataStruct->Acce_Mult = (float)1 / MPU6050_ACCE_SENS_2;
 8003482:	f04f 5362 	mov.w	r3, #947912704	; 0x38800000
			break;
		case MPU6050_Accelerometer_8G:
			DataStruct->Acce_Mult = (float)1 / MPU6050_ACCE_SENS_8;
			break;
		case MPU6050_Accelerometer_16G:
			DataStruct->Acce_Mult = (float)1 / MPU6050_ACCE_SENS_16;
 8003486:	60a3      	str	r3, [r4, #8]
			break;
		}

	/* Return OK */
	return MPU6050_Result_Ok;
}
 8003488:	2000      	movs	r0, #0
 800348a:	b005      	add	sp, #20
 800348c:	e8bd 83f0 	ldmia.w	sp!, {r4, r5, r6, r7, r8, r9, pc}
			DataStruct->Acce_Mult = (float)1 / MPU6050_ACCE_SENS_4;
 8003490:	f04f 5364 	mov.w	r3, #956301312	; 0x39000000
 8003494:	e7f7      	b.n	8003486 <MPU6050_SetAccelerometer+0x86>
			DataStruct->Acce_Mult = (float)1 / MPU6050_ACCE_SENS_8;
 8003496:	f04f 5366 	mov.w	r3, #964689920	; 0x39800000
 800349a:	e7f4      	b.n	8003486 <MPU6050_SetAccelerometer+0x86>
			DataStruct->Acce_Mult = (float)1 / MPU6050_ACCE_SENS_16;
 800349c:	f04f 5368 	mov.w	r3, #973078528	; 0x3a000000
 80034a0:	e7f1      	b.n	8003486 <MPU6050_SetAccelerometer+0x86>
	...

080034a4 <MPU6050_SetGyroscope>:
MPU6050_Result MPU6050_SetGyroscope(I2C_HandleTypeDef* I2Cx,MPU6050* DataStruct, MPU6050_Gyroscope GyroscopeSensitivity)
{
	uint8_t temp;
	I2C_HandleTypeDef* Handle = I2Cx;
	uint8_t address = DataStruct->Address;
	uint8_t regAdd =(uint8_t )MPU6050_GYRO_CONFIG;
 80034a4:	231b      	movs	r3, #27
{
 80034a6:	e92d 43f0 	stmdb	sp!, {r4, r5, r6, r7, r8, r9, lr}
 80034aa:	4607      	mov	r7, r0
 80034ac:	460c      	mov	r4, r1
 80034ae:	4616      	mov	r6, r2

	/* Config gyroscope */
	while(HAL_I2C_Master_Transmit(Handle, (uint16_t)address,&regAdd, 1, 1000) != HAL_OK);
 80034b0:	f44f 797a 	mov.w	r9, #1000	; 0x3e8
{
 80034b4:	b085      	sub	sp, #20
	uint8_t address = DataStruct->Address;
 80034b6:	780d      	ldrb	r5, [r1, #0]
	uint8_t regAdd =(uint8_t )MPU6050_GYRO_CONFIG;
 80034b8:	f10d 0810 	add.w	r8, sp, #16
 80034bc:	f808 3d01 	strb.w	r3, [r8, #-1]!
	while(HAL_I2C_Master_Transmit(Handle, (uint16_t)address,&regAdd, 1, 1000) != HAL_OK);
 80034c0:	b2ad      	uxth	r5, r5
 80034c2:	f8cd 9000 	str.w	r9, [sp]
 80034c6:	2301      	movs	r3, #1
 80034c8:	4642      	mov	r2, r8
 80034ca:	4629      	mov	r1, r5
 80034cc:	4638      	mov	r0, r7
 80034ce:	f7fe fa65 	bl	800199c <HAL_I2C_Master_Transmit>
 80034d2:	2800      	cmp	r0, #0
 80034d4:	d1f5      	bne.n	80034c2 <MPU6050_SetGyroscope+0x1e>
	/*{
				return MPU6050_Result_Error;
	}*/
	while(HAL_I2C_Master_Receive(Handle, (uint16_t)address, &temp, 1, 1000) != HAL_OK);
 80034d6:	f44f 787a 	mov.w	r8, #1000	; 0x3e8
 80034da:	f8cd 8000 	str.w	r8, [sp]
 80034de:	2301      	movs	r3, #1
 80034e0:	f10d 020e 	add.w	r2, sp, #14
 80034e4:	4629      	mov	r1, r5
 80034e6:	4638      	mov	r0, r7
 80034e8:	f7fe fb26 	bl	8001b38 <HAL_I2C_Master_Receive>
 80034ec:	2800      	cmp	r0, #0
 80034ee:	d1f4      	bne.n	80034da <MPU6050_SetGyroscope+0x36>
	/*{
				return MPU6050_Result_Error;
	}*/
	temp = (temp & 0xE7) | (uint8_t)GyroscopeSensitivity << 3;
	while(HAL_I2C_Master_Transmit(Handle, (uint16_t)address,&temp, 1, 1000) != HAL_OK);
 80034f0:	f44f 787a 	mov.w	r8, #1000	; 0x3e8
	temp = (temp & 0xE7) | (uint8_t)GyroscopeSensitivity << 3;
 80034f4:	f89d 300e 	ldrb.w	r3, [sp, #14]
 80034f8:	f023 0318 	bic.w	r3, r3, #24
 80034fc:	ea43 03c6 	orr.w	r3, r3, r6, lsl #3
 8003500:	f88d 300e 	strb.w	r3, [sp, #14]
	while(HAL_I2C_Master_Transmit(Handle, (uint16_t)address,&temp, 1, 1000) != HAL_OK);
 8003504:	f8cd 8000 	str.w	r8, [sp]
 8003508:	2301      	movs	r3, #1
 800350a:	f10d 020e 	add.w	r2, sp, #14
 800350e:	4629      	mov	r1, r5
 8003510:	4638      	mov	r0, r7
 8003512:	f7fe fa43 	bl	800199c <HAL_I2C_Master_Transmit>
 8003516:	2800      	cmp	r0, #0
 8003518:	d1f4      	bne.n	8003504 <MPU6050_SetGyroscope+0x60>
	/*{
				return MPU6050_Result_Error;
	}*/

	switch (GyroscopeSensitivity) {
 800351a:	2e03      	cmp	r6, #3
 800351c:	d805      	bhi.n	800352a <MPU6050_SetGyroscope+0x86>
 800351e:	e8df f006 	tbb	[pc, r6]
 8003522:	0802      	.short	0x0802
 8003524:	0c0a      	.short	0x0c0a
			case MPU6050_Gyroscope_250s:
				DataStruct->Gyro_Mult = (float)1 / MPU6050_GYRO_SENS_250;
 8003526:	4b06      	ldr	r3, [pc, #24]	; (8003540 <MPU6050_SetGyroscope+0x9c>)
				break;
			case MPU6050_Gyroscope_1000s:
				DataStruct->Gyro_Mult = (float)1 / MPU6050_GYRO_SENS_1000;
				break;
			case MPU6050_Gyroscope_2000s:
				DataStruct->Gyro_Mult = (float)1 / MPU6050_GYRO_SENS_2000;
 8003528:	6063      	str	r3, [r4, #4]
			default:
				break;
		}
	/* Return OK */
	return MPU6050_Result_Ok;
}
 800352a:	2000      	movs	r0, #0
 800352c:	b005      	add	sp, #20
 800352e:	e8bd 83f0 	ldmia.w	sp!, {r4, r5, r6, r7, r8, r9, pc}
				DataStruct->Gyro_Mult = (float)1 / MPU6050_GYRO_SENS_500;
 8003532:	4b04      	ldr	r3, [pc, #16]	; (8003544 <MPU6050_SetGyroscope+0xa0>)
 8003534:	e7f8      	b.n	8003528 <MPU6050_SetGyroscope+0x84>
				DataStruct->Gyro_Mult = (float)1 / MPU6050_GYRO_SENS_1000;
 8003536:	4b04      	ldr	r3, [pc, #16]	; (8003548 <MPU6050_SetGyroscope+0xa4>)
 8003538:	e7f6      	b.n	8003528 <MPU6050_SetGyroscope+0x84>
				DataStruct->Gyro_Mult = (float)1 / MPU6050_GYRO_SENS_2000;
 800353a:	4b04      	ldr	r3, [pc, #16]	; (800354c <MPU6050_SetGyroscope+0xa8>)
 800353c:	e7f4      	b.n	8003528 <MPU6050_SetGyroscope+0x84>
 800353e:	bf00      	nop
 8003540:	3bfa232d 	.word	0x3bfa232d
 8003544:	3c7a232d 	.word	0x3c7a232d
 8003548:	3cf9c190 	.word	0x3cf9c190
 800354c:	3d79c190 	.word	0x3d79c190

08003550 <MPU6050_Init>:
{
 8003550:	e92d 41ff 	stmdb	sp!, {r0, r1, r2, r3, r4, r5, r6, r7, r8, lr}
 8003554:	4698      	mov	r8, r3
	uint8_t WHO_AM_I = (uint8_t)MPU6050_WHO_AM_I;
 8003556:	2375      	movs	r3, #117	; 0x75
	DataStruct->Address = MPU6050_I2C_ADDR | (uint8_t)DeviceNumber;
 8003558:	f042 02d0 	orr.w	r2, r2, #208	; 0xd0
	if(HAL_I2C_IsDeviceReady(Handle,address,2,5)!=HAL_OK)
 800355c:	b294      	uxth	r4, r2
	DataStruct->Address = MPU6050_I2C_ADDR | (uint8_t)DeviceNumber;
 800355e:	700a      	strb	r2, [r1, #0]
{
 8003560:	460e      	mov	r6, r1
	uint8_t WHO_AM_I = (uint8_t)MPU6050_WHO_AM_I;
 8003562:	f88d 300a 	strb.w	r3, [sp, #10]
	if(HAL_I2C_IsDeviceReady(Handle,address,2,5)!=HAL_OK)
 8003566:	2202      	movs	r2, #2
 8003568:	2305      	movs	r3, #5
 800356a:	4621      	mov	r1, r4
{
 800356c:	4605      	mov	r5, r0
	if(HAL_I2C_IsDeviceReady(Handle,address,2,5)!=HAL_OK)
 800356e:	f7fe fe05 	bl	800217c <HAL_I2C_IsDeviceReady>
 8003572:	b118      	cbz	r0, 800357c <MPU6050_Init+0x2c>
				return MPU6050_Result_Error;
 8003574:	2001      	movs	r0, #1
}
 8003576:	b004      	add	sp, #16
 8003578:	e8bd 81f0 	ldmia.w	sp!, {r4, r5, r6, r7, r8, pc}
		if(HAL_I2C_Master_Transmit(Handle, address, &WHO_AM_I, 1, 1000) != HAL_OK)
 800357c:	f44f 777a 	mov.w	r7, #1000	; 0x3e8
 8003580:	2301      	movs	r3, #1
 8003582:	9700      	str	r7, [sp, #0]
 8003584:	f10d 020a 	add.w	r2, sp, #10
 8003588:	4621      	mov	r1, r4
 800358a:	4628      	mov	r0, r5
 800358c:	f7fe fa06 	bl	800199c <HAL_I2C_Master_Transmit>
 8003590:	2800      	cmp	r0, #0
 8003592:	d1ef      	bne.n	8003574 <MPU6050_Init+0x24>
		if(HAL_I2C_Master_Receive(Handle, address, &temp, 1, 1000) != HAL_OK)
 8003594:	9700      	str	r7, [sp, #0]
 8003596:	2301      	movs	r3, #1
 8003598:	f10d 020b 	add.w	r2, sp, #11
 800359c:	4621      	mov	r1, r4
 800359e:	4628      	mov	r0, r5
 80035a0:	f7fe faca 	bl	8001b38 <HAL_I2C_Master_Receive>
 80035a4:	2800      	cmp	r0, #0
 80035a6:	d1e5      	bne.n	8003574 <MPU6050_Init+0x24>
		while(temp != MPU6050_I_AM)
 80035a8:	f89d 300b 	ldrb.w	r3, [sp, #11]
 80035ac:	2b68      	cmp	r3, #104	; 0x68
 80035ae:	d120      	bne.n	80035f2 <MPU6050_Init+0xa2>
		d[0] = MPU6050_PWR_MGMT_1;
 80035b0:	236b      	movs	r3, #107	; 0x6b
		d[1] = 0x00;
 80035b2:	f88d 000d 	strb.w	r0, [sp, #13]
		d[0] = MPU6050_PWR_MGMT_1;
 80035b6:	f88d 300c 	strb.w	r3, [sp, #12]
		if(HAL_I2C_Master_Transmit(Handle,(uint16_t)address , (uint8_t *)d, 2, 1000) != HAL_OK)
 80035ba:	4621      	mov	r1, r4
 80035bc:	9700      	str	r7, [sp, #0]
 80035be:	2302      	movs	r3, #2
 80035c0:	aa03      	add	r2, sp, #12
 80035c2:	4628      	mov	r0, r5
 80035c4:	f7fe f9ea 	bl	800199c <HAL_I2C_Master_Transmit>
 80035c8:	4604      	mov	r4, r0
 80035ca:	2800      	cmp	r0, #0
 80035cc:	d1d2      	bne.n	8003574 <MPU6050_Init+0x24>
	MPU6050_SetDataRate(I2Cx,DataStruct, MPU6050_DataRate_1KHz);
 80035ce:	2207      	movs	r2, #7
 80035d0:	4631      	mov	r1, r6
 80035d2:	4628      	mov	r0, r5
 80035d4:	f7ff fefe 	bl	80033d4 <MPU6050_SetDataRate>
	MPU6050_SetAccelerometer(I2Cx,DataStruct, AccelerometerSensitivity);
 80035d8:	4642      	mov	r2, r8
 80035da:	4631      	mov	r1, r6
 80035dc:	4628      	mov	r0, r5
 80035de:	f7ff ff0f 	bl	8003400 <MPU6050_SetAccelerometer>
	MPU6050_SetGyroscope(I2Cx,DataStruct, GyroscopeSensitivity);
 80035e2:	f89d 2028 	ldrb.w	r2, [sp, #40]	; 0x28
 80035e6:	4631      	mov	r1, r6
 80035e8:	4628      	mov	r0, r5
 80035ea:	f7ff ff5b 	bl	80034a4 <MPU6050_SetGyroscope>
	return MPU6050_Result_Ok;
 80035ee:	4620      	mov	r0, r4
 80035f0:	e7c1      	b.n	8003576 <MPU6050_Init+0x26>
				return MPU6050_Result_DeviceInvalid;
 80035f2:	2003      	movs	r0, #3
 80035f4:	e7bf      	b.n	8003576 <MPU6050_Init+0x26>
	...

080035f8 <updateRcChannels>:
	}

}

void updateRcChannels() {
	update_rc_channels(adc_values);
 80035f8:	4801      	ldr	r0, [pc, #4]	; (8003600 <updateRcChannels+0x8>)
 80035fa:	f001 baf5 	b.w	8004be8 <update_rc_channels>
 80035fe:	bf00      	nop
 8003600:	2000084c 	.word	0x2000084c

08003604 <updateScreen>:
}
void updateScreen() {
 8003604:	b513      	push	{r0, r1, r4, lr}

	switch (enc_rotation) {
 8003606:	4b18      	ldr	r3, [pc, #96]	; (8003668 <updateScreen+0x64>)
 8003608:	7818      	ldrb	r0, [r3, #0]
 800360a:	2804      	cmp	r0, #4
 800360c:	d828      	bhi.n	8003660 <updateScreen+0x5c>
 800360e:	e8df f000 	tbb	[pc, r0]
 8003612:	0903      	.short	0x0903
 8003614:	1b14      	.short	0x1b14
 8003616:	23          	.byte	0x23
 8003617:	00          	.byte	0x00
	case 0:
		oledPrintMainScreen(&rc_status);
 8003618:	4814      	ldr	r0, [pc, #80]	; (800366c <updateScreen+0x68>)
		oledPrintEncValues(enc_rotation, enc_clicks);
		break;
		// default statements
	}

}
 800361a:	b002      	add	sp, #8
 800361c:	e8bd 4010 	ldmia.w	sp!, {r4, lr}
		oledPrintMainScreen(&rc_status);
 8003620:	f001 ba1e 	b.w	8004a60 <oledPrintMainScreen>
		oledDrawValueBars(rc_channels.low_pass_values[0],
 8003624:	2401      	movs	r4, #1
 8003626:	4812      	ldr	r0, [pc, #72]	; (8003670 <updateScreen+0x6c>)
 8003628:	8b83      	ldrh	r3, [r0, #28]
 800362a:	8b42      	ldrh	r2, [r0, #26]
 800362c:	8b01      	ldrh	r1, [r0, #24]
 800362e:	8ac0      	ldrh	r0, [r0, #22]
		oledDrawValueBars(rc_channels.scaled_values[4],
 8003630:	9400      	str	r4, [sp, #0]
 8003632:	f001 f955 	bl	80048e0 <oledDrawValueBars>
}
 8003636:	b002      	add	sp, #8
 8003638:	bd10      	pop	{r4, pc}
		oledDrawValueBars(rc_channels.scaled_values[4],
 800363a:	480d      	ldr	r0, [pc, #52]	; (8003670 <updateScreen+0x6c>)
 800363c:	2405      	movs	r4, #5
 800363e:	89c3      	ldrh	r3, [r0, #14]
 8003640:	8982      	ldrh	r2, [r0, #12]
 8003642:	8941      	ldrh	r1, [r0, #10]
 8003644:	8900      	ldrh	r0, [r0, #8]
 8003646:	e7f3      	b.n	8003630 <updateScreen+0x2c>
		oledPrintEncValues(enc_rotation, enc_clicks);
 8003648:	2003      	movs	r0, #3
 800364a:	4b0a      	ldr	r3, [pc, #40]	; (8003674 <updateScreen+0x70>)
 800364c:	7819      	ldrb	r1, [r3, #0]
}
 800364e:	b002      	add	sp, #8
 8003650:	e8bd 4010 	ldmia.w	sp!, {r4, lr}
		oledPrintEncValues(enc_rotation, enc_clicks);
 8003654:	f001 b9ce 	b.w	80049f4 <oledPrintEncValues>
		oledPrintEncValues(enc_rotation, enc_clicks);
 8003658:	4b06      	ldr	r3, [pc, #24]	; (8003674 <updateScreen+0x70>)
 800365a:	2004      	movs	r0, #4
 800365c:	7819      	ldrb	r1, [r3, #0]
 800365e:	e7f6      	b.n	800364e <updateScreen+0x4a>
		oledPrintEncValues(enc_rotation, enc_clicks);
 8003660:	4b04      	ldr	r3, [pc, #16]	; (8003674 <updateScreen+0x70>)
 8003662:	7819      	ldrb	r1, [r3, #0]
 8003664:	e7f3      	b.n	800364e <updateScreen+0x4a>
 8003666:	bf00      	nop
 8003668:	200000a5 	.word	0x200000a5
 800366c:	200008c0 	.word	0x200008c0
 8003670:	20000864 	.word	0x20000864
 8003674:	200000a4 	.word	0x200000a4

08003678 <radioTransmit>:
void radioTransmit() {
 8003678:	b508      	push	{r3, lr}
	if (NRF24_write(txValues, 32)) {
 800367a:	2120      	movs	r1, #32
 800367c:	480e      	ldr	r0, [pc, #56]	; (80036b8 <radioTransmit+0x40>)
 800367e:	f000 fcd7 	bl	8004030 <NRF24_write>
 8003682:	b1a0      	cbz	r0, 80036ae <radioTransmit+0x36>
		memcpy(txValues, rc_channels.scaled_values, 22);
 8003684:	4b0d      	ldr	r3, [pc, #52]	; (80036bc <radioTransmit+0x44>)
 8003686:	4a0c      	ldr	r2, [pc, #48]	; (80036b8 <radioTransmit+0x40>)
 8003688:	f103 0114 	add.w	r1, r3, #20
 800368c:	f853 0b04 	ldr.w	r0, [r3], #4
 8003690:	428b      	cmp	r3, r1
 8003692:	f842 0b04 	str.w	r0, [r2], #4
 8003696:	d1f9      	bne.n	800368c <radioTransmit+0x14>
 8003698:	881b      	ldrh	r3, [r3, #0]
		HAL_GPIO_TogglePin(LED_BAT_GPIO_Port, LED_BAT_Pin);
 800369a:	2180      	movs	r1, #128	; 0x80
		memcpy(txValues, rc_channels.scaled_values, 22);
 800369c:	8013      	strh	r3, [r2, #0]
		HAL_GPIO_TogglePin(LED_BAT_GPIO_Port, LED_BAT_Pin);
 800369e:	4808      	ldr	r0, [pc, #32]	; (80036c0 <radioTransmit+0x48>)
 80036a0:	f7fd fef5 	bl	800148e <HAL_GPIO_TogglePin>
		rc_status.frames_sent++;
 80036a4:	4a07      	ldr	r2, [pc, #28]	; (80036c4 <radioTransmit+0x4c>)
 80036a6:	6813      	ldr	r3, [r2, #0]
 80036a8:	3301      	adds	r3, #1
 80036aa:	6013      	str	r3, [r2, #0]
 80036ac:	bd08      	pop	{r3, pc}
		printf("FAILED! \n");
 80036ae:	4806      	ldr	r0, [pc, #24]	; (80036c8 <radioTransmit+0x50>)
}
 80036b0:	e8bd 4008 	ldmia.w	sp!, {r3, lr}
		printf("FAILED! \n");
 80036b4:	f002 b97a 	b.w	80059ac <puts>
 80036b8:	200006cc 	.word	0x200006cc
 80036bc:	20000864 	.word	0x20000864
 80036c0:	40011000 	.word	0x40011000
 80036c4:	200008c0 	.word	0x200008c0
 80036c8:	080072f9 	.word	0x080072f9

080036cc <SystemClock_Config>:
void SystemClock_Config(void) {
 80036cc:	b510      	push	{r4, lr}
 80036ce:	b096      	sub	sp, #88	; 0x58
	RCC_OscInitTypeDef RCC_OscInitStruct = { 0 };
 80036d0:	2228      	movs	r2, #40	; 0x28
 80036d2:	2100      	movs	r1, #0
 80036d4:	a80c      	add	r0, sp, #48	; 0x30
 80036d6:	f002 f8ec 	bl	80058b2 <memset>
	RCC_ClkInitTypeDef RCC_ClkInitStruct = { 0 };
 80036da:	2214      	movs	r2, #20
 80036dc:	2100      	movs	r1, #0
 80036de:	a801      	add	r0, sp, #4
 80036e0:	f002 f8e7 	bl	80058b2 <memset>
	RCC_PeriphCLKInitTypeDef PeriphClkInit = { 0 };
 80036e4:	2218      	movs	r2, #24
 80036e6:	2100      	movs	r1, #0
 80036e8:	eb0d 0002 	add.w	r0, sp, r2
 80036ec:	f002 f8e1 	bl	80058b2 <memset>
	RCC_OscInitStruct.HSEState = RCC_HSE_ON;
 80036f0:	f44f 3380 	mov.w	r3, #65536	; 0x10000
	RCC_OscInitStruct.OscillatorType = RCC_OSCILLATORTYPE_HSE;
 80036f4:	2201      	movs	r2, #1
	RCC_OscInitStruct.PLL.PLLState = RCC_PLL_ON;
 80036f6:	2402      	movs	r4, #2
	RCC_OscInitStruct.HSEState = RCC_HSE_ON;
 80036f8:	930d      	str	r3, [sp, #52]	; 0x34
	RCC_OscInitStruct.PLL.PLLSource = RCC_PLLSOURCE_HSE;
 80036fa:	9314      	str	r3, [sp, #80]	; 0x50
	RCC_OscInitStruct.PLL.PLLMUL = RCC_PLL_MUL9;
 80036fc:	f44f 13e0 	mov.w	r3, #1835008	; 0x1c0000
	if (HAL_RCC_OscConfig(&RCC_OscInitStruct) != HAL_OK) {
 8003700:	a80c      	add	r0, sp, #48	; 0x30
	RCC_OscInitStruct.OscillatorType = RCC_OSCILLATORTYPE_HSE;
 8003702:	920c      	str	r2, [sp, #48]	; 0x30
	RCC_OscInitStruct.HSIState = RCC_HSI_ON;
 8003704:	9210      	str	r2, [sp, #64]	; 0x40
	RCC_OscInitStruct.PLL.PLLMUL = RCC_PLL_MUL9;
 8003706:	9315      	str	r3, [sp, #84]	; 0x54
	RCC_OscInitStruct.PLL.PLLState = RCC_PLL_ON;
 8003708:	9413      	str	r4, [sp, #76]	; 0x4c
	if (HAL_RCC_OscConfig(&RCC_OscInitStruct) != HAL_OK) {
 800370a:	f7fe fde1 	bl	80022d0 <HAL_RCC_OscConfig>
	RCC_ClkInitStruct.ClockType = RCC_CLOCKTYPE_HCLK | RCC_CLOCKTYPE_SYSCLK
 800370e:	230f      	movs	r3, #15
 8003710:	9301      	str	r3, [sp, #4]
	RCC_ClkInitStruct.AHBCLKDivider = RCC_SYSCLK_DIV1;
 8003712:	2300      	movs	r3, #0
 8003714:	9303      	str	r3, [sp, #12]
	RCC_ClkInitStruct.APB1CLKDivider = RCC_HCLK_DIV2;
 8003716:	f44f 6380 	mov.w	r3, #1024	; 0x400
	if (HAL_RCC_ClockConfig(&RCC_ClkInitStruct, FLASH_LATENCY_2) != HAL_OK) {
 800371a:	4621      	mov	r1, r4
 800371c:	a801      	add	r0, sp, #4
	RCC_ClkInitStruct.APB1CLKDivider = RCC_HCLK_DIV2;
 800371e:	9304      	str	r3, [sp, #16]
	RCC_ClkInitStruct.APB2CLKDivider = RCC_HCLK_DIV2;
 8003720:	9305      	str	r3, [sp, #20]
	RCC_ClkInitStruct.SYSCLKSource = RCC_SYSCLKSOURCE_PLLCLK;
 8003722:	9402      	str	r4, [sp, #8]
	if (HAL_RCC_ClockConfig(&RCC_ClkInitStruct, FLASH_LATENCY_2) != HAL_OK) {
 8003724:	f7fe ffae 	bl	8002684 <HAL_RCC_ClockConfig>
	PeriphClkInit.AdcClockSelection = RCC_ADCPCLK2_DIV6;
 8003728:	f44f 4300 	mov.w	r3, #32768	; 0x8000
	if (HAL_RCCEx_PeriphCLKConfig(&PeriphClkInit) != HAL_OK) {
 800372c:	a806      	add	r0, sp, #24
	PeriphClkInit.PeriphClockSelection = RCC_PERIPHCLK_ADC;
 800372e:	9406      	str	r4, [sp, #24]
	PeriphClkInit.AdcClockSelection = RCC_ADCPCLK2_DIV6;
 8003730:	9308      	str	r3, [sp, #32]
	if (HAL_RCCEx_PeriphCLKConfig(&PeriphClkInit) != HAL_OK) {
 8003732:	f7ff f865 	bl	8002800 <HAL_RCCEx_PeriphCLKConfig>
}
 8003736:	b016      	add	sp, #88	; 0x58
 8003738:	bd10      	pop	{r4, pc}
	...

0800373c <main>:
int main(void) {
 800373c:	e92d 4ff0 	stmdb	sp!, {r4, r5, r6, r7, r8, r9, sl, fp, lr}
	__HAL_RCC_GPIOD_CLK_ENABLE()
 8003740:	4db0      	ldr	r5, [pc, #704]	; (8003a04 <main+0x2c8>)
int main(void) {
 8003742:	b097      	sub	sp, #92	; 0x5c
	HAL_Init();
 8003744:	f7fd f986 	bl	8000a54 <HAL_Init>
	SystemClock_Config();
 8003748:	f7ff ffc0 	bl	80036cc <SystemClock_Config>
	GPIO_InitTypeDef GPIO_InitStruct = { 0 };
 800374c:	2210      	movs	r2, #16
 800374e:	2100      	movs	r1, #0
 8003750:	a80d      	add	r0, sp, #52	; 0x34
 8003752:	f002 f8ae 	bl	80058b2 <memset>
	__HAL_RCC_GPIOD_CLK_ENABLE()
 8003756:	69ab      	ldr	r3, [r5, #24]
	HAL_GPIO_WritePin(GPIOA, CSN_Pin | CE_Pin, GPIO_PIN_RESET);
 8003758:	2200      	movs	r2, #0
	__HAL_RCC_GPIOD_CLK_ENABLE()
 800375a:	f043 0320 	orr.w	r3, r3, #32
 800375e:	61ab      	str	r3, [r5, #24]
 8003760:	69ab      	ldr	r3, [r5, #24]
	HAL_GPIO_WritePin(GPIOA, CSN_Pin | CE_Pin, GPIO_PIN_RESET);
 8003762:	2112      	movs	r1, #18
	__HAL_RCC_GPIOD_CLK_ENABLE()
 8003764:	f003 0320 	and.w	r3, r3, #32
 8003768:	9307      	str	r3, [sp, #28]
 800376a:	9b07      	ldr	r3, [sp, #28]
	__HAL_RCC_GPIOC_CLK_ENABLE()
 800376c:	69ab      	ldr	r3, [r5, #24]
	HAL_GPIO_WritePin(GPIOA, CSN_Pin | CE_Pin, GPIO_PIN_RESET);
 800376e:	48a6      	ldr	r0, [pc, #664]	; (8003a08 <main+0x2cc>)
	__HAL_RCC_GPIOC_CLK_ENABLE()
 8003770:	f043 0310 	orr.w	r3, r3, #16
 8003774:	61ab      	str	r3, [r5, #24]
 8003776:	69ab      	ldr	r3, [r5, #24]
	GPIO_InitStruct.Pull = GPIO_NOPULL;
 8003778:	2400      	movs	r4, #0
	__HAL_RCC_GPIOC_CLK_ENABLE()
 800377a:	f003 0310 	and.w	r3, r3, #16
 800377e:	9308      	str	r3, [sp, #32]
 8003780:	9b08      	ldr	r3, [sp, #32]
	__HAL_RCC_GPIOA_CLK_ENABLE()
 8003782:	69ab      	ldr	r3, [r5, #24]
	GPIO_InitStruct.Mode = GPIO_MODE_OUTPUT_PP;
 8003784:	2601      	movs	r6, #1
	__HAL_RCC_GPIOA_CLK_ENABLE()
 8003786:	f043 0304 	orr.w	r3, r3, #4
 800378a:	61ab      	str	r3, [r5, #24]
 800378c:	69ab      	ldr	r3, [r5, #24]
	GPIO_InitStruct.Speed = GPIO_SPEED_FREQ_LOW;
 800378e:	2702      	movs	r7, #2
	__HAL_RCC_GPIOA_CLK_ENABLE()
 8003790:	f003 0304 	and.w	r3, r3, #4
 8003794:	9309      	str	r3, [sp, #36]	; 0x24
 8003796:	9b09      	ldr	r3, [sp, #36]	; 0x24
	__HAL_RCC_GPIOB_CLK_ENABLE()
 8003798:	69ab      	ldr	r3, [r5, #24]
	GPIO_InitStruct.Pin = JOY1_PB_Pin | JOY2_PB_Pin;
 800379a:	f04f 0906 	mov.w	r9, #6
	__HAL_RCC_GPIOB_CLK_ENABLE()
 800379e:	f043 0308 	orr.w	r3, r3, #8
 80037a2:	61ab      	str	r3, [r5, #24]
 80037a4:	69ab      	ldr	r3, [r5, #24]
	hadc1.Init.NbrOfConversion = 11;
 80037a6:	f04f 080b 	mov.w	r8, #11
	__HAL_RCC_GPIOB_CLK_ENABLE()
 80037aa:	f003 0308 	and.w	r3, r3, #8
 80037ae:	930a      	str	r3, [sp, #40]	; 0x28
 80037b0:	9b0a      	ldr	r3, [sp, #40]	; 0x28
	HAL_GPIO_WritePin(GPIOA, CSN_Pin | CE_Pin, GPIO_PIN_RESET);
 80037b2:	f7fd fe67 	bl	8001484 <HAL_GPIO_WritePin>
	HAL_GPIO_WritePin(GPIOB, MPU_PWR_Pin | RC_PWR_Pin | OLED_PWR_Pin | BUZZ_Pin,
 80037b6:	2200      	movs	r2, #0
 80037b8:	f44f 4143 	mov.w	r1, #49920	; 0xc300
 80037bc:	4893      	ldr	r0, [pc, #588]	; (8003a0c <main+0x2d0>)
 80037be:	f7fd fe61 	bl	8001484 <HAL_GPIO_WritePin>
	HAL_GPIO_WritePin(GPIOC, LED_BAT_Pin | LED_EXT_Pin | LED_MODE_Pin,
 80037c2:	2200      	movs	r2, #0
 80037c4:	f44f 7160 	mov.w	r1, #896	; 0x380
 80037c8:	4891      	ldr	r0, [pc, #580]	; (8003a10 <main+0x2d4>)
 80037ca:	f7fd fe5b 	bl	8001484 <HAL_GPIO_WritePin>
	GPIO_InitStruct.Pin = CSN_Pin | CE_Pin;
 80037ce:	2312      	movs	r3, #18
	HAL_GPIO_Init(GPIOA, &GPIO_InitStruct);
 80037d0:	a90d      	add	r1, sp, #52	; 0x34
 80037d2:	488d      	ldr	r0, [pc, #564]	; (8003a08 <main+0x2cc>)
	GPIO_InitStruct.Pin = CSN_Pin | CE_Pin;
 80037d4:	930d      	str	r3, [sp, #52]	; 0x34
	GPIO_InitStruct.Pull = GPIO_NOPULL;
 80037d6:	940f      	str	r4, [sp, #60]	; 0x3c
	GPIO_InitStruct.Speed = GPIO_SPEED_FREQ_LOW;
 80037d8:	9710      	str	r7, [sp, #64]	; 0x40
	GPIO_InitStruct.Mode = GPIO_MODE_OUTPUT_PP;
 80037da:	960e      	str	r6, [sp, #56]	; 0x38
	HAL_GPIO_Init(GPIOA, &GPIO_InitStruct);
 80037dc:	f7fd fd66 	bl	80012ac <HAL_GPIO_Init>
	HAL_GPIO_Init(GPIOB, &GPIO_InitStruct);
 80037e0:	a90d      	add	r1, sp, #52	; 0x34
 80037e2:	488a      	ldr	r0, [pc, #552]	; (8003a0c <main+0x2d0>)
	GPIO_InitStruct.Pin = JOY1_PB_Pin | JOY2_PB_Pin;
 80037e4:	f8cd 9034 	str.w	r9, [sp, #52]	; 0x34
	GPIO_InitStruct.Mode = GPIO_MODE_INPUT;
 80037e8:	940e      	str	r4, [sp, #56]	; 0x38
	GPIO_InitStruct.Pull = GPIO_NOPULL;
 80037ea:	940f      	str	r4, [sp, #60]	; 0x3c
	HAL_GPIO_Init(GPIOB, &GPIO_InitStruct);
 80037ec:	f7fd fd5e 	bl	80012ac <HAL_GPIO_Init>
	GPIO_InitStruct.Pin = MPU_PWR_Pin | RC_PWR_Pin | OLED_PWR_Pin | BUZZ_Pin;
 80037f0:	f44f 4343 	mov.w	r3, #49920	; 0xc300
	HAL_GPIO_Init(GPIOB, &GPIO_InitStruct);
 80037f4:	a90d      	add	r1, sp, #52	; 0x34
 80037f6:	4885      	ldr	r0, [pc, #532]	; (8003a0c <main+0x2d0>)
	GPIO_InitStruct.Pin = MPU_PWR_Pin | RC_PWR_Pin | OLED_PWR_Pin | BUZZ_Pin;
 80037f8:	930d      	str	r3, [sp, #52]	; 0x34
	GPIO_InitStruct.Pull = GPIO_NOPULL;
 80037fa:	940f      	str	r4, [sp, #60]	; 0x3c
	GPIO_InitStruct.Speed = GPIO_SPEED_FREQ_LOW;
 80037fc:	9710      	str	r7, [sp, #64]	; 0x40
	GPIO_InitStruct.Mode = GPIO_MODE_OUTPUT_PP;
 80037fe:	960e      	str	r6, [sp, #56]	; 0x38
	HAL_GPIO_Init(GPIOB, &GPIO_InitStruct);
 8003800:	f7fd fd54 	bl	80012ac <HAL_GPIO_Init>
	GPIO_InitStruct.Pin = MPU_INT_Pin;
 8003804:	2340      	movs	r3, #64	; 0x40
	HAL_GPIO_Init(MPU_INT_GPIO_Port, &GPIO_InitStruct);
 8003806:	a90d      	add	r1, sp, #52	; 0x34
 8003808:	4881      	ldr	r0, [pc, #516]	; (8003a10 <main+0x2d4>)
	GPIO_InitStruct.Pin = MPU_INT_Pin;
 800380a:	930d      	str	r3, [sp, #52]	; 0x34
	GPIO_InitStruct.Mode = GPIO_MODE_INPUT;
 800380c:	940e      	str	r4, [sp, #56]	; 0x38
	GPIO_InitStruct.Pull = GPIO_NOPULL;
 800380e:	940f      	str	r4, [sp, #60]	; 0x3c
	HAL_GPIO_Init(MPU_INT_GPIO_Port, &GPIO_InitStruct);
 8003810:	f7fd fd4c 	bl	80012ac <HAL_GPIO_Init>
	GPIO_InitStruct.Pin = LED_BAT_Pin | LED_EXT_Pin | LED_MODE_Pin;
 8003814:	f44f 7360 	mov.w	r3, #896	; 0x380
	HAL_GPIO_Init(GPIOC, &GPIO_InitStruct);
 8003818:	a90d      	add	r1, sp, #52	; 0x34
 800381a:	487d      	ldr	r0, [pc, #500]	; (8003a10 <main+0x2d4>)
	GPIO_InitStruct.Pin = LED_BAT_Pin | LED_EXT_Pin | LED_MODE_Pin;
 800381c:	930d      	str	r3, [sp, #52]	; 0x34
	GPIO_InitStruct.Pull = GPIO_NOPULL;
 800381e:	940f      	str	r4, [sp, #60]	; 0x3c
	GPIO_InitStruct.Speed = GPIO_SPEED_FREQ_LOW;
 8003820:	9710      	str	r7, [sp, #64]	; 0x40
	GPIO_InitStruct.Mode = GPIO_MODE_OUTPUT_PP;
 8003822:	960e      	str	r6, [sp, #56]	; 0x38
	HAL_GPIO_Init(GPIOC, &GPIO_InitStruct);
 8003824:	f7fd fd42 	bl	80012ac <HAL_GPIO_Init>
	GPIO_InitStruct.Pin = ENC_PB_Pin;
 8003828:	f44f 6380 	mov.w	r3, #1024	; 0x400
 800382c:	930d      	str	r3, [sp, #52]	; 0x34
	GPIO_InitStruct.Mode = GPIO_MODE_IT_RISING;
 800382e:	4b79      	ldr	r3, [pc, #484]	; (8003a14 <main+0x2d8>)
	HAL_GPIO_Init(ENC_PB_GPIO_Port, &GPIO_InitStruct);
 8003830:	a90d      	add	r1, sp, #52	; 0x34
 8003832:	4875      	ldr	r0, [pc, #468]	; (8003a08 <main+0x2cc>)
	GPIO_InitStruct.Mode = GPIO_MODE_IT_RISING;
 8003834:	930e      	str	r3, [sp, #56]	; 0x38
	GPIO_InitStruct.Pull = GPIO_NOPULL;
 8003836:	940f      	str	r4, [sp, #60]	; 0x3c
	HAL_GPIO_Init(ENC_PB_GPIO_Port, &GPIO_InitStruct);
 8003838:	f7fd fd38 	bl	80012ac <HAL_GPIO_Init>
	HAL_NVIC_SetPriority(EXTI15_10_IRQn, 0, 0);
 800383c:	4622      	mov	r2, r4
 800383e:	4621      	mov	r1, r4
 8003840:	2028      	movs	r0, #40	; 0x28
 8003842:	f7fd fb81 	bl	8000f48 <HAL_NVIC_SetPriority>
	HAL_NVIC_EnableIRQ(EXTI15_10_IRQn);
 8003846:	2028      	movs	r0, #40	; 0x28
 8003848:	f7fd fbb2 	bl	8000fb0 <HAL_NVIC_EnableIRQ>
	__HAL_RCC_DMA1_CLK_ENABLE()
 800384c:	696b      	ldr	r3, [r5, #20]
	HAL_NVIC_SetPriority(DMA1_Channel1_IRQn, 0, 0);
 800384e:	4622      	mov	r2, r4
	__HAL_RCC_DMA1_CLK_ENABLE()
 8003850:	4333      	orrs	r3, r6
 8003852:	616b      	str	r3, [r5, #20]
 8003854:	696b      	ldr	r3, [r5, #20]
	HAL_NVIC_SetPriority(DMA1_Channel1_IRQn, 0, 0);
 8003856:	4621      	mov	r1, r4
	__HAL_RCC_DMA1_CLK_ENABLE()
 8003858:	4033      	ands	r3, r6
 800385a:	9306      	str	r3, [sp, #24]
	HAL_NVIC_SetPriority(DMA1_Channel1_IRQn, 0, 0);
 800385c:	200b      	movs	r0, #11
	__HAL_RCC_DMA1_CLK_ENABLE()
 800385e:	9b06      	ldr	r3, [sp, #24]
	HAL_NVIC_SetPriority(DMA1_Channel1_IRQn, 0, 0);
 8003860:	f7fd fb72 	bl	8000f48 <HAL_NVIC_SetPriority>
	HAL_NVIC_EnableIRQ(DMA1_Channel1_IRQn);
 8003864:	200b      	movs	r0, #11
	hadc1.Instance = ADC1;
 8003866:	4d6c      	ldr	r5, [pc, #432]	; (8003a18 <main+0x2dc>)
	HAL_NVIC_EnableIRQ(DMA1_Channel1_IRQn);
 8003868:	f7fd fba2 	bl	8000fb0 <HAL_NVIC_EnableIRQ>
	hadc1.Instance = ADC1;
 800386c:	4b6b      	ldr	r3, [pc, #428]	; (8003a1c <main+0x2e0>)
	sConfig.SamplingTime = ADC_SAMPLETIME_239CYCLES_5;
 800386e:	f04f 0b07 	mov.w	fp, #7
	hadc1.Instance = ADC1;
 8003872:	602b      	str	r3, [r5, #0]
	hadc1.Init.ScanConvMode = ADC_SCAN_ENABLE;
 8003874:	f44f 7380 	mov.w	r3, #256	; 0x100
 8003878:	60ab      	str	r3, [r5, #8]
	hadc1.Init.ExternalTrigConv = ADC_SOFTWARE_START;
 800387a:	f44f 2360 	mov.w	r3, #917504	; 0xe0000
	if (HAL_ADC_Init(&hadc1) != HAL_OK) {
 800387e:	4628      	mov	r0, r5
	hadc1.Init.ExternalTrigConv = ADC_SOFTWARE_START;
 8003880:	61eb      	str	r3, [r5, #28]
	hadc1.Init.DiscontinuousConvMode = DISABLE;
 8003882:	752c      	strb	r4, [r5, #20]
	hadc1.Init.DataAlign = ADC_DATAALIGN_RIGHT;
 8003884:	606c      	str	r4, [r5, #4]
	hadc1.Init.NbrOfConversion = 11;
 8003886:	f8c5 8010 	str.w	r8, [r5, #16]
	ADC_ChannelConfTypeDef sConfig = { 0 };
 800388a:	940d      	str	r4, [sp, #52]	; 0x34
 800388c:	940e      	str	r4, [sp, #56]	; 0x38
 800388e:	940f      	str	r4, [sp, #60]	; 0x3c
	hadc1.Init.ContinuousConvMode = ENABLE;
 8003890:	732e      	strb	r6, [r5, #12]
	if (HAL_ADC_Init(&hadc1) != HAL_OK) {
 8003892:	f7fd fabd 	bl	8000e10 <HAL_ADC_Init>
	if (HAL_ADC_ConfigChannel(&hadc1, &sConfig) != HAL_OK) {
 8003896:	a90d      	add	r1, sp, #52	; 0x34
 8003898:	4628      	mov	r0, r5
	sConfig.Channel = ADC_CHANNEL_0;
 800389a:	940d      	str	r4, [sp, #52]	; 0x34
	sConfig.SamplingTime = ADC_SAMPLETIME_239CYCLES_5;
 800389c:	f8cd b03c 	str.w	fp, [sp, #60]	; 0x3c
	sConfig.Rank = ADC_REGULAR_RANK_1;
 80038a0:	960e      	str	r6, [sp, #56]	; 0x38
	if (HAL_ADC_ConfigChannel(&hadc1, &sConfig) != HAL_OK) {
 80038a2:	f7fd f949 	bl	8000b38 <HAL_ADC_ConfigChannel>
	sConfig.Channel = ADC_CHANNEL_5;
 80038a6:	2205      	movs	r2, #5
	sConfig.Rank = ADC_REGULAR_RANK_3;
 80038a8:	f04f 0a03 	mov.w	sl, #3
	if (HAL_ADC_ConfigChannel(&hadc1, &sConfig) != HAL_OK) {
 80038ac:	a90d      	add	r1, sp, #52	; 0x34
 80038ae:	4628      	mov	r0, r5
	sConfig.Channel = ADC_CHANNEL_5;
 80038b0:	920d      	str	r2, [sp, #52]	; 0x34
 80038b2:	9205      	str	r2, [sp, #20]
	sConfig.Rank = ADC_REGULAR_RANK_2;
 80038b4:	970e      	str	r7, [sp, #56]	; 0x38
	if (HAL_ADC_ConfigChannel(&hadc1, &sConfig) != HAL_OK) {
 80038b6:	f7fd f93f 	bl	8000b38 <HAL_ADC_ConfigChannel>
	if (HAL_ADC_ConfigChannel(&hadc1, &sConfig) != HAL_OK) {
 80038ba:	a90d      	add	r1, sp, #52	; 0x34
 80038bc:	4628      	mov	r0, r5
	sConfig.Channel = ADC_CHANNEL_6;
 80038be:	f8cd 9034 	str.w	r9, [sp, #52]	; 0x34
	sConfig.Rank = ADC_REGULAR_RANK_3;
 80038c2:	f8cd a038 	str.w	sl, [sp, #56]	; 0x38
	if (HAL_ADC_ConfigChannel(&hadc1, &sConfig) != HAL_OK) {
 80038c6:	f7fd f937 	bl	8000b38 <HAL_ADC_ConfigChannel>
	sConfig.Rank = ADC_REGULAR_RANK_4;
 80038ca:	2304      	movs	r3, #4
	if (HAL_ADC_ConfigChannel(&hadc1, &sConfig) != HAL_OK) {
 80038cc:	a90d      	add	r1, sp, #52	; 0x34
 80038ce:	4628      	mov	r0, r5
	sConfig.Channel = ADC_CHANNEL_7;
 80038d0:	f8cd b034 	str.w	fp, [sp, #52]	; 0x34
	sConfig.Rank = ADC_REGULAR_RANK_4;
 80038d4:	930e      	str	r3, [sp, #56]	; 0x38
	if (HAL_ADC_ConfigChannel(&hadc1, &sConfig) != HAL_OK) {
 80038d6:	f7fd f92f 	bl	8000b38 <HAL_ADC_ConfigChannel>
	sConfig.Channel = ADC_CHANNEL_8;
 80038da:	2308      	movs	r3, #8
	sConfig.Channel = ADC_CHANNEL_10;
 80038dc:	270a      	movs	r7, #10
	sConfig.Rank = ADC_REGULAR_RANK_5;
 80038de:	9a05      	ldr	r2, [sp, #20]
	if (HAL_ADC_ConfigChannel(&hadc1, &sConfig) != HAL_OK) {
 80038e0:	a90d      	add	r1, sp, #52	; 0x34
 80038e2:	4628      	mov	r0, r5
	sConfig.Rank = ADC_REGULAR_RANK_5;
 80038e4:	920e      	str	r2, [sp, #56]	; 0x38
	sConfig.Channel = ADC_CHANNEL_8;
 80038e6:	930d      	str	r3, [sp, #52]	; 0x34
 80038e8:	9304      	str	r3, [sp, #16]
	if (HAL_ADC_ConfigChannel(&hadc1, &sConfig) != HAL_OK) {
 80038ea:	f7fd f925 	bl	8000b38 <HAL_ADC_ConfigChannel>
	if (HAL_ADC_ConfigChannel(&hadc1, &sConfig) != HAL_OK) {
 80038ee:	a90d      	add	r1, sp, #52	; 0x34
 80038f0:	4628      	mov	r0, r5
	sConfig.Rank = ADC_REGULAR_RANK_6;
 80038f2:	f8cd 9038 	str.w	r9, [sp, #56]	; 0x38
	sConfig.Channel = ADC_CHANNEL_10;
 80038f6:	970d      	str	r7, [sp, #52]	; 0x34
	if (HAL_ADC_ConfigChannel(&hadc1, &sConfig) != HAL_OK) {
 80038f8:	f7fd f91e 	bl	8000b38 <HAL_ADC_ConfigChannel>
	sConfig.Rank = ADC_REGULAR_RANK_7;
 80038fc:	f8cd b038 	str.w	fp, [sp, #56]	; 0x38
	sConfig.Channel = ADC_CHANNEL_12;
 8003900:	f04f 0b0c 	mov.w	fp, #12
	if (HAL_ADC_ConfigChannel(&hadc1, &sConfig) != HAL_OK) {
 8003904:	a90d      	add	r1, sp, #52	; 0x34
 8003906:	4628      	mov	r0, r5
	sConfig.Channel = ADC_CHANNEL_11;
 8003908:	f8cd 8034 	str.w	r8, [sp, #52]	; 0x34
	if (HAL_ADC_ConfigChannel(&hadc1, &sConfig) != HAL_OK) {
 800390c:	f7fd f914 	bl	8000b38 <HAL_ADC_ConfigChannel>
	sConfig.Rank = ADC_REGULAR_RANK_8;
 8003910:	9b04      	ldr	r3, [sp, #16]
	if (HAL_ADC_ConfigChannel(&hadc1, &sConfig) != HAL_OK) {
 8003912:	a90d      	add	r1, sp, #52	; 0x34
 8003914:	4628      	mov	r0, r5
	sConfig.Channel = ADC_CHANNEL_12;
 8003916:	f8cd b034 	str.w	fp, [sp, #52]	; 0x34
	sConfig.Rank = ADC_REGULAR_RANK_8;
 800391a:	930e      	str	r3, [sp, #56]	; 0x38
	if (HAL_ADC_ConfigChannel(&hadc1, &sConfig) != HAL_OK) {
 800391c:	f7fd f90c 	bl	8000b38 <HAL_ADC_ConfigChannel>
	sConfig.Channel = ADC_CHANNEL_13;
 8003920:	230d      	movs	r3, #13
 8003922:	930d      	str	r3, [sp, #52]	; 0x34
	sConfig.Rank = ADC_REGULAR_RANK_9;
 8003924:	2309      	movs	r3, #9
	if (HAL_ADC_ConfigChannel(&hadc1, &sConfig) != HAL_OK) {
 8003926:	a90d      	add	r1, sp, #52	; 0x34
 8003928:	4628      	mov	r0, r5
	sConfig.Rank = ADC_REGULAR_RANK_9;
 800392a:	930e      	str	r3, [sp, #56]	; 0x38
	if (HAL_ADC_ConfigChannel(&hadc1, &sConfig) != HAL_OK) {
 800392c:	f7fd f904 	bl	8000b38 <HAL_ADC_ConfigChannel>
	sConfig.Channel = ADC_CHANNEL_14;
 8003930:	230e      	movs	r3, #14
	sConfig.Channel = ADC_CHANNEL_15;
 8003932:	f04f 090f 	mov.w	r9, #15
	if (HAL_ADC_ConfigChannel(&hadc1, &sConfig) != HAL_OK) {
 8003936:	a90d      	add	r1, sp, #52	; 0x34
 8003938:	4628      	mov	r0, r5
	sConfig.Channel = ADC_CHANNEL_14;
 800393a:	930d      	str	r3, [sp, #52]	; 0x34
	sConfig.Rank = ADC_REGULAR_RANK_10;
 800393c:	970e      	str	r7, [sp, #56]	; 0x38
	if (HAL_ADC_ConfigChannel(&hadc1, &sConfig) != HAL_OK) {
 800393e:	f7fd f8fb 	bl	8000b38 <HAL_ADC_ConfigChannel>
	sConfig.Rank = ADC_REGULAR_RANK_11;
 8003942:	f8cd 8038 	str.w	r8, [sp, #56]	; 0x38
	hi2c1.Init.AddressingMode = I2C_ADDRESSINGMODE_7BIT;
 8003946:	f44f 4880 	mov.w	r8, #16384	; 0x4000
	if (HAL_ADC_ConfigChannel(&hadc1, &sConfig) != HAL_OK) {
 800394a:	a90d      	add	r1, sp, #52	; 0x34
 800394c:	4628      	mov	r0, r5
	sConfig.Channel = ADC_CHANNEL_15;
 800394e:	f8cd 9034 	str.w	r9, [sp, #52]	; 0x34
	if (HAL_ADC_ConfigChannel(&hadc1, &sConfig) != HAL_OK) {
 8003952:	f7fd f8f1 	bl	8000b38 <HAL_ADC_ConfigChannel>
	hi2c1.Instance = I2C1;
 8003956:	4832      	ldr	r0, [pc, #200]	; (8003a20 <main+0x2e4>)
 8003958:	4b32      	ldr	r3, [pc, #200]	; (8003a24 <main+0x2e8>)
	hi2c2.Instance = I2C2;
 800395a:	4d33      	ldr	r5, [pc, #204]	; (8003a28 <main+0x2ec>)
	hi2c1.Instance = I2C1;
 800395c:	6003      	str	r3, [r0, #0]
	hi2c1.Init.ClockSpeed = 400000;
 800395e:	4b33      	ldr	r3, [pc, #204]	; (8003a2c <main+0x2f0>)
	hi2c1.Init.DutyCycle = I2C_DUTYCYCLE_2;
 8003960:	6084      	str	r4, [r0, #8]
	hi2c1.Init.ClockSpeed = 400000;
 8003962:	6043      	str	r3, [r0, #4]
 8003964:	9304      	str	r3, [sp, #16]
	hi2c1.Init.OwnAddress1 = 0;
 8003966:	60c4      	str	r4, [r0, #12]
	hi2c1.Init.DualAddressMode = I2C_DUALADDRESS_DISABLE;
 8003968:	6144      	str	r4, [r0, #20]
	hi2c1.Init.OwnAddress2 = 0;
 800396a:	6184      	str	r4, [r0, #24]
	hi2c1.Init.GeneralCallMode = I2C_GENERALCALL_DISABLE;
 800396c:	61c4      	str	r4, [r0, #28]
	hi2c1.Init.NoStretchMode = I2C_NOSTRETCH_DISABLE;
 800396e:	6204      	str	r4, [r0, #32]
	hi2c1.Init.AddressingMode = I2C_ADDRESSINGMODE_7BIT;
 8003970:	f8c0 8010 	str.w	r8, [r0, #16]
	if (HAL_I2C_Init(&hi2c1) != HAL_OK) {
 8003974:	f7fd ff6e 	bl	8001854 <HAL_I2C_Init>
	hi2c2.Instance = I2C2;
 8003978:	4a2d      	ldr	r2, [pc, #180]	; (8003a30 <main+0x2f4>)
	hi2c2.Init.ClockSpeed = 400000;
 800397a:	9b04      	ldr	r3, [sp, #16]
	if (HAL_I2C_Init(&hi2c2) != HAL_OK) {
 800397c:	4628      	mov	r0, r5
	hi2c2.Instance = I2C2;
 800397e:	602a      	str	r2, [r5, #0]
	hi2c2.Init.ClockSpeed = 400000;
 8003980:	606b      	str	r3, [r5, #4]
	hi2c2.Init.DutyCycle = I2C_DUTYCYCLE_2;
 8003982:	60ac      	str	r4, [r5, #8]
	hi2c2.Init.OwnAddress1 = 0;
 8003984:	60ec      	str	r4, [r5, #12]
	hi2c2.Init.DualAddressMode = I2C_DUALADDRESS_DISABLE;
 8003986:	616c      	str	r4, [r5, #20]
	hi2c2.Init.OwnAddress2 = 0;
 8003988:	61ac      	str	r4, [r5, #24]
	hi2c2.Init.GeneralCallMode = I2C_GENERALCALL_DISABLE;
 800398a:	61ec      	str	r4, [r5, #28]
	hi2c2.Init.NoStretchMode = I2C_NOSTRETCH_DISABLE;
 800398c:	622c      	str	r4, [r5, #32]
	hi2c2.Init.AddressingMode = I2C_ADDRESSINGMODE_7BIT;
 800398e:	f8c5 8010 	str.w	r8, [r5, #16]
	if (HAL_I2C_Init(&hi2c2) != HAL_OK) {
 8003992:	f7fd ff5f 	bl	8001854 <HAL_I2C_Init>
	hspi1.Init.Mode = SPI_MODE_MASTER;
 8003996:	f44f 7382 	mov.w	r3, #260	; 0x104
	hspi1.Instance = SPI1;
 800399a:	4826      	ldr	r0, [pc, #152]	; (8003a34 <main+0x2f8>)
	hspi1.Init.Mode = SPI_MODE_MASTER;
 800399c:	4926      	ldr	r1, [pc, #152]	; (8003a38 <main+0x2fc>)
	hspi1.Init.Direction = SPI_DIRECTION_2LINES;
 800399e:	6084      	str	r4, [r0, #8]
	hspi1.Init.Mode = SPI_MODE_MASTER;
 80039a0:	e880 000a 	stmia.w	r0, {r1, r3}
	hspi1.Init.NSS = SPI_NSS_SOFT;
 80039a4:	f44f 7300 	mov.w	r3, #512	; 0x200
 80039a8:	6183      	str	r3, [r0, #24]
	hspi1.Init.BaudRatePrescaler = SPI_BAUDRATEPRESCALER_32;
 80039aa:	2320      	movs	r3, #32
	hspi1.Init.DataSize = SPI_DATASIZE_8BIT;
 80039ac:	60c4      	str	r4, [r0, #12]
	hspi1.Init.CLKPolarity = SPI_POLARITY_LOW;
 80039ae:	6104      	str	r4, [r0, #16]
	hspi1.Init.CLKPhase = SPI_PHASE_1EDGE;
 80039b0:	6144      	str	r4, [r0, #20]
	hspi1.Init.BaudRatePrescaler = SPI_BAUDRATEPRESCALER_32;
 80039b2:	61c3      	str	r3, [r0, #28]
	hspi1.Init.FirstBit = SPI_FIRSTBIT_MSB;
 80039b4:	6204      	str	r4, [r0, #32]
	hspi1.Init.TIMode = SPI_TIMODE_DISABLE;
 80039b6:	6244      	str	r4, [r0, #36]	; 0x24
	hspi1.Init.CRCCalculation = SPI_CRCCALCULATION_DISABLE;
 80039b8:	6284      	str	r4, [r0, #40]	; 0x28
	hspi1.Init.CRCPolynomial = 10;
 80039ba:	62c7      	str	r7, [r0, #44]	; 0x2c
	if (HAL_SPI_Init(&hspi1) != HAL_OK) {
 80039bc:	f7ff f808 	bl	80029d0 <HAL_SPI_Init>
	htim6.Init.Prescaler = 144;
 80039c0:	2290      	movs	r2, #144	; 0x90
	htim6.Instance = TIM6;
 80039c2:	4b1e      	ldr	r3, [pc, #120]	; (8003a3c <main+0x300>)
	htim6.Init.Prescaler = 144;
 80039c4:	481e      	ldr	r0, [pc, #120]	; (8003a40 <main+0x304>)
	htim6.Init.CounterMode = TIM_COUNTERMODE_UP;
 80039c6:	609c      	str	r4, [r3, #8]
	htim6.Init.Prescaler = 144;
 80039c8:	e883 0005 	stmia.w	r3, {r0, r2}
	htim6.Init.Period = 9999;
 80039cc:	f242 720f 	movw	r2, #9999	; 0x270f
	if (HAL_TIM_Base_Init(&htim6) != HAL_OK) {
 80039d0:	4618      	mov	r0, r3
	htim6.Init.Period = 9999;
 80039d2:	60da      	str	r2, [r3, #12]
	htim6.Init.AutoReloadPreload = TIM_AUTORELOAD_PRELOAD_DISABLE;
 80039d4:	619c      	str	r4, [r3, #24]
	TIM_MasterConfigTypeDef sMasterConfig = { 0 };
 80039d6:	940d      	str	r4, [sp, #52]	; 0x34
 80039d8:	940e      	str	r4, [sp, #56]	; 0x38
	if (HAL_TIM_Base_Init(&htim6) != HAL_OK) {
 80039da:	9304      	str	r3, [sp, #16]
 80039dc:	f7ff fb88 	bl	80030f0 <HAL_TIM_Base_Init>
	if (HAL_TIMEx_MasterConfigSynchronization(&htim6, &sMasterConfig)
 80039e0:	9b04      	ldr	r3, [sp, #16]
 80039e2:	a90d      	add	r1, sp, #52	; 0x34
 80039e4:	4618      	mov	r0, r3
	sMasterConfig.MasterOutputTrigger = TIM_TRGO_RESET;
 80039e6:	940d      	str	r4, [sp, #52]	; 0x34
	sMasterConfig.MasterSlaveMode = TIM_MASTERSLAVEMODE_DISABLE;
 80039e8:	940e      	str	r4, [sp, #56]	; 0x38
	if (HAL_TIMEx_MasterConfigSynchronization(&htim6, &sMasterConfig)
 80039ea:	f7ff fbe6 	bl	80031ba <HAL_TIMEx_MasterConfigSynchronization>
	huart2.Instance = USART2;
 80039ee:	4815      	ldr	r0, [pc, #84]	; (8003a44 <main+0x308>)
 80039f0:	4b15      	ldr	r3, [pc, #84]	; (8003a48 <main+0x30c>)
	huart2.Init.WordLength = UART_WORDLENGTH_8B;
 80039f2:	6084      	str	r4, [r0, #8]
	huart2.Instance = USART2;
 80039f4:	6003      	str	r3, [r0, #0]
	huart2.Init.BaudRate = 115200;
 80039f6:	f44f 33e1 	mov.w	r3, #115200	; 0x1c200
	huart2.Init.StopBits = UART_STOPBITS_1;
 80039fa:	60c4      	str	r4, [r0, #12]
	huart2.Init.BaudRate = 115200;
 80039fc:	6043      	str	r3, [r0, #4]
 80039fe:	9304      	str	r3, [sp, #16]
 8003a00:	e024      	b.n	8003a4c <main+0x310>
 8003a02:	bf00      	nop
 8003a04:	40021000 	.word	0x40021000
 8003a08:	40010800 	.word	0x40010800
 8003a0c:	40010c00 	.word	0x40010c00
 8003a10:	40011000 	.word	0x40011000
 8003a14:	10110000 	.word	0x10110000
 8003a18:	2000069c 	.word	0x2000069c
 8003a1c:	40012400 	.word	0x40012400
 8003a20:	200005e4 	.word	0x200005e4
 8003a24:	40005400 	.word	0x40005400
 8003a28:	20000638 	.word	0x20000638
 8003a2c:	00061a80 	.word	0x00061a80
 8003a30:	40005800 	.word	0x40005800
 8003a34:	200007b0 	.word	0x200007b0
 8003a38:	40013000 	.word	0x40013000
 8003a3c:	20000730 	.word	0x20000730
 8003a40:	40001000 	.word	0x40001000
 8003a44:	2000080c 	.word	0x2000080c
 8003a48:	40004400 	.word	0x40004400
	huart2.Init.Parity = UART_PARITY_NONE;
 8003a4c:	6104      	str	r4, [r0, #16]
	huart2.Init.Mode = UART_MODE_TX_RX;
 8003a4e:	f8c0 b014 	str.w	fp, [r0, #20]
	huart2.Init.HwFlowCtl = UART_HWCONTROL_NONE;
 8003a52:	6184      	str	r4, [r0, #24]
	huart2.Init.OverSampling = UART_OVERSAMPLING_16;
 8003a54:	61c4      	str	r4, [r0, #28]
	if (HAL_UART_Init(&huart2) != HAL_OK) {
 8003a56:	f7ff fc33 	bl	80032c0 <HAL_UART_Init>
	huart3.Instance = USART3;
 8003a5a:	4861      	ldr	r0, [pc, #388]	; (8003be0 <main+0x4a4>)
	huart3.Init.BaudRate = 115200;
 8003a5c:	9b04      	ldr	r3, [sp, #16]
	huart3.Instance = USART3;
 8003a5e:	4a61      	ldr	r2, [pc, #388]	; (8003be4 <main+0x4a8>)
	huart3.Init.BaudRate = 115200;
 8003a60:	6043      	str	r3, [r0, #4]
	huart3.Instance = USART3;
 8003a62:	6002      	str	r2, [r0, #0]
	huart3.Init.WordLength = UART_WORDLENGTH_8B;
 8003a64:	6084      	str	r4, [r0, #8]
	huart3.Init.StopBits = UART_STOPBITS_1;
 8003a66:	60c4      	str	r4, [r0, #12]
	huart3.Init.Parity = UART_PARITY_NONE;
 8003a68:	6104      	str	r4, [r0, #16]
	huart3.Init.Mode = UART_MODE_TX_RX;
 8003a6a:	f8c0 b014 	str.w	fp, [r0, #20]
	huart3.Init.HwFlowCtl = UART_HWCONTROL_NONE;
 8003a6e:	6184      	str	r4, [r0, #24]
	huart3.Init.OverSampling = UART_OVERSAMPLING_16;
 8003a70:	61c4      	str	r4, [r0, #28]
	if (HAL_UART_Init(&huart3) != HAL_OK) {
 8003a72:	f7ff fc25 	bl	80032c0 <HAL_UART_Init>
	TIM_Encoder_InitTypeDef sConfig = { 0 };
 8003a76:	2224      	movs	r2, #36	; 0x24
 8003a78:	4621      	mov	r1, r4
 8003a7a:	a80d      	add	r0, sp, #52	; 0x34
 8003a7c:	f001 ff19 	bl	80058b2 <memset>
	htim1.Instance = TIM1;
 8003a80:	f8df b18c 	ldr.w	fp, [pc, #396]	; 8003c10 <main+0x4d4>
 8003a84:	4b58      	ldr	r3, [pc, #352]	; (8003be8 <main+0x4ac>)
	if (HAL_TIM_Encoder_Init(&htim1, &sConfig) != HAL_OK) {
 8003a86:	a90d      	add	r1, sp, #52	; 0x34
	htim1.Init.Prescaler = 0;
 8003a88:	e88b 0018 	stmia.w	fp, {r3, r4}
	htim1.Init.Period = 23;
 8003a8c:	2317      	movs	r3, #23
	if (HAL_TIM_Encoder_Init(&htim1, &sConfig) != HAL_OK) {
 8003a8e:	4658      	mov	r0, fp
	htim1.Init.Period = 23;
 8003a90:	f8cb 300c 	str.w	r3, [fp, #12]
	TIM_MasterConfigTypeDef sMasterConfig = { 0 };
 8003a94:	940b      	str	r4, [sp, #44]	; 0x2c
 8003a96:	940c      	str	r4, [sp, #48]	; 0x30
	htim1.Init.CounterMode = TIM_COUNTERMODE_UP;
 8003a98:	f8cb 4008 	str.w	r4, [fp, #8]
	htim1.Init.ClockDivision = TIM_CLOCKDIVISION_DIV1;
 8003a9c:	f8cb 4010 	str.w	r4, [fp, #16]
	htim1.Init.RepetitionCounter = 0;
 8003aa0:	f8cb 4014 	str.w	r4, [fp, #20]
	htim1.Init.AutoReloadPreload = TIM_AUTORELOAD_PRELOAD_DISABLE;
 8003aa4:	f8cb 4018 	str.w	r4, [fp, #24]
	sConfig.EncoderMode = TIM_ENCODERMODE_TI12;
 8003aa8:	f8cd a034 	str.w	sl, [sp, #52]	; 0x34
	sConfig.IC1Selection = TIM_ICSELECTION_DIRECTTI;
 8003aac:	960f      	str	r6, [sp, #60]	; 0x3c
	sConfig.IC1Filter = 15;
 8003aae:	f8cd 9044 	str.w	r9, [sp, #68]	; 0x44
	sConfig.IC2Selection = TIM_ICSELECTION_DIRECTTI;
 8003ab2:	9613      	str	r6, [sp, #76]	; 0x4c
	sConfig.IC2Filter = 15;
 8003ab4:	f8cd 9054 	str.w	r9, [sp, #84]	; 0x54
	if (HAL_TIM_Encoder_Init(&htim1, &sConfig) != HAL_OK) {
 8003ab8:	f7ff fb34 	bl	8003124 <HAL_TIM_Encoder_Init>
	if (HAL_TIMEx_MasterConfigSynchronization(&htim1, &sMasterConfig)
 8003abc:	a90b      	add	r1, sp, #44	; 0x2c
 8003abe:	4658      	mov	r0, fp
	sMasterConfig.MasterOutputTrigger = TIM_TRGO_RESET;
 8003ac0:	940b      	str	r4, [sp, #44]	; 0x2c
	sMasterConfig.MasterSlaveMode = TIM_MASTERSLAVEMODE_DISABLE;
 8003ac2:	940c      	str	r4, [sp, #48]	; 0x30
	if (HAL_TIMEx_MasterConfigSynchronization(&htim1, &sMasterConfig)
 8003ac4:	f7ff fb79 	bl	80031ba <HAL_TIMEx_MasterConfigSynchronization>
	oledInit();
 8003ac8:	f000 fe9a 	bl	8004800 <oledInit>
	oledPrintInitScreen();
 8003acc:	f000 fea8 	bl	8004820 <oledPrintInitScreen>
	initNRF24andPrintStatus();
 8003ad0:	f000 fe56 	bl	8004780 <initNRF24andPrintStatus>
	HAL_GPIO_WritePin(MPU_PWR_GPIO_Port, MPU_PWR_Pin, SET); //wlacz zasilanie do MPU
 8003ad4:	4632      	mov	r2, r6
 8003ad6:	4641      	mov	r1, r8
 8003ad8:	4844      	ldr	r0, [pc, #272]	; (8003bec <main+0x4b0>)
 8003ada:	f7fd fcd3 	bl	8001484 <HAL_GPIO_WritePin>
	HAL_Delay(10);
 8003ade:	4638      	mov	r0, r7
 8003ae0:	f7fc ffdc 	bl	8000a9c <HAL_Delay>
	mpu_result = MPU6050_Init(&hi2c2, &imu, MPU6050_Device_0,
 8003ae4:	4623      	mov	r3, r4
 8003ae6:	4622      	mov	r2, r4
 8003ae8:	9400      	str	r4, [sp, #0]
 8003aea:	4941      	ldr	r1, [pc, #260]	; (8003bf0 <main+0x4b4>)
 8003aec:	4628      	mov	r0, r5
 8003aee:	f7ff fd2f 	bl	8003550 <MPU6050_Init>
 8003af2:	4c40      	ldr	r4, [pc, #256]	; (8003bf4 <main+0x4b8>)
 8003af4:	7020      	strb	r0, [r4, #0]
	HAL_Delay(10);
 8003af6:	4638      	mov	r0, r7
 8003af8:	f7fc ffd0 	bl	8000a9c <HAL_Delay>
	rc_status.mpu_init_succes = mpu_result;
 8003afc:	7823      	ldrb	r3, [r4, #0]
 8003afe:	4a3e      	ldr	r2, [pc, #248]	; (8003bf8 <main+0x4bc>)
 8003b00:	7313      	strb	r3, [r2, #12]
	if (mpu_result == MPU6050_Result_Ok) {
 8003b02:	2b00      	cmp	r3, #0
 8003b04:	d15f      	bne.n	8003bc6 <main+0x48a>
		printf("MPU6050  initialization SUCCESS!\n");
 8003b06:	483d      	ldr	r0, [pc, #244]	; (8003bfc <main+0x4c0>)
	HAL_I2C_Mem_Read(&hi2c1, EEPROM_ADDRESS, 0, 0xFF, data_to_read, 1, 10);
 8003b08:	250a      	movs	r5, #10
 8003b0a:	2601      	movs	r6, #1
		printf("MPU6050 initialization FAIL!\n");
 8003b0c:	f001 ff4e 	bl	80059ac <puts>
	update_rc_mode(RC_SIMPLE_JOYSTICK);
 8003b10:	2001      	movs	r0, #1
 8003b12:	f001 f85f 	bl	8004bd4 <update_rc_mode>
	HAL_ADC_Start_DMA(&hadc1, (uint32_t*) adc_values, 11);
 8003b16:	220b      	movs	r2, #11
 8003b18:	4939      	ldr	r1, [pc, #228]	; (8003c00 <main+0x4c4>)
 8003b1a:	483a      	ldr	r0, [pc, #232]	; (8003c04 <main+0x4c8>)
 8003b1c:	f7fd f8c8 	bl	8000cb0 <HAL_ADC_Start_DMA>
	HAL_I2C_Mem_Read(&hi2c1, EEPROM_ADDRESS, 0, 0xFF, data_to_read, 1, 10);
 8003b20:	4c39      	ldr	r4, [pc, #228]	; (8003c08 <main+0x4cc>)
	HAL_TIM_Base_Start_IT(&htim6);
 8003b22:	483a      	ldr	r0, [pc, #232]	; (8003c0c <main+0x4d0>)
 8003b24:	f7ff f9bf 	bl	8002ea6 <HAL_TIM_Base_Start_IT>
	HAL_TIM_Encoder_Start(&htim1, TIM_CHANNEL_ALL);
 8003b28:	213c      	movs	r1, #60	; 0x3c
 8003b2a:	4839      	ldr	r0, [pc, #228]	; (8003c10 <main+0x4d4>)
 8003b2c:	f7ff f9cb 	bl	8002ec6 <HAL_TIM_Encoder_Start>
	HAL_I2C_Mem_Read(&hi2c1, EEPROM_ADDRESS, 0, 0xFF, data_to_read, 1, 10);
 8003b30:	23ff      	movs	r3, #255	; 0xff
 8003b32:	2200      	movs	r2, #0
 8003b34:	21a0      	movs	r1, #160	; 0xa0
 8003b36:	9502      	str	r5, [sp, #8]
 8003b38:	9601      	str	r6, [sp, #4]
 8003b3a:	9400      	str	r4, [sp, #0]
 8003b3c:	4835      	ldr	r0, [pc, #212]	; (8003c14 <main+0x4d8>)
 8003b3e:	f7fe fa03 	bl	8001f48 <HAL_I2C_Mem_Read>
	HAL_Delay(10);
 8003b42:	4628      	mov	r0, r5
 8003b44:	f7fc ffaa 	bl	8000a9c <HAL_Delay>
	data_to_read[0]++;
 8003b48:	7823      	ldrb	r3, [r4, #0]
	HAL_I2C_Mem_Write(&hi2c1, EEPROM_ADDRESS, 0, 0xFF, data_to_read, 1, 10);
 8003b4a:	2200      	movs	r2, #0
	data_to_read[0]++;
 8003b4c:	4433      	add	r3, r6
 8003b4e:	7023      	strb	r3, [r4, #0]
	HAL_I2C_Mem_Write(&hi2c1, EEPROM_ADDRESS, 0, 0xFF, data_to_read, 1, 10);
 8003b50:	21a0      	movs	r1, #160	; 0xa0
 8003b52:	9502      	str	r5, [sp, #8]
 8003b54:	e88d 0050 	stmia.w	sp, {r4, r6}
 8003b58:	23ff      	movs	r3, #255	; 0xff
 8003b5a:	482e      	ldr	r0, [pc, #184]	; (8003c14 <main+0x4d8>)
 8003b5c:	f7fe f964 	bl	8001e28 <HAL_I2C_Mem_Write>
	HAL_Delay(10);
 8003b60:	4628      	mov	r0, r5
 8003b62:	f7fc ff9b 	bl	8000a9c <HAL_Delay>
	for (int i = 0; i < 5; i++) {
 8003b66:	2500      	movs	r5, #0
		printf("%3d\t", data_to_read[i]);
 8003b68:	4e2b      	ldr	r6, [pc, #172]	; (8003c18 <main+0x4dc>)
 8003b6a:	5d61      	ldrb	r1, [r4, r5]
 8003b6c:	4630      	mov	r0, r6
	for (int i = 0; i < 5; i++) {
 8003b6e:	3501      	adds	r5, #1
		printf("%3d\t", data_to_read[i]);
 8003b70:	f001 fea8 	bl	80058c4 <iprintf>
	for (int i = 0; i < 5; i++) {
 8003b74:	2d05      	cmp	r5, #5
 8003b76:	d1f8      	bne.n	8003b6a <main+0x42e>
	printf("\r\n");
 8003b78:	4828      	ldr	r0, [pc, #160]	; (8003c1c <main+0x4e0>)
 8003b7a:	f001 ff17 	bl	80059ac <puts>
	calibrate_channel(5,2000);
 8003b7e:	f44f 61fa 	mov.w	r1, #2000	; 0x7d0
 8003b82:	4628      	mov	r0, r5
 8003b84:	f001 f8b8 	bl	8004cf8 <calibrate_channel>
	calibrate_channel(6,2000);
 8003b88:	f44f 61fa 	mov.w	r1, #2000	; 0x7d0
 8003b8c:	2006      	movs	r0, #6
 8003b8e:	f001 f8b3 	bl	8004cf8 <calibrate_channel>
	calibrate_channel(7,2000);
 8003b92:	f44f 61fa 	mov.w	r1, #2000	; 0x7d0
 8003b96:	2007      	movs	r0, #7
 8003b98:	f001 f8ae 	bl	8004cf8 <calibrate_channel>
	calibrate_channel(8,2000);
 8003b9c:	f44f 61fa 	mov.w	r1, #2000	; 0x7d0
 8003ba0:	2008      	movs	r0, #8
 8003ba2:	f001 f8a9 	bl	8004cf8 <calibrate_channel>
 8003ba6:	4c1e      	ldr	r4, [pc, #120]	; (8003c20 <main+0x4e4>)
 8003ba8:	4e1e      	ldr	r6, [pc, #120]	; (8003c24 <main+0x4e8>)
		for (pointer_to_task = timed_task; pointer_to_task->interval != 0;
 8003baa:	f836 5c08 	ldrh.w	r5, [r6, #-8]
 8003bae:	b965      	cbnz	r5, 8003bca <main+0x48e>
		HAL_Delay(1);
 8003bb0:	2001      	movs	r0, #1
 8003bb2:	f7fc ff73 	bl	8000a9c <HAL_Delay>
		tick++;
 8003bb6:	6823      	ldr	r3, [r4, #0]
 8003bb8:	3301      	adds	r3, #1
		if (tick > 1000) {
 8003bba:	f5b3 7f7a 	cmp.w	r3, #1000	; 0x3e8
			tick = 0;
 8003bbe:	bf88      	it	hi
 8003bc0:	462b      	movhi	r3, r5
 8003bc2:	6023      	str	r3, [r4, #0]
 8003bc4:	e7f0      	b.n	8003ba8 <main+0x46c>
		printf("MPU6050 initialization FAIL!\n");
 8003bc6:	4818      	ldr	r0, [pc, #96]	; (8003c28 <main+0x4ec>)
 8003bc8:	e79e      	b.n	8003b08 <main+0x3cc>
			if (!(tick % pointer_to_task->interval)) {
 8003bca:	6822      	ldr	r2, [r4, #0]
 8003bcc:	fbb2 f3f5 	udiv	r3, r2, r5
 8003bd0:	fb05 2313 	mls	r3, r5, r3, r2
 8003bd4:	b913      	cbnz	r3, 8003bdc <main+0x4a0>
				(pointer_to_task->proc)();
 8003bd6:	f856 3c04 	ldr.w	r3, [r6, #-4]
 8003bda:	4798      	blx	r3
 8003bdc:	3608      	adds	r6, #8
 8003bde:	e7e4      	b.n	8003baa <main+0x46e>
 8003be0:	200005a4 	.word	0x200005a4
 8003be4:	40004800 	.word	0x40004800
 8003be8:	40012c00 	.word	0x40012c00
 8003bec:	40010c00 	.word	0x40010c00
 8003bf0:	20000588 	.word	0x20000588
 8003bf4:	20000808 	.word	0x20000808
 8003bf8:	200008c0 	.word	0x200008c0
 8003bfc:	080072b4 	.word	0x080072b4
 8003c00:	2000084c 	.word	0x2000084c
 8003c04:	2000069c 	.word	0x2000069c
 8003c08:	2000068c 	.word	0x2000068c
 8003c0c:	20000730 	.word	0x20000730
 8003c10:	20000770 	.word	0x20000770
 8003c14:	200005e4 	.word	0x200005e4
 8003c18:	080072f2 	.word	0x080072f2
 8003c1c:	080072f7 	.word	0x080072f7
 8003c20:	200000a8 	.word	0x200000a8
 8003c24:	0800730c 	.word	0x0800730c
 8003c28:	080072d5 	.word	0x080072d5

08003c2c <_write>:
int _write(int fd, char *str, int len) {
 8003c2c:	b510      	push	{r4, lr}
 8003c2e:	4614      	mov	r4, r2
	HAL_UART_Transmit(&DEBUG_UART, (uint8_t *) str, len, 10);  // usart2 - debug
 8003c30:	230a      	movs	r3, #10
 8003c32:	b292      	uxth	r2, r2
 8003c34:	4802      	ldr	r0, [pc, #8]	; (8003c40 <_write+0x14>)
 8003c36:	f7ff fb71 	bl	800331c <HAL_UART_Transmit>
}
 8003c3a:	4620      	mov	r0, r4
 8003c3c:	bd10      	pop	{r4, pc}
 8003c3e:	bf00      	nop
 8003c40:	200005a4 	.word	0x200005a4

08003c44 <HAL_TIM_PeriodElapsedCallback>:

/// HAL CALLBACK OVERRIDE
void HAL_TIM_PeriodElapsedCallback(TIM_HandleTypeDef *htim) {
	static uint8_t mig = 10;

	mig--;
 8003c44:	4a07      	ldr	r2, [pc, #28]	; (8003c64 <HAL_TIM_PeriodElapsedCallback+0x20>)
 8003c46:	7813      	ldrb	r3, [r2, #0]
 8003c48:	3b01      	subs	r3, #1
	if (!mig) {
 8003c4a:	f013 03ff 	ands.w	r3, r3, #255	; 0xff
		mig = 10;
 8003c4e:	bf01      	itttt	eq
 8003c50:	230a      	moveq	r3, #10
 8003c52:	7013      	strbeq	r3, [r2, #0]
		enc_rotation = TIM1->CNT / 4;
 8003c54:	4b04      	ldreq	r3, [pc, #16]	; (8003c68 <HAL_TIM_PeriodElapsedCallback+0x24>)
 8003c56:	4a05      	ldreq	r2, [pc, #20]	; (8003c6c <HAL_TIM_PeriodElapsedCallback+0x28>)
 8003c58:	bf04      	itt	eq
 8003c5a:	6a5b      	ldreq	r3, [r3, #36]	; 0x24
 8003c5c:	089b      	lsreq	r3, r3, #2
 8003c5e:	7013      	strb	r3, [r2, #0]
 8003c60:	4770      	bx	lr
 8003c62:	bf00      	nop
 8003c64:	20000011 	.word	0x20000011
 8003c68:	40012c00 	.word	0x40012c00
 8003c6c:	200000a5 	.word	0x200000a5

08003c70 <HAL_GPIO_EXTI_Callback>:

}

void HAL_GPIO_EXTI_Callback(uint16_t GPIO_Pin) {

	if (GPIO_Pin == ENC_PB_Pin) {
 8003c70:	f5b0 6f80 	cmp.w	r0, #1024	; 0x400
void HAL_GPIO_EXTI_Callback(uint16_t GPIO_Pin) {
 8003c74:	b508      	push	{r3, lr}
	if (GPIO_Pin == ENC_PB_Pin) {
 8003c76:	d114      	bne.n	8003ca2 <HAL_GPIO_EXTI_Callback+0x32>
		HAL_GPIO_TogglePin(LED_MODE_GPIO_Port, LED_MODE_Pin);
 8003c78:	f100 4080 	add.w	r0, r0, #1073741824	; 0x40000000
 8003c7c:	f44f 7100 	mov.w	r1, #512	; 0x200
 8003c80:	f500 3086 	add.w	r0, r0, #68608	; 0x10c00
 8003c84:	f7fd fc03 	bl	800148e <HAL_GPIO_TogglePin>

		enc_clicks++;
 8003c88:	4a06      	ldr	r2, [pc, #24]	; (8003ca4 <HAL_GPIO_EXTI_Callback+0x34>)
 8003c8a:	7813      	ldrb	r3, [r2, #0]
 8003c8c:	3301      	adds	r3, #1
 8003c8e:	b2db      	uxtb	r3, r3
		if (enc_clicks > 3) {
 8003c90:	2b03      	cmp	r3, #3

			enc_clicks = 0;
 8003c92:	bf81      	itttt	hi
 8003c94:	2300      	movhi	r3, #0
 8003c96:	7013      	strbhi	r3, [r2, #0]

			chan_calib++;
 8003c98:	4a03      	ldrhi	r2, [pc, #12]	; (8003ca8 <HAL_GPIO_EXTI_Callback+0x38>)
 8003c9a:	7813      	ldrbhi	r3, [r2, #0]
 8003c9c:	bf88      	it	hi
 8003c9e:	3301      	addhi	r3, #1
 8003ca0:	7013      	strb	r3, [r2, #0]
 8003ca2:	bd08      	pop	{r3, pc}
 8003ca4:	200000a4 	.word	0x200000a4
 8003ca8:	20000010 	.word	0x20000010

08003cac <Error_Handler>:

/**
 * @brief  This function is executed in case of error occurrence.
 * @retval None
 */
void Error_Handler(void) {
 8003cac:	4770      	bx	lr
	...

08003cb0 <NRF24_csn.part.0>:
}

//1. Chip Select function
void NRF24_csn(int state) {
	if (state)
		HAL_GPIO_WritePin(nrf24_PORT, nrf24_CSN_PIN, GPIO_PIN_SET);
 8003cb0:	4b03      	ldr	r3, [pc, #12]	; (8003cc0 <NRF24_csn.part.0+0x10>)
 8003cb2:	2201      	movs	r2, #1
 8003cb4:	8819      	ldrh	r1, [r3, #0]
 8003cb6:	4b03      	ldr	r3, [pc, #12]	; (8003cc4 <NRF24_csn.part.0+0x14>)
 8003cb8:	6818      	ldr	r0, [r3, #0]
 8003cba:	f7fd bbe3 	b.w	8001484 <HAL_GPIO_WritePin>
 8003cbe:	bf00      	nop
 8003cc0:	200000b0 	.word	0x200000b0
 8003cc4:	200000b4 	.word	0x200000b4

08003cc8 <NRF24_ce.part.1>:
		HAL_GPIO_WritePin(nrf24_PORT, nrf24_CSN_PIN, GPIO_PIN_RESET);
}
//2. Chip Enable
void NRF24_ce(int state) {
	if (state)
		HAL_GPIO_WritePin(nrf24_PORT, nrf24_CE_PIN, GPIO_PIN_SET);
 8003cc8:	4b03      	ldr	r3, [pc, #12]	; (8003cd8 <NRF24_ce.part.1+0x10>)
 8003cca:	2201      	movs	r2, #1
 8003ccc:	8819      	ldrh	r1, [r3, #0]
 8003cce:	4b03      	ldr	r3, [pc, #12]	; (8003cdc <NRF24_ce.part.1+0x14>)
 8003cd0:	6818      	ldr	r0, [r3, #0]
 8003cd2:	f7fd bbd7 	b.w	8001484 <HAL_GPIO_WritePin>
 8003cd6:	bf00      	nop
 8003cd8:	200000ae 	.word	0x200000ae
 8003cdc:	200000b4 	.word	0x200000b4

08003ce0 <NRF24_csn>:
	if (state)
 8003ce0:	4602      	mov	r2, r0
 8003ce2:	b108      	cbz	r0, 8003ce8 <NRF24_csn+0x8>
 8003ce4:	f7ff bfe4 	b.w	8003cb0 <NRF24_csn.part.0>
		HAL_GPIO_WritePin(nrf24_PORT, nrf24_CSN_PIN, GPIO_PIN_RESET);
 8003ce8:	4b02      	ldr	r3, [pc, #8]	; (8003cf4 <NRF24_csn+0x14>)
 8003cea:	8819      	ldrh	r1, [r3, #0]
 8003cec:	4b02      	ldr	r3, [pc, #8]	; (8003cf8 <NRF24_csn+0x18>)
 8003cee:	6818      	ldr	r0, [r3, #0]
 8003cf0:	f7fd bbc8 	b.w	8001484 <HAL_GPIO_WritePin>
 8003cf4:	200000b0 	.word	0x200000b0
 8003cf8:	200000b4 	.word	0x200000b4

08003cfc <NRF24_ce>:
	if (state)
 8003cfc:	4602      	mov	r2, r0
 8003cfe:	b108      	cbz	r0, 8003d04 <NRF24_ce+0x8>
 8003d00:	f7ff bfe2 	b.w	8003cc8 <NRF24_ce.part.1>
	else
		HAL_GPIO_WritePin(nrf24_PORT, nrf24_CE_PIN, GPIO_PIN_RESET);
 8003d04:	4b02      	ldr	r3, [pc, #8]	; (8003d10 <NRF24_ce+0x14>)
 8003d06:	8819      	ldrh	r1, [r3, #0]
 8003d08:	4b02      	ldr	r3, [pc, #8]	; (8003d14 <NRF24_ce+0x18>)
 8003d0a:	6818      	ldr	r0, [r3, #0]
 8003d0c:	f7fd bbba 	b.w	8001484 <HAL_GPIO_WritePin>
 8003d10:	200000ae 	.word	0x200000ae
 8003d14:	200000b4 	.word	0x200000b4

08003d18 <NRF24_read_register>:
}
//3. Read single byte from a register
uint8_t NRF24_read_register(uint8_t reg) {
 8003d18:	b513      	push	{r0, r1, r4, lr}
 8003d1a:	4604      	mov	r4, r0
	uint8_t spiBuf[3];
	uint8_t retData;
	//Put CSN low
	NRF24_csn(0);
 8003d1c:	2000      	movs	r0, #0
 8003d1e:	f7ff ffdf 	bl	8003ce0 <NRF24_csn>
	//Transmit register address
	spiBuf[0] = reg & 0x1F;
 8003d22:	f004 041f 	and.w	r4, r4, #31
 8003d26:	a902      	add	r1, sp, #8
 8003d28:	f801 4d04 	strb.w	r4, [r1, #-4]!
	HAL_SPI_Transmit(&nrf24_hspi, spiBuf, 1, 100);
 8003d2c:	4c09      	ldr	r4, [pc, #36]	; (8003d54 <NRF24_read_register+0x3c>)
 8003d2e:	2364      	movs	r3, #100	; 0x64
 8003d30:	2201      	movs	r2, #1
 8003d32:	4620      	mov	r0, r4
 8003d34:	f7fe fe87 	bl	8002a46 <HAL_SPI_Transmit>
	//Receive data
	HAL_SPI_Receive(&nrf24_hspi, &spiBuf[1], 1, 100);
 8003d38:	2364      	movs	r3, #100	; 0x64
 8003d3a:	2201      	movs	r2, #1
 8003d3c:	f10d 0105 	add.w	r1, sp, #5
 8003d40:	4620      	mov	r0, r4
 8003d42:	f7ff f819 	bl	8002d78 <HAL_SPI_Receive>
	retData = spiBuf[1];
 8003d46:	f89d 4005 	ldrb.w	r4, [sp, #5]
 8003d4a:	f7ff ffb1 	bl	8003cb0 <NRF24_csn.part.0>
	//Bring CSN high
	NRF24_csn(1);
	return retData;
}
 8003d4e:	4620      	mov	r0, r4
 8003d50:	b002      	add	sp, #8
 8003d52:	bd10      	pop	{r4, pc}
 8003d54:	200000b8 	.word	0x200000b8

08003d58 <NRF24_read_registerN>:
//4. Read multiple bytes register
void NRF24_read_registerN(uint8_t reg, uint8_t *buf, uint8_t len) {
 8003d58:	b573      	push	{r0, r1, r4, r5, r6, lr}
 8003d5a:	4604      	mov	r4, r0
 8003d5c:	460d      	mov	r5, r1
 8003d5e:	4616      	mov	r6, r2
	uint8_t spiBuf[3];
	//Put CSN low
	NRF24_csn(0);
 8003d60:	2000      	movs	r0, #0
 8003d62:	f7ff ffbd 	bl	8003ce0 <NRF24_csn>
	//Transmit register address
	spiBuf[0] = reg & 0x1F;
 8003d66:	f004 041f 	and.w	r4, r4, #31
 8003d6a:	a902      	add	r1, sp, #8
 8003d6c:	f801 4d04 	strb.w	r4, [r1, #-4]!
	//spiStatus = NRF24_SPI_Write(spiBuf, 1);
	HAL_SPI_Transmit(&nrf24_hspi, spiBuf, 1, 100);
 8003d70:	4c07      	ldr	r4, [pc, #28]	; (8003d90 <NRF24_read_registerN+0x38>)
 8003d72:	2364      	movs	r3, #100	; 0x64
 8003d74:	2201      	movs	r2, #1
 8003d76:	4620      	mov	r0, r4
 8003d78:	f7fe fe65 	bl	8002a46 <HAL_SPI_Transmit>
	//Receive data
	HAL_SPI_Receive(&nrf24_hspi, buf, len, 100);
 8003d7c:	2364      	movs	r3, #100	; 0x64
 8003d7e:	4632      	mov	r2, r6
 8003d80:	4629      	mov	r1, r5
 8003d82:	4620      	mov	r0, r4
 8003d84:	f7fe fff8 	bl	8002d78 <HAL_SPI_Receive>
 8003d88:	f7ff ff92 	bl	8003cb0 <NRF24_csn.part.0>
	//Bring CSN high
	NRF24_csn(1);
}
 8003d8c:	b002      	add	sp, #8
 8003d8e:	bd70      	pop	{r4, r5, r6, pc}
 8003d90:	200000b8 	.word	0x200000b8

08003d94 <NRF24_write_register>:
//5. Write single byte register
void NRF24_write_register(uint8_t reg, uint8_t value) {
 8003d94:	b537      	push	{r0, r1, r2, r4, r5, lr}
 8003d96:	4604      	mov	r4, r0
 8003d98:	460d      	mov	r5, r1
	uint8_t spiBuf[3];
	//Put CSN low
	NRF24_csn(0);
 8003d9a:	2000      	movs	r0, #0
 8003d9c:	f7ff ffa0 	bl	8003ce0 <NRF24_csn>
	//Transmit register address and data
	spiBuf[0] = reg | 0x20;
 8003da0:	f044 0420 	orr.w	r4, r4, #32
	spiBuf[1] = value;
	HAL_SPI_Transmit(&nrf24_hspi, spiBuf, 2, 100);
 8003da4:	2364      	movs	r3, #100	; 0x64
 8003da6:	2202      	movs	r2, #2
 8003da8:	a901      	add	r1, sp, #4
 8003daa:	4805      	ldr	r0, [pc, #20]	; (8003dc0 <NRF24_write_register+0x2c>)
	spiBuf[0] = reg | 0x20;
 8003dac:	f88d 4004 	strb.w	r4, [sp, #4]
	spiBuf[1] = value;
 8003db0:	f88d 5005 	strb.w	r5, [sp, #5]
	HAL_SPI_Transmit(&nrf24_hspi, spiBuf, 2, 100);
 8003db4:	f7fe fe47 	bl	8002a46 <HAL_SPI_Transmit>
 8003db8:	f7ff ff7a 	bl	8003cb0 <NRF24_csn.part.0>
	//Bring CSN high
	NRF24_csn(1);
}
 8003dbc:	b003      	add	sp, #12
 8003dbe:	bd30      	pop	{r4, r5, pc}
 8003dc0:	200000b8 	.word	0x200000b8

08003dc4 <NRF24_write_registerN>:
//6. Write multipl bytes register
void NRF24_write_registerN(uint8_t reg, const uint8_t* buf, uint8_t len) {
 8003dc4:	b573      	push	{r0, r1, r4, r5, r6, lr}
 8003dc6:	4604      	mov	r4, r0
 8003dc8:	460d      	mov	r5, r1
 8003dca:	4616      	mov	r6, r2
	uint8_t spiBuf[3];
	//Put CSN low
	NRF24_csn(0);
 8003dcc:	2000      	movs	r0, #0
 8003dce:	f7ff ff87 	bl	8003ce0 <NRF24_csn>
	//Transmit register address and data
	spiBuf[0] = reg | 0x20;
 8003dd2:	f044 0420 	orr.w	r4, r4, #32
 8003dd6:	a902      	add	r1, sp, #8
 8003dd8:	f801 4d04 	strb.w	r4, [r1, #-4]!
	HAL_SPI_Transmit(&nrf24_hspi, spiBuf, 1, 100);
 8003ddc:	4c07      	ldr	r4, [pc, #28]	; (8003dfc <NRF24_write_registerN+0x38>)
 8003dde:	2364      	movs	r3, #100	; 0x64
 8003de0:	2201      	movs	r2, #1
 8003de2:	4620      	mov	r0, r4
 8003de4:	f7fe fe2f 	bl	8002a46 <HAL_SPI_Transmit>
	HAL_SPI_Transmit(&nrf24_hspi, (uint8_t*) buf, len, 100);
 8003de8:	2364      	movs	r3, #100	; 0x64
 8003dea:	4632      	mov	r2, r6
 8003dec:	4629      	mov	r1, r5
 8003dee:	4620      	mov	r0, r4
 8003df0:	f7fe fe29 	bl	8002a46 <HAL_SPI_Transmit>
 8003df4:	f7ff ff5c 	bl	8003cb0 <NRF24_csn.part.0>
	//Bring CSN high
	NRF24_csn(1);
}
 8003df8:	b002      	add	sp, #8
 8003dfa:	bd70      	pop	{r4, r5, r6, pc}
 8003dfc:	200000b8 	.word	0x200000b8

08003e00 <NRF24_write_payload>:
//7. Write transmit payload
void NRF24_write_payload(const void* buf, uint8_t len) {
 8003e00:	b573      	push	{r0, r1, r4, r5, r6, lr}
 8003e02:	4605      	mov	r5, r0
	uint8_t wrPayloadCmd;
	//Bring CSN low
	NRF24_csn(0);
 8003e04:	2000      	movs	r0, #0
void NRF24_write_payload(const void* buf, uint8_t len) {
 8003e06:	460e      	mov	r6, r1
	NRF24_csn(0);
 8003e08:	f7ff ff6a 	bl	8003ce0 <NRF24_csn>
	//Send Write Tx payload command followed by pbuf data
	wrPayloadCmd = CMD_W_TX_PAYLOAD;
 8003e0c:	23a0      	movs	r3, #160	; 0xa0
	HAL_SPI_Transmit(&nrf24_hspi, &wrPayloadCmd, 1, 100);
 8003e0e:	4c09      	ldr	r4, [pc, #36]	; (8003e34 <NRF24_write_payload+0x34>)
	wrPayloadCmd = CMD_W_TX_PAYLOAD;
 8003e10:	a902      	add	r1, sp, #8
 8003e12:	f801 3d01 	strb.w	r3, [r1, #-1]!
	HAL_SPI_Transmit(&nrf24_hspi, &wrPayloadCmd, 1, 100);
 8003e16:	2201      	movs	r2, #1
 8003e18:	2364      	movs	r3, #100	; 0x64
 8003e1a:	4620      	mov	r0, r4
 8003e1c:	f7fe fe13 	bl	8002a46 <HAL_SPI_Transmit>
	HAL_SPI_Transmit(&nrf24_hspi, (uint8_t *) buf, len, 100);
 8003e20:	2364      	movs	r3, #100	; 0x64
 8003e22:	4632      	mov	r2, r6
 8003e24:	4629      	mov	r1, r5
 8003e26:	4620      	mov	r0, r4
 8003e28:	f7fe fe0d 	bl	8002a46 <HAL_SPI_Transmit>
 8003e2c:	f7ff ff40 	bl	8003cb0 <NRF24_csn.part.0>
	//Bring CSN high
	NRF24_csn(1);
}
 8003e30:	b002      	add	sp, #8
 8003e32:	bd70      	pop	{r4, r5, r6, pc}
 8003e34:	200000b8 	.word	0x200000b8

08003e38 <NRF24_flush_tx>:
	NRF24_csn(1);
}

//9. Flush Tx buffer
void NRF24_flush_tx(void) {
	NRF24_write_register(CMD_FLUSH_TX, 0xFF);
 8003e38:	21ff      	movs	r1, #255	; 0xff
 8003e3a:	20e1      	movs	r0, #225	; 0xe1
 8003e3c:	f7ff bfaa 	b.w	8003d94 <NRF24_write_register>

08003e40 <NRF24_flush_rx>:
}
//10. Flush Rx buffer
void NRF24_flush_rx(void) {
	NRF24_write_register(CMD_FLUSH_RX, 0xFF);
 8003e40:	21ff      	movs	r1, #255	; 0xff
 8003e42:	20e2      	movs	r0, #226	; 0xe2
 8003e44:	f7ff bfa6 	b.w	8003d94 <NRF24_write_register>

08003e48 <NRF24_get_status>:
}
//11. Get status register value
uint8_t NRF24_get_status(void) {
	uint8_t statReg;
	statReg = NRF24_read_register(REG_STATUS);
 8003e48:	2007      	movs	r0, #7
 8003e4a:	f7ff bf65 	b.w	8003d18 <NRF24_read_register>

08003e4e <NRF24_stopListening>:
	NRF24_ce(1);
	//Wait for 130 uSec for the radio to come on
	NRF24_DelayMicroSeconds(150);
}
//14. Stop listening (essential before any write operation)
void NRF24_stopListening(void) {
 8003e4e:	b508      	push	{r3, lr}
	NRF24_ce(0);
 8003e50:	2000      	movs	r0, #0
 8003e52:	f7ff ff53 	bl	8003cfc <NRF24_ce>
	NRF24_flush_tx();
 8003e56:	f7ff ffef 	bl	8003e38 <NRF24_flush_tx>
	NRF24_flush_rx();
}
 8003e5a:	e8bd 4008 	ldmia.w	sp!, {r3, lr}
	NRF24_flush_rx();
 8003e5e:	f7ff bfef 	b.w	8003e40 <NRF24_flush_rx>
	...

08003e64 <NRF24_openWritingPipe>:
	NRF24_flush_rx();
	NRF24_getDynamicPayloadSize();
	return rxStatus;
}
//18. Open Tx pipe for writing (Cannot perform this while Listenning, has to call NRF24_stopListening)
void NRF24_openWritingPipe(uint64_t address) {
 8003e64:	b513      	push	{r0, r1, r4, lr}
 8003e66:	ac02      	add	r4, sp, #8
 8003e68:	e964 0102 	strd	r0, r1, [r4, #-8]!
	NRF24_write_registerN(REG_RX_ADDR_P0, (uint8_t *) (&address), 5);
 8003e6c:	2205      	movs	r2, #5
 8003e6e:	4621      	mov	r1, r4
 8003e70:	200a      	movs	r0, #10
 8003e72:	f7ff ffa7 	bl	8003dc4 <NRF24_write_registerN>
	NRF24_write_registerN(REG_TX_ADDR, (uint8_t *) (&address), 5);
 8003e76:	2205      	movs	r2, #5
 8003e78:	4621      	mov	r1, r4
 8003e7a:	2010      	movs	r0, #16
 8003e7c:	f7ff ffa2 	bl	8003dc4 <NRF24_write_registerN>

	const uint8_t max_payload_size = 32;
	NRF24_write_register(REG_RX_PW_P0, MIN(payload_size, max_payload_size));
 8003e80:	4b04      	ldr	r3, [pc, #16]	; (8003e94 <NRF24_openWritingPipe+0x30>)
 8003e82:	2011      	movs	r0, #17
 8003e84:	7819      	ldrb	r1, [r3, #0]
 8003e86:	2920      	cmp	r1, #32
 8003e88:	bf28      	it	cs
 8003e8a:	2120      	movcs	r1, #32
 8003e8c:	f7ff ff82 	bl	8003d94 <NRF24_write_register>
}
 8003e90:	b002      	add	sp, #8
 8003e92:	bd10      	pop	{r4, pc}
 8003e94:	20000150 	.word	0x20000150

08003e98 <NRF24_setChannel>:
}

//21. Set RF channel frequency
void NRF24_setChannel(uint8_t channel) {
	const uint8_t max_channel = 127;
	NRF24_write_register(REG_RF_CH, MIN(channel, max_channel));
 8003e98:	287f      	cmp	r0, #127	; 0x7f
 8003e9a:	4601      	mov	r1, r0
 8003e9c:	bf28      	it	cs
 8003e9e:	217f      	movcs	r1, #127	; 0x7f
 8003ea0:	2005      	movs	r0, #5
 8003ea2:	f7ff bf77 	b.w	8003d94 <NRF24_write_register>

08003ea6 <NRF24_getDynamicPayloadSize>:
uint8_t NRF24_getPayloadSize(void) {
	return payload_size;
}
//24. Get dynamic payload size, of latest packet received
uint8_t NRF24_getDynamicPayloadSize(void) {
	return NRF24_read_register(CMD_R_RX_PL_WID);
 8003ea6:	2060      	movs	r0, #96	; 0x60
 8003ea8:	f7ff bf36 	b.w	8003d18 <NRF24_read_register>

08003eac <NRF24_disableDynamicPayloads>:
			NRF24_read_register(
					REG_DYNPD) | _BV(BIT_DPL_P5) | _BV(BIT_DPL_P4) | _BV(BIT_DPL_P3) | _BV(BIT_DPL_P2) | _BV(BIT_DPL_P1) | _BV(BIT_DPL_P0));
	dynamic_payloads_enabled = true;

}
void NRF24_disableDynamicPayloads(void) {
 8003eac:	b508      	push	{r3, lr}
	NRF24_write_register(REG_FEATURE,
			NRF24_read_register(REG_FEATURE) & ~(_BV(BIT_EN_DPL)));
 8003eae:	201d      	movs	r0, #29
 8003eb0:	f7ff ff32 	bl	8003d18 <NRF24_read_register>
	NRF24_write_register(REG_FEATURE,
 8003eb4:	f000 01fb 	and.w	r1, r0, #251	; 0xfb
 8003eb8:	201d      	movs	r0, #29
 8003eba:	f7ff ff6b 	bl	8003d94 <NRF24_write_register>
	//Disable for all pipes
	NRF24_write_register(REG_DYNPD, 0);
	dynamic_payloads_enabled = false;
}
 8003ebe:	e8bd 4008 	ldmia.w	sp!, {r3, lr}
	NRF24_write_register(REG_DYNPD, 0);
 8003ec2:	2100      	movs	r1, #0
 8003ec4:	201c      	movs	r0, #28
 8003ec6:	f7ff bf65 	b.w	8003d94 <NRF24_write_register>

08003eca <NRF24_setAutoAck>:
bool NRF24_isNRF_Plus(void) {
	return p_variant;
}
//28. Set Auto Ack for all
void NRF24_setAutoAck(bool enable) {
	if (enable)
 8003eca:	4601      	mov	r1, r0
 8003ecc:	b100      	cbz	r0, 8003ed0 <NRF24_setAutoAck+0x6>
		NRF24_write_register(REG_EN_AA, 0x3F);
 8003ece:	213f      	movs	r1, #63	; 0x3f
	else
		NRF24_write_register(REG_EN_AA, 0x00);
 8003ed0:	2001      	movs	r0, #1
 8003ed2:	f7ff bf5f 	b.w	8003d94 <NRF24_write_register>

08003ed6 <NRF24_setPALevel>:
		}
		NRF24_write_register( REG_EN_AA, en_aa);
	}
}
//30. Set transmit power level
void NRF24_setPALevel(rf24_pa_dbm_e level) {
 8003ed6:	b510      	push	{r4, lr}
 8003ed8:	4604      	mov	r4, r0
	uint8_t setup = NRF24_read_register(REG_RF_SETUP);
 8003eda:	2006      	movs	r0, #6
 8003edc:	f7ff ff1c 	bl	8003d18 <NRF24_read_register>
	setup &= ~(_BV(RF_PWR_LOW) | _BV(RF_PWR_HIGH));

	// switch uses RAM (evil!)
	if (level == RF24_PA_0dB) {
 8003ee0:	2c03      	cmp	r4, #3
	setup &= ~(_BV(RF_PWR_LOW) | _BV(RF_PWR_HIGH));
 8003ee2:	f000 01f9 	and.w	r1, r0, #249	; 0xf9
	if (level == RF24_PA_0dB) {
 8003ee6:	d102      	bne.n	8003eee <NRF24_setPALevel+0x18>
		setup |= _BV(RF_PWR_LOW);
	} else if (level == RF24_PA_m18dB) {
		// nothing
	} else if (level == RF24_PA_ERROR) {
		// On error, go to maximum PA
		setup |= (_BV(RF_PWR_LOW) | _BV(RF_PWR_HIGH));
 8003ee8:	f041 0106 	orr.w	r1, r1, #6
 8003eec:	e003      	b.n	8003ef6 <NRF24_setPALevel+0x20>
	} else if (level == RF24_PA_m6dB) {
 8003eee:	2c02      	cmp	r4, #2
 8003ef0:	d106      	bne.n	8003f00 <NRF24_setPALevel+0x2a>
		setup |= _BV(RF_PWR_HIGH);
 8003ef2:	f041 0104 	orr.w	r1, r1, #4
	}

	NRF24_write_register( REG_RF_SETUP, setup);
 8003ef6:	2006      	movs	r0, #6
}
 8003ef8:	e8bd 4010 	ldmia.w	sp!, {r4, lr}
	NRF24_write_register( REG_RF_SETUP, setup);
 8003efc:	f7ff bf4a 	b.w	8003d94 <NRF24_write_register>
	} else if (level == RF24_PA_m12dB) {
 8003f00:	2c01      	cmp	r4, #1
 8003f02:	d102      	bne.n	8003f0a <NRF24_setPALevel+0x34>
		setup |= _BV(RF_PWR_LOW);
 8003f04:	f041 0102 	orr.w	r1, r1, #2
 8003f08:	e7f5      	b.n	8003ef6 <NRF24_setPALevel+0x20>
	} else if (level == RF24_PA_ERROR) {
 8003f0a:	2c04      	cmp	r4, #4
 8003f0c:	d1f3      	bne.n	8003ef6 <NRF24_setPALevel+0x20>
 8003f0e:	e7eb      	b.n	8003ee8 <NRF24_setPALevel+0x12>

08003f10 <NRF24_setDataRate>:
	}

	return result;
}
//32. Set data rate (250 Kbps, 1Mbps, 2Mbps)
bool NRF24_setDataRate(rf24_datarate_e speed) {
 8003f10:	b538      	push	{r3, r4, r5, lr}
 8003f12:	4605      	mov	r5, r0
	bool result = false;
	uint8_t setup = NRF24_read_register(REG_RF_SETUP);
 8003f14:	2006      	movs	r0, #6
 8003f16:	f7ff feff 	bl	8003d18 <NRF24_read_register>

	// HIGH and LOW '00' is 1Mbs - our default
	wide_band = false;
	setup &= ~(_BV(RF_DR_LOW) | _BV(RF_DR_HIGH));
	if (speed == RF24_250KBPS) {
 8003f1a:	2d02      	cmp	r5, #2
	setup &= ~(_BV(RF_DR_LOW) | _BV(RF_DR_HIGH));
 8003f1c:	f000 04d7 	and.w	r4, r0, #215	; 0xd7
	if (speed == RF24_250KBPS) {
 8003f20:	d10c      	bne.n	8003f3c <NRF24_setDataRate+0x2c>
		// Must set the RF_DR_LOW to 1; RF_DR_HIGH (used to be RF_DR) is already 0
		// Making it '10'.
		wide_band = false;
		setup |= _BV(RF_DR_LOW);
 8003f22:	f044 0420 	orr.w	r4, r4, #32
		} else {
			// 1Mbs
			wide_band = false;
		}
	}
	NRF24_write_register(REG_RF_SETUP, setup);
 8003f26:	4621      	mov	r1, r4
 8003f28:	2006      	movs	r0, #6
 8003f2a:	f7ff ff33 	bl	8003d94 <NRF24_write_register>

	// Verify our result
	if (NRF24_read_register(REG_RF_SETUP) == setup) {
 8003f2e:	2006      	movs	r0, #6
 8003f30:	f7ff fef2 	bl	8003d18 <NRF24_read_register>
	} else {
		wide_band = false;
	}

	return result;
}
 8003f34:	1a23      	subs	r3, r4, r0
 8003f36:	4258      	negs	r0, r3
 8003f38:	4158      	adcs	r0, r3
 8003f3a:	bd38      	pop	{r3, r4, r5, pc}
		if (speed == RF24_2MBPS) {
 8003f3c:	2d01      	cmp	r5, #1
			setup |= _BV(RF_DR_HIGH);
 8003f3e:	bf08      	it	eq
 8003f40:	f044 0408 	orreq.w	r4, r4, #8
 8003f44:	e7ef      	b.n	8003f26 <NRF24_setDataRate+0x16>

08003f46 <NRF24_setCRCLength>:
		result = RF24_1MBPS;
	}
	return result;
}
//34. Set crc length (disable, 8-bits or 16-bits)
void NRF24_setCRCLength(rf24_crclength_e length) {
 8003f46:	b510      	push	{r4, lr}
 8003f48:	4604      	mov	r4, r0
	uint8_t config = NRF24_read_register(REG_CONFIG)
 8003f4a:	2000      	movs	r0, #0
 8003f4c:	f7ff fee4 	bl	8003d18 <NRF24_read_register>
 8003f50:	f000 01f3 	and.w	r1, r0, #243	; 0xf3
			& ~( _BV(BIT_CRCO) | _BV(BIT_EN_CRC));

	// switch uses RAM
	if (length == RF24_CRC_DISABLED) {
 8003f54:	b12c      	cbz	r4, 8003f62 <NRF24_setCRCLength+0x1c>
		// Do nothing, we turned it off above.
	} else if (length == RF24_CRC_8) {
 8003f56:	2c01      	cmp	r4, #1
		config |= _BV(BIT_EN_CRC);
 8003f58:	bf0c      	ite	eq
 8003f5a:	f041 0108 	orreq.w	r1, r1, #8
	} else {
		config |= _BV(BIT_EN_CRC);
		config |= _BV(BIT_CRCO);
 8003f5e:	f041 010c 	orrne.w	r1, r1, #12
	}
	NRF24_write_register( REG_CONFIG, config);
 8003f62:	2000      	movs	r0, #0
}
 8003f64:	e8bd 4010 	ldmia.w	sp!, {r4, lr}
	NRF24_write_register( REG_CONFIG, config);
 8003f68:	f7ff bf14 	b.w	8003d94 <NRF24_write_register>

08003f6c <NRF24_powerDown>:
void NRF24_powerUp(void) {
	NRF24_write_register(REG_CONFIG,
			NRF24_read_register(REG_CONFIG) | _BV(BIT_PWR_UP));
}
//38. power down
void NRF24_powerDown(void) {
 8003f6c:	b508      	push	{r3, lr}
	NRF24_write_register(REG_CONFIG,
			NRF24_read_register(REG_CONFIG) & ~_BV(BIT_PWR_UP));
 8003f6e:	2000      	movs	r0, #0
 8003f70:	f7ff fed2 	bl	8003d18 <NRF24_read_register>
}
 8003f74:	e8bd 4008 	ldmia.w	sp!, {r3, lr}
	NRF24_write_register(REG_CONFIG,
 8003f78:	f000 01fd 	and.w	r1, r0, #253	; 0xfd
 8003f7c:	2000      	movs	r0, #0
 8003f7e:	f7ff bf09 	b.w	8003d94 <NRF24_write_register>

08003f82 <NRF24_availablePipe>:
//39. Check if data are available and on which pipe (Use this for multiple rx pipes)
bool NRF24_availablePipe(uint8_t* pipe_num) {
 8003f82:	b570      	push	{r4, r5, r6, lr}
 8003f84:	4605      	mov	r5, r0
	uint8_t status = NRF24_get_status();
 8003f86:	f7ff ff5f 	bl	8003e48 <NRF24_get_status>
 8003f8a:	f000 0340 	and.w	r3, r0, #64	; 0x40

	bool result = (status & _BV(BIT_RX_DR));
 8003f8e:	2b00      	cmp	r3, #0
	uint8_t status = NRF24_get_status();
 8003f90:	4604      	mov	r4, r0
	bool result = (status & _BV(BIT_RX_DR));
 8003f92:	bf14      	ite	ne
 8003f94:	2601      	movne	r6, #1
 8003f96:	2600      	moveq	r6, #0

	if (result) {
 8003f98:	d00d      	beq.n	8003fb6 <NRF24_availablePipe+0x34>
		// If the caller wants the pipe number, include that
		if (pipe_num)
 8003f9a:	b115      	cbz	r5, 8003fa2 <NRF24_availablePipe+0x20>
			*pipe_num = (status >> BIT_RX_P_NO) & 0x7;
 8003f9c:	f3c0 0342 	ubfx	r3, r0, #1, #3
 8003fa0:	702b      	strb	r3, [r5, #0]

		// Clear the status bit
		NRF24_write_register(REG_STATUS, _BV(BIT_RX_DR));
 8003fa2:	2140      	movs	r1, #64	; 0x40
 8003fa4:	2007      	movs	r0, #7
 8003fa6:	f7ff fef5 	bl	8003d94 <NRF24_write_register>

		// Handle ack payload receipt
		if (status & _BV(BIT_TX_DS)) {
 8003faa:	06a3      	lsls	r3, r4, #26
 8003fac:	d503      	bpl.n	8003fb6 <NRF24_availablePipe+0x34>
			NRF24_write_register(REG_STATUS, _BV(BIT_TX_DS));
 8003fae:	2120      	movs	r1, #32
 8003fb0:	2007      	movs	r0, #7
 8003fb2:	f7ff feef 	bl	8003d94 <NRF24_write_register>
		}
	}
	return result;
}
 8003fb6:	4630      	mov	r0, r6
 8003fb8:	bd70      	pop	{r4, r5, r6, pc}

08003fba <NRF24_available>:
	return NRF24_availablePipe(NULL);
 8003fba:	2000      	movs	r0, #0
 8003fbc:	f7ff bfe1 	b.w	8003f82 <NRF24_availablePipe>

08003fc0 <NRF24_startWrite>:
//40. Start write (for IRQ mode)
void NRF24_startWrite(const void* buf, uint8_t len) {
 8003fc0:	b538      	push	{r3, r4, r5, lr}
 8003fc2:	4604      	mov	r4, r0
	// Transmitter power-up
	NRF24_ce(0);
 8003fc4:	2000      	movs	r0, #0
void NRF24_startWrite(const void* buf, uint8_t len) {
 8003fc6:	460d      	mov	r5, r1
	NRF24_ce(0);
 8003fc8:	f7ff fe98 	bl	8003cfc <NRF24_ce>
	NRF24_write_register(REG_CONFIG,
			(NRF24_read_register(REG_CONFIG) | _BV(BIT_PWR_UP))
 8003fcc:	2000      	movs	r0, #0
 8003fce:	f7ff fea3 	bl	8003d18 <NRF24_read_register>
	NRF24_write_register(REG_CONFIG,
 8003fd2:	f000 01fc 	and.w	r1, r0, #252	; 0xfc
 8003fd6:	f041 0102 	orr.w	r1, r1, #2
 8003fda:	2000      	movs	r0, #0
 8003fdc:	f7ff feda 	bl	8003d94 <NRF24_write_register>
 8003fe0:	f7ff fe72 	bl	8003cc8 <NRF24_ce.part.1>
					& ~_BV(BIT_PRIM_RX));
	NRF24_ce(1);
	NRF24_DelayMicroSeconds(150);

	// Send the payload
	NRF24_write_payload(buf, len);
 8003fe4:	4620      	mov	r0, r4
 8003fe6:	4629      	mov	r1, r5
 8003fe8:	f7ff ff0a 	bl	8003e00 <NRF24_write_payload>
 8003fec:	f7ff fe6c 	bl	8003cc8 <NRF24_ce.part.1>

	// Enable Tx for 15usec
	NRF24_ce(1);
	NRF24_DelayMicroSeconds(15);
	NRF24_ce(0);
}
 8003ff0:	e8bd 4038 	ldmia.w	sp!, {r3, r4, r5, lr}
	NRF24_ce(0);
 8003ff4:	2000      	movs	r0, #0
 8003ff6:	f7ff be81 	b.w	8003cfc <NRF24_ce>

08003ffa <NRF24_whatHappened>:
	bool result = ack_payload_available;
	ack_payload_available = false;
	return result;
}
//43. Check interrupt flags
void NRF24_whatHappened(bool *tx_ok, bool *tx_fail, bool *rx_ready) {
 8003ffa:	b5f8      	push	{r3, r4, r5, r6, r7, lr}
 8003ffc:	4605      	mov	r5, r0
 8003ffe:	460f      	mov	r7, r1
 8004000:	4616      	mov	r6, r2
	uint8_t status = NRF24_get_status();
 8004002:	f7ff ff21 	bl	8003e48 <NRF24_get_status>
	*tx_ok = 0;
 8004006:	2300      	movs	r3, #0
	uint8_t status = NRF24_get_status();
 8004008:	4604      	mov	r4, r0
	*tx_ok = 0;
 800400a:	702b      	strb	r3, [r5, #0]
	NRF24_write_register(REG_STATUS,
 800400c:	2170      	movs	r1, #112	; 0x70
 800400e:	2007      	movs	r0, #7
 8004010:	f7ff fec0 	bl	8003d94 <NRF24_write_register>
	_BV(BIT_RX_DR) | _BV(BIT_TX_DS) | _BV(BIT_MAX_RT));
	// Report to the user what happened
	*tx_ok = status & _BV(BIT_TX_DS);
 8004014:	f3c4 1340 	ubfx	r3, r4, #5, #1
 8004018:	702b      	strb	r3, [r5, #0]
	*tx_fail = status & _BV(BIT_MAX_RT);
 800401a:	f3c4 1300 	ubfx	r3, r4, #4, #1
	*rx_ready = status & _BV(BIT_RX_DR);
 800401e:	f3c4 1480 	ubfx	r4, r4, #6, #1
	*tx_fail = status & _BV(BIT_MAX_RT);
 8004022:	703b      	strb	r3, [r7, #0]
	*rx_ready = status & _BV(BIT_RX_DR);
 8004024:	7034      	strb	r4, [r6, #0]
 8004026:	bdf8      	pop	{r3, r4, r5, r6, r7, pc}

08004028 <NRF24_resetStatus>:
	return NRF24_read_register(REG_RPD) & 1;
}

//46. Reset Status
void NRF24_resetStatus(void) {
	NRF24_write_register(REG_STATUS,
 8004028:	2170      	movs	r1, #112	; 0x70
 800402a:	2007      	movs	r0, #7
 800402c:	f7ff beb2 	b.w	8003d94 <NRF24_write_register>

08004030 <NRF24_write>:
bool NRF24_write(const void* buf, uint8_t len) {
 8004030:	b537      	push	{r0, r1, r2, r4, r5, lr}
 8004032:	4604      	mov	r4, r0
 8004034:	460d      	mov	r5, r1
	NRF24_resetStatus();
 8004036:	f7ff fff7 	bl	8004028 <NRF24_resetStatus>
	NRF24_startWrite(buf, len);
 800403a:	4620      	mov	r0, r4
 800403c:	4629      	mov	r1, r5
 800403e:	f7ff ffbf 	bl	8003fc0 <NRF24_startWrite>
	uint32_t sent_at = HAL_GetTick();
 8004042:	f7fc fd25 	bl	8000a90 <HAL_GetTick>
 8004046:	4604      	mov	r4, r0
		NRF24_read_registerN(REG_OBSERVE_TX, &observe_tx, 1);
 8004048:	2201      	movs	r2, #1
 800404a:	f10d 0105 	add.w	r1, sp, #5
 800404e:	2008      	movs	r0, #8
 8004050:	f7ff fe82 	bl	8003d58 <NRF24_read_registerN>
		status = NRF24_get_status();
 8004054:	f7ff fef8 	bl	8003e48 <NRF24_get_status>
			&& (HAL_GetTick() - sent_at < timeout));
 8004058:	f010 0f30 	tst.w	r0, #48	; 0x30
 800405c:	d016      	beq.n	800408c <NRF24_write+0x5c>
	NRF24_whatHappened(&tx_ok, &tx_fail, &ack_payload_available);
 800405e:	4c0e      	ldr	r4, [pc, #56]	; (8004098 <NRF24_write+0x68>)
 8004060:	f10d 0107 	add.w	r1, sp, #7
 8004064:	4622      	mov	r2, r4
 8004066:	f10d 0006 	add.w	r0, sp, #6
 800406a:	f7ff ffc6 	bl	8003ffa <NRF24_whatHappened>
	if (ack_payload_available) {
 800406e:	7823      	ldrb	r3, [r4, #0]
	retStatus = tx_ok;
 8004070:	f89d 5006 	ldrb.w	r5, [sp, #6]
	if (ack_payload_available) {
 8004074:	b11b      	cbz	r3, 800407e <NRF24_write+0x4e>
		ack_payload_length = NRF24_getDynamicPayloadSize();
 8004076:	f7ff ff16 	bl	8003ea6 <NRF24_getDynamicPayloadSize>
 800407a:	4b08      	ldr	r3, [pc, #32]	; (800409c <NRF24_write+0x6c>)
 800407c:	7018      	strb	r0, [r3, #0]
	NRF24_available();
 800407e:	f7ff ff9c 	bl	8003fba <NRF24_available>
	NRF24_flush_tx();
 8004082:	f7ff fed9 	bl	8003e38 <NRF24_flush_tx>
}
 8004086:	4628      	mov	r0, r5
 8004088:	b003      	add	sp, #12
 800408a:	bd30      	pop	{r4, r5, pc}
			&& (HAL_GetTick() - sent_at < timeout));
 800408c:	f7fc fd00 	bl	8000a90 <HAL_GetTick>
 8004090:	1b00      	subs	r0, r0, r4
 8004092:	2809      	cmp	r0, #9
 8004094:	d9d8      	bls.n	8004048 <NRF24_write+0x18>
 8004096:	e7e2      	b.n	800405e <NRF24_write+0x2e>
 8004098:	200000ac 	.word	0x200000ac
 800409c:	200000ad 	.word	0x200000ad

080040a0 <NRF24_ACTIVATE_cmd>:
	_BV(BIT_RX_DR) | _BV(BIT_TX_DS) | _BV(BIT_MAX_RT));
}

//47. ACTIVATE cmd
void NRF24_ACTIVATE_cmd(void) {
 80040a0:	b507      	push	{r0, r1, r2, lr}
	uint8_t cmdRxBuf[2];
	//Read data from Rx payload buffer
	NRF24_csn(0);
 80040a2:	2000      	movs	r0, #0
 80040a4:	f7ff fe1c 	bl	8003ce0 <NRF24_csn>
	cmdRxBuf[0] = CMD_ACTIVATE;
 80040a8:	2350      	movs	r3, #80	; 0x50
 80040aa:	f88d 3004 	strb.w	r3, [sp, #4]
	cmdRxBuf[1] = 0x73;
 80040ae:	2373      	movs	r3, #115	; 0x73
	HAL_SPI_Transmit(&nrf24_hspi, cmdRxBuf, 2, 100);
 80040b0:	2202      	movs	r2, #2
	cmdRxBuf[1] = 0x73;
 80040b2:	f88d 3005 	strb.w	r3, [sp, #5]
	HAL_SPI_Transmit(&nrf24_hspi, cmdRxBuf, 2, 100);
 80040b6:	a901      	add	r1, sp, #4
 80040b8:	2364      	movs	r3, #100	; 0x64
 80040ba:	4804      	ldr	r0, [pc, #16]	; (80040cc <NRF24_ACTIVATE_cmd+0x2c>)
 80040bc:	f7fe fcc3 	bl	8002a46 <HAL_SPI_Transmit>
 80040c0:	f7ff fdf6 	bl	8003cb0 <NRF24_csn.part.0>
	NRF24_csn(1);
}
 80040c4:	b003      	add	sp, #12
 80040c6:	f85d fb04 	ldr.w	pc, [sp], #4
 80040ca:	bf00      	nop
 80040cc:	200000b8 	.word	0x200000b8

080040d0 <printRadioSettings>:
//48. Get AckPayload Size
uint8_t NRF24_GetAckPayloadSize(void) {
	return ack_payload_length;
}

void printRadioSettings(void) {
 80040d0:	b510      	push	{r4, lr}
 80040d2:	b0a0      	sub	sp, #128	; 0x80
	uint8_t reg8Val;
	char uartTxBuf[100];
	sprintf(uartTxBuf,
 80040d4:	49bc      	ldr	r1, [pc, #752]	; (80043c8 <printRadioSettings+0x2f8>)
 80040d6:	a807      	add	r0, sp, #28
 80040d8:	f001 fc94 	bl	8005a04 <strcpy>
			"\r\n**********************************************\r\n");
	HAL_UART_Transmit(&nrf24_huart, (uint8_t *) uartTxBuf, strlen(uartTxBuf),
 80040dc:	a807      	add	r0, sp, #28
 80040de:	f7fc f8a3 	bl	8000228 <strlen>
 80040e2:	230a      	movs	r3, #10
 80040e4:	b282      	uxth	r2, r0
 80040e6:	a907      	add	r1, sp, #28
 80040e8:	48b8      	ldr	r0, [pc, #736]	; (80043cc <printRadioSettings+0x2fc>)
 80040ea:	f7ff f917 	bl	800331c <HAL_UART_Transmit>
			10);
	//a) Get CRC settings - Config Register
	reg8Val = NRF24_read_register(0x00);
 80040ee:	2000      	movs	r0, #0
 80040f0:	f7ff fe12 	bl	8003d18 <NRF24_read_register>
	if (reg8Val & (1 << 3)) {
 80040f4:	0704      	lsls	r4, r0, #28
 80040f6:	f140 8230 	bpl.w	800455a <printRadioSettings+0x48a>
		if (reg8Val & (1 << 2))
 80040fa:	0740      	lsls	r0, r0, #29
			sprintf(uartTxBuf, "CRC:\r\n		Enabled, 2 Bytes \r\n");
 80040fc:	bf4c      	ite	mi
 80040fe:	49b4      	ldrmi	r1, [pc, #720]	; (80043d0 <printRadioSettings+0x300>)
		else
			sprintf(uartTxBuf, "CRC:\r\n		Enabled, 1 Byte \r\n");
 8004100:	49b4      	ldrpl	r1, [pc, #720]	; (80043d4 <printRadioSettings+0x304>)
	} else {
		sprintf(uartTxBuf, "CRC:\r\n		Disabled \r\n");
 8004102:	a807      	add	r0, sp, #28
 8004104:	f001 fc7e 	bl	8005a04 <strcpy>
	}
	HAL_UART_Transmit(&nrf24_huart, (uint8_t *) uartTxBuf, strlen(uartTxBuf),
 8004108:	a807      	add	r0, sp, #28
 800410a:	f7fc f88d 	bl	8000228 <strlen>
 800410e:	230a      	movs	r3, #10
 8004110:	b282      	uxth	r2, r0
 8004112:	a907      	add	r1, sp, #28
 8004114:	48ad      	ldr	r0, [pc, #692]	; (80043cc <printRadioSettings+0x2fc>)
 8004116:	f7ff f901 	bl	800331c <HAL_UART_Transmit>
			10);
	//b) AutoAck on pipes
	reg8Val = NRF24_read_register(0x01);
 800411a:	2001      	movs	r0, #1
 800411c:	f7ff fdfc 	bl	8003d18 <NRF24_read_register>
	sprintf(uartTxBuf,
 8004120:	f3c0 1340 	ubfx	r3, r0, #5, #1
 8004124:	9303      	str	r3, [sp, #12]
 8004126:	f3c0 1300 	ubfx	r3, r0, #4, #1
 800412a:	9302      	str	r3, [sp, #8]
 800412c:	f3c0 03c0 	ubfx	r3, r0, #3, #1
 8004130:	9301      	str	r3, [sp, #4]
 8004132:	f3c0 0380 	ubfx	r3, r0, #2, #1
 8004136:	f000 0201 	and.w	r2, r0, #1
 800413a:	49a7      	ldr	r1, [pc, #668]	; (80043d8 <printRadioSettings+0x308>)
 800413c:	9300      	str	r3, [sp, #0]
 800413e:	f3c0 0340 	ubfx	r3, r0, #1, #1
 8004142:	a807      	add	r0, sp, #28
 8004144:	f001 fc3a 	bl	80059bc <siprintf>
			"ENAA:\r\n		P0:	%d\r\n		P1:	%d\r\n		P2:	%d\r\n		P3:	%d\r\n		P4:	%d\r\n		P5:	%d\r\n",
			_BOOL(reg8Val & (1 << 0)), _BOOL(reg8Val & (1 << 1)),
			_BOOL(reg8Val & (1 << 2)), _BOOL(reg8Val & (1 << 3)),
			_BOOL(reg8Val & (1 << 4)), _BOOL(reg8Val & (1 << 5)));
	HAL_UART_Transmit(&nrf24_huart, (uint8_t *) uartTxBuf, strlen(uartTxBuf),
 8004148:	a807      	add	r0, sp, #28
 800414a:	f7fc f86d 	bl	8000228 <strlen>
 800414e:	230a      	movs	r3, #10
 8004150:	b282      	uxth	r2, r0
 8004152:	a907      	add	r1, sp, #28
 8004154:	489d      	ldr	r0, [pc, #628]	; (80043cc <printRadioSettings+0x2fc>)
 8004156:	f7ff f8e1 	bl	800331c <HAL_UART_Transmit>
			10);
	//c) Enabled Rx addresses
	reg8Val = NRF24_read_register(0x02);
 800415a:	2002      	movs	r0, #2
 800415c:	f7ff fddc 	bl	8003d18 <NRF24_read_register>
	sprintf(uartTxBuf,
 8004160:	f3c0 1340 	ubfx	r3, r0, #5, #1
 8004164:	9303      	str	r3, [sp, #12]
 8004166:	f3c0 1300 	ubfx	r3, r0, #4, #1
 800416a:	9302      	str	r3, [sp, #8]
 800416c:	f3c0 03c0 	ubfx	r3, r0, #3, #1
 8004170:	9301      	str	r3, [sp, #4]
 8004172:	f3c0 0380 	ubfx	r3, r0, #2, #1
 8004176:	f000 0201 	and.w	r2, r0, #1
 800417a:	4998      	ldr	r1, [pc, #608]	; (80043dc <printRadioSettings+0x30c>)
 800417c:	9300      	str	r3, [sp, #0]
 800417e:	f3c0 0340 	ubfx	r3, r0, #1, #1
 8004182:	a807      	add	r0, sp, #28
 8004184:	f001 fc1a 	bl	80059bc <siprintf>
			"EN_RXADDR:\r\n		P0:	%d\r\n		P1:	%d\r\n		P2:	%d\r\n		P3:	%d\r\n		P4:	%d\r\n		P5:	%d\r\n",
			_BOOL(reg8Val & (1 << 0)), _BOOL(reg8Val & (1 << 1)),
			_BOOL(reg8Val & (1 << 2)), _BOOL(reg8Val & (1 << 3)),
			_BOOL(reg8Val & (1 << 4)), _BOOL(reg8Val & (1 << 5)));
	HAL_UART_Transmit(&nrf24_huart, (uint8_t *) uartTxBuf, strlen(uartTxBuf),
 8004188:	a807      	add	r0, sp, #28
 800418a:	f7fc f84d 	bl	8000228 <strlen>
 800418e:	230a      	movs	r3, #10
 8004190:	b282      	uxth	r2, r0
 8004192:	a907      	add	r1, sp, #28
 8004194:	488d      	ldr	r0, [pc, #564]	; (80043cc <printRadioSettings+0x2fc>)
 8004196:	f7ff f8c1 	bl	800331c <HAL_UART_Transmit>
			10);
	//d) Address width
	reg8Val = NRF24_read_register(0x03) & 0x03;
 800419a:	2003      	movs	r0, #3
 800419c:	f7ff fdbc 	bl	8003d18 <NRF24_read_register>
 80041a0:	f000 0203 	and.w	r2, r0, #3
	reg8Val += 2;
	sprintf(uartTxBuf, "SETUP_AW:\r\n		%d bytes \r\n", reg8Val);
 80041a4:	3202      	adds	r2, #2
 80041a6:	498e      	ldr	r1, [pc, #568]	; (80043e0 <printRadioSettings+0x310>)
 80041a8:	a807      	add	r0, sp, #28
 80041aa:	f001 fc07 	bl	80059bc <siprintf>
	HAL_UART_Transmit(&nrf24_huart, (uint8_t *) uartTxBuf, strlen(uartTxBuf),
 80041ae:	a807      	add	r0, sp, #28
 80041b0:	f7fc f83a 	bl	8000228 <strlen>
 80041b4:	230a      	movs	r3, #10
 80041b6:	b282      	uxth	r2, r0
 80041b8:	a907      	add	r1, sp, #28
 80041ba:	4884      	ldr	r0, [pc, #528]	; (80043cc <printRadioSettings+0x2fc>)
 80041bc:	f7ff f8ae 	bl	800331c <HAL_UART_Transmit>
			10);
	//e) RF channel
	reg8Val = NRF24_read_register(0x05);
 80041c0:	2005      	movs	r0, #5
 80041c2:	f7ff fda9 	bl	8003d18 <NRF24_read_register>
	sprintf(uartTxBuf, "RF_CH:\r\n		%d CH \r\n", reg8Val & 0x7F);
 80041c6:	4987      	ldr	r1, [pc, #540]	; (80043e4 <printRadioSettings+0x314>)
 80041c8:	f000 027f 	and.w	r2, r0, #127	; 0x7f
 80041cc:	a807      	add	r0, sp, #28
 80041ce:	f001 fbf5 	bl	80059bc <siprintf>
	HAL_UART_Transmit(&nrf24_huart, (uint8_t *) uartTxBuf, strlen(uartTxBuf),
 80041d2:	a807      	add	r0, sp, #28
 80041d4:	f7fc f828 	bl	8000228 <strlen>
 80041d8:	a907      	add	r1, sp, #28
 80041da:	b282      	uxth	r2, r0
 80041dc:	230a      	movs	r3, #10
 80041de:	487b      	ldr	r0, [pc, #492]	; (80043cc <printRadioSettings+0x2fc>)
 80041e0:	f7ff f89c 	bl	800331c <HAL_UART_Transmit>
			10);
	//f) Data rate & RF_PWR
	reg8Val = NRF24_read_register(0x06);
 80041e4:	2006      	movs	r0, #6
 80041e6:	f7ff fd97 	bl	8003d18 <NRF24_read_register>
	if (reg8Val & (1 << 3))
 80041ea:	0701      	lsls	r1, r0, #28
		sprintf(uartTxBuf, "Data Rate:\r\n		2Mbps \r\n");
 80041ec:	bf4c      	ite	mi
 80041ee:	497e      	ldrmi	r1, [pc, #504]	; (80043e8 <printRadioSettings+0x318>)
	else
		sprintf(uartTxBuf, "Data Rate:\r\n		1Mbps \r\n");
 80041f0:	497e      	ldrpl	r1, [pc, #504]	; (80043ec <printRadioSettings+0x31c>)
	reg8Val = NRF24_read_register(0x06);
 80041f2:	4604      	mov	r4, r0
		sprintf(uartTxBuf, "Data Rate:\r\n		1Mbps \r\n");
 80041f4:	a807      	add	r0, sp, #28
 80041f6:	f001 fc05 	bl	8005a04 <strcpy>
	HAL_UART_Transmit(&nrf24_huart, (uint8_t *) uartTxBuf, strlen(uartTxBuf),
 80041fa:	a807      	add	r0, sp, #28
 80041fc:	f7fc f814 	bl	8000228 <strlen>
			10);
	reg8Val &= (3 << 1);
	reg8Val = (reg8Val >> 1);
 8004200:	f3c4 0441 	ubfx	r4, r4, #1, #2
	HAL_UART_Transmit(&nrf24_huart, (uint8_t *) uartTxBuf, strlen(uartTxBuf),
 8004204:	b282      	uxth	r2, r0
 8004206:	230a      	movs	r3, #10
 8004208:	a907      	add	r1, sp, #28
 800420a:	4870      	ldr	r0, [pc, #448]	; (80043cc <printRadioSettings+0x2fc>)
 800420c:	f7ff f886 	bl	800331c <HAL_UART_Transmit>
	if (reg8Val == 0)
 8004210:	2c00      	cmp	r4, #0
 8004212:	f040 81a4 	bne.w	800455e <printRadioSettings+0x48e>
		sprintf(uartTxBuf, "RF_PWR:\r\n		-18dB \r\n");
 8004216:	4976      	ldr	r1, [pc, #472]	; (80043f0 <printRadioSettings+0x320>)
	else if (reg8Val == 1)
		sprintf(uartTxBuf, "RF_PWR:\r\n		-12dB \r\n");
	else if (reg8Val == 2)
		sprintf(uartTxBuf, "RF_PWR:\r\n		-6dB \r\n");
	else if (reg8Val == 3)
		sprintf(uartTxBuf, "RF_PWR:\r\n		0dB \r\n");
 8004218:	a807      	add	r0, sp, #28
 800421a:	f001 fbf3 	bl	8005a04 <strcpy>
	HAL_UART_Transmit(&nrf24_huart, (uint8_t *) uartTxBuf, strlen(uartTxBuf),
 800421e:	a807      	add	r0, sp, #28
 8004220:	f7fc f802 	bl	8000228 <strlen>
 8004224:	230a      	movs	r3, #10
 8004226:	b282      	uxth	r2, r0
 8004228:	a907      	add	r1, sp, #28
 800422a:	4868      	ldr	r0, [pc, #416]	; (80043cc <printRadioSettings+0x2fc>)
 800422c:	f7ff f876 	bl	800331c <HAL_UART_Transmit>
			10);
	//g) RX pipes addresses
	uint8_t pipeAddrs[6];
	NRF24_read_registerN(0x0A, pipeAddrs, 5);
 8004230:	a905      	add	r1, sp, #20
 8004232:	2205      	movs	r2, #5
 8004234:	200a      	movs	r0, #10
 8004236:	f7ff fd8f 	bl	8003d58 <NRF24_read_registerN>
	sprintf(uartTxBuf, "RX_Pipe0 Addrs:\r\n		%02X,%02X,%02X,%02X,%02X  \r\n",
 800423a:	f89d 1014 	ldrb.w	r1, [sp, #20]
 800423e:	f89d 3017 	ldrb.w	r3, [sp, #23]
 8004242:	9102      	str	r1, [sp, #8]
 8004244:	f89d 1015 	ldrb.w	r1, [sp, #21]
 8004248:	f89d 2018 	ldrb.w	r2, [sp, #24]
 800424c:	9101      	str	r1, [sp, #4]
 800424e:	f89d 1016 	ldrb.w	r1, [sp, #22]
 8004252:	a807      	add	r0, sp, #28
 8004254:	9100      	str	r1, [sp, #0]
 8004256:	4967      	ldr	r1, [pc, #412]	; (80043f4 <printRadioSettings+0x324>)
 8004258:	f001 fbb0 	bl	80059bc <siprintf>
			pipeAddrs[4], pipeAddrs[3], pipeAddrs[2], pipeAddrs[1],
			pipeAddrs[0]);
	HAL_UART_Transmit(&nrf24_huart, (uint8_t *) uartTxBuf, strlen(uartTxBuf),
 800425c:	a807      	add	r0, sp, #28
 800425e:	f7fb ffe3 	bl	8000228 <strlen>
 8004262:	230a      	movs	r3, #10
 8004264:	b282      	uxth	r2, r0
 8004266:	a907      	add	r1, sp, #28
 8004268:	4858      	ldr	r0, [pc, #352]	; (80043cc <printRadioSettings+0x2fc>)
 800426a:	f7ff f857 	bl	800331c <HAL_UART_Transmit>
			10);

	NRF24_read_registerN(0x0A + 1, pipeAddrs, 5);
 800426e:	a905      	add	r1, sp, #20
 8004270:	2205      	movs	r2, #5
 8004272:	200b      	movs	r0, #11
 8004274:	f7ff fd70 	bl	8003d58 <NRF24_read_registerN>
	sprintf(uartTxBuf, "RX_Pipe1 Addrs:\r\n		%02X,%02X,%02X,%02X,%02X  \r\n",
 8004278:	f89d 1014 	ldrb.w	r1, [sp, #20]
 800427c:	f89d 3017 	ldrb.w	r3, [sp, #23]
 8004280:	9102      	str	r1, [sp, #8]
 8004282:	f89d 1015 	ldrb.w	r1, [sp, #21]
 8004286:	f89d 2018 	ldrb.w	r2, [sp, #24]
 800428a:	9101      	str	r1, [sp, #4]
 800428c:	f89d 1016 	ldrb.w	r1, [sp, #22]
 8004290:	a807      	add	r0, sp, #28
 8004292:	9100      	str	r1, [sp, #0]
 8004294:	4958      	ldr	r1, [pc, #352]	; (80043f8 <printRadioSettings+0x328>)
 8004296:	f001 fb91 	bl	80059bc <siprintf>
			pipeAddrs[4], pipeAddrs[3], pipeAddrs[2], pipeAddrs[1],
			pipeAddrs[0]);
	HAL_UART_Transmit(&nrf24_huart, (uint8_t *) uartTxBuf, strlen(uartTxBuf),
 800429a:	a807      	add	r0, sp, #28
 800429c:	f7fb ffc4 	bl	8000228 <strlen>
 80042a0:	230a      	movs	r3, #10
 80042a2:	b282      	uxth	r2, r0
 80042a4:	a907      	add	r1, sp, #28
 80042a6:	4849      	ldr	r0, [pc, #292]	; (80043cc <printRadioSettings+0x2fc>)
 80042a8:	f7ff f838 	bl	800331c <HAL_UART_Transmit>
			10);

	NRF24_read_registerN(0x0A + 2, pipeAddrs, 1);
 80042ac:	a905      	add	r1, sp, #20
 80042ae:	2201      	movs	r2, #1
 80042b0:	200c      	movs	r0, #12
 80042b2:	f7ff fd51 	bl	8003d58 <NRF24_read_registerN>
	sprintf(uartTxBuf, "RX_Pipe2 Addrs:\r\n		xx,xx,xx,xx,%02X  \r\n",
 80042b6:	f89d 2014 	ldrb.w	r2, [sp, #20]
 80042ba:	4950      	ldr	r1, [pc, #320]	; (80043fc <printRadioSettings+0x32c>)
 80042bc:	a807      	add	r0, sp, #28
 80042be:	f001 fb7d 	bl	80059bc <siprintf>
			pipeAddrs[0]);
	HAL_UART_Transmit(&nrf24_huart, (uint8_t *) uartTxBuf, strlen(uartTxBuf),
 80042c2:	a807      	add	r0, sp, #28
 80042c4:	f7fb ffb0 	bl	8000228 <strlen>
 80042c8:	230a      	movs	r3, #10
 80042ca:	b282      	uxth	r2, r0
 80042cc:	a907      	add	r1, sp, #28
 80042ce:	483f      	ldr	r0, [pc, #252]	; (80043cc <printRadioSettings+0x2fc>)
 80042d0:	f7ff f824 	bl	800331c <HAL_UART_Transmit>
			10);

	NRF24_read_registerN(0x0A + 3, pipeAddrs, 1);
 80042d4:	a905      	add	r1, sp, #20
 80042d6:	2201      	movs	r2, #1
 80042d8:	200d      	movs	r0, #13
 80042da:	f7ff fd3d 	bl	8003d58 <NRF24_read_registerN>
	sprintf(uartTxBuf, "RX_Pipe3 Addrs:\r\n		xx,xx,xx,xx,%02X  \r\n",
 80042de:	f89d 2014 	ldrb.w	r2, [sp, #20]
 80042e2:	4947      	ldr	r1, [pc, #284]	; (8004400 <printRadioSettings+0x330>)
 80042e4:	a807      	add	r0, sp, #28
 80042e6:	f001 fb69 	bl	80059bc <siprintf>
			pipeAddrs[0]);
	HAL_UART_Transmit(&nrf24_huart, (uint8_t *) uartTxBuf, strlen(uartTxBuf),
 80042ea:	a807      	add	r0, sp, #28
 80042ec:	f7fb ff9c 	bl	8000228 <strlen>
 80042f0:	230a      	movs	r3, #10
 80042f2:	b282      	uxth	r2, r0
 80042f4:	a907      	add	r1, sp, #28
 80042f6:	4835      	ldr	r0, [pc, #212]	; (80043cc <printRadioSettings+0x2fc>)
 80042f8:	f7ff f810 	bl	800331c <HAL_UART_Transmit>
			10);

	NRF24_read_registerN(0x0A + 4, pipeAddrs, 1);
 80042fc:	a905      	add	r1, sp, #20
 80042fe:	2201      	movs	r2, #1
 8004300:	200e      	movs	r0, #14
 8004302:	f7ff fd29 	bl	8003d58 <NRF24_read_registerN>
	sprintf(uartTxBuf, "RX_Pipe4 Addrs:\r\n		xx,xx,xx,xx,%02X  \r\n",
 8004306:	f89d 2014 	ldrb.w	r2, [sp, #20]
 800430a:	493e      	ldr	r1, [pc, #248]	; (8004404 <printRadioSettings+0x334>)
 800430c:	a807      	add	r0, sp, #28
 800430e:	f001 fb55 	bl	80059bc <siprintf>
			pipeAddrs[0]);
	HAL_UART_Transmit(&nrf24_huart, (uint8_t *) uartTxBuf, strlen(uartTxBuf),
 8004312:	a807      	add	r0, sp, #28
 8004314:	f7fb ff88 	bl	8000228 <strlen>
 8004318:	230a      	movs	r3, #10
 800431a:	b282      	uxth	r2, r0
 800431c:	a907      	add	r1, sp, #28
 800431e:	482b      	ldr	r0, [pc, #172]	; (80043cc <printRadioSettings+0x2fc>)
 8004320:	f7fe fffc 	bl	800331c <HAL_UART_Transmit>
			10);

	NRF24_read_registerN(0x0A + 5, pipeAddrs, 1);
 8004324:	a905      	add	r1, sp, #20
 8004326:	2201      	movs	r2, #1
 8004328:	200f      	movs	r0, #15
 800432a:	f7ff fd15 	bl	8003d58 <NRF24_read_registerN>
	sprintf(uartTxBuf, "RX_Pipe5 Addrs:\r\n		xx,xx,xx,xx,%02X  \r\n",
 800432e:	f89d 2014 	ldrb.w	r2, [sp, #20]
 8004332:	4935      	ldr	r1, [pc, #212]	; (8004408 <printRadioSettings+0x338>)
 8004334:	a807      	add	r0, sp, #28
 8004336:	f001 fb41 	bl	80059bc <siprintf>
			pipeAddrs[0]);
	HAL_UART_Transmit(&nrf24_huart, (uint8_t *) uartTxBuf, strlen(uartTxBuf),
 800433a:	a807      	add	r0, sp, #28
 800433c:	f7fb ff74 	bl	8000228 <strlen>
 8004340:	230a      	movs	r3, #10
 8004342:	b282      	uxth	r2, r0
 8004344:	a907      	add	r1, sp, #28
 8004346:	4821      	ldr	r0, [pc, #132]	; (80043cc <printRadioSettings+0x2fc>)
 8004348:	f7fe ffe8 	bl	800331c <HAL_UART_Transmit>
			10);

	NRF24_read_registerN(0x0A + 6, pipeAddrs, 5);
 800434c:	a905      	add	r1, sp, #20
 800434e:	2205      	movs	r2, #5
 8004350:	2010      	movs	r0, #16
 8004352:	f7ff fd01 	bl	8003d58 <NRF24_read_registerN>
	sprintf(uartTxBuf, "TX Addrs:\r\n		%02X,%02X,%02X,%02X,%02X  \r\n",
 8004356:	f89d 1014 	ldrb.w	r1, [sp, #20]
 800435a:	f89d 3017 	ldrb.w	r3, [sp, #23]
 800435e:	9102      	str	r1, [sp, #8]
 8004360:	f89d 1015 	ldrb.w	r1, [sp, #21]
 8004364:	f89d 2018 	ldrb.w	r2, [sp, #24]
 8004368:	9101      	str	r1, [sp, #4]
 800436a:	f89d 1016 	ldrb.w	r1, [sp, #22]
 800436e:	a807      	add	r0, sp, #28
 8004370:	9100      	str	r1, [sp, #0]
 8004372:	4926      	ldr	r1, [pc, #152]	; (800440c <printRadioSettings+0x33c>)
 8004374:	f001 fb22 	bl	80059bc <siprintf>
			pipeAddrs[4], pipeAddrs[3], pipeAddrs[2], pipeAddrs[1],
			pipeAddrs[0]);
	HAL_UART_Transmit(&nrf24_huart, (uint8_t *) uartTxBuf, strlen(uartTxBuf),
 8004378:	a807      	add	r0, sp, #28
 800437a:	f7fb ff55 	bl	8000228 <strlen>
 800437e:	230a      	movs	r3, #10
 8004380:	b282      	uxth	r2, r0
 8004382:	a907      	add	r1, sp, #28
 8004384:	4811      	ldr	r0, [pc, #68]	; (80043cc <printRadioSettings+0x2fc>)
 8004386:	f7fe ffc9 	bl	800331c <HAL_UART_Transmit>
			10);

	//h) RX PW (Payload Width 0 - 32)
	reg8Val = NRF24_read_register(0x11);
 800438a:	2011      	movs	r0, #17
 800438c:	f7ff fcc4 	bl	8003d18 <NRF24_read_register>
	sprintf(uartTxBuf, "RX_PW_P0:\r\n		%d bytes \r\n", reg8Val & 0x3F);
 8004390:	491f      	ldr	r1, [pc, #124]	; (8004410 <printRadioSettings+0x340>)
 8004392:	f000 023f 	and.w	r2, r0, #63	; 0x3f
 8004396:	a807      	add	r0, sp, #28
 8004398:	f001 fb10 	bl	80059bc <siprintf>
	HAL_UART_Transmit(&nrf24_huart, (uint8_t *) uartTxBuf, strlen(uartTxBuf),
 800439c:	a807      	add	r0, sp, #28
 800439e:	f7fb ff43 	bl	8000228 <strlen>
 80043a2:	230a      	movs	r3, #10
 80043a4:	b282      	uxth	r2, r0
 80043a6:	a907      	add	r1, sp, #28
 80043a8:	4808      	ldr	r0, [pc, #32]	; (80043cc <printRadioSettings+0x2fc>)
 80043aa:	f7fe ffb7 	bl	800331c <HAL_UART_Transmit>
			10);

	reg8Val = NRF24_read_register(0x11 + 1);
 80043ae:	2012      	movs	r0, #18
 80043b0:	f7ff fcb2 	bl	8003d18 <NRF24_read_register>
	sprintf(uartTxBuf, "RX_PW_P1:\r\n		%d bytes \r\n", reg8Val & 0x3F);
 80043b4:	4917      	ldr	r1, [pc, #92]	; (8004414 <printRadioSettings+0x344>)
 80043b6:	f000 023f 	and.w	r2, r0, #63	; 0x3f
 80043ba:	a807      	add	r0, sp, #28
 80043bc:	f001 fafe 	bl	80059bc <siprintf>
	HAL_UART_Transmit(&nrf24_huart, (uint8_t *) uartTxBuf, strlen(uartTxBuf),
 80043c0:	a807      	add	r0, sp, #28
 80043c2:	f7fb ff31 	bl	8000228 <strlen>
 80043c6:	e027      	b.n	8004418 <printRadioSettings+0x348>
 80043c8:	08007324 	.word	0x08007324
 80043cc:	20000110 	.word	0x20000110
 80043d0:	08007357 	.word	0x08007357
 80043d4:	08007373 	.word	0x08007373
 80043d8:	080073a2 	.word	0x080073a2
 80043dc:	080073e6 	.word	0x080073e6
 80043e0:	0800742f 	.word	0x0800742f
 80043e4:	08007448 	.word	0x08007448
 80043e8:	0800745b 	.word	0x0800745b
 80043ec:	08007472 	.word	0x08007472
 80043f0:	08007489 	.word	0x08007489
 80043f4:	080074d6 	.word	0x080074d6
 80043f8:	08007506 	.word	0x08007506
 80043fc:	08007536 	.word	0x08007536
 8004400:	0800755e 	.word	0x0800755e
 8004404:	08007586 	.word	0x08007586
 8004408:	080075ae 	.word	0x080075ae
 800440c:	080075d6 	.word	0x080075d6
 8004410:	08007600 	.word	0x08007600
 8004414:	08007619 	.word	0x08007619
 8004418:	230a      	movs	r3, #10
 800441a:	b282      	uxth	r2, r0
 800441c:	a907      	add	r1, sp, #28
 800441e:	4854      	ldr	r0, [pc, #336]	; (8004570 <printRadioSettings+0x4a0>)
 8004420:	f7fe ff7c 	bl	800331c <HAL_UART_Transmit>
			10);

	reg8Val = NRF24_read_register(0x11 + 2);
 8004424:	2013      	movs	r0, #19
 8004426:	f7ff fc77 	bl	8003d18 <NRF24_read_register>
	sprintf(uartTxBuf, "RX_PW_P2:\r\n		%d bytes \r\n", reg8Val & 0x3F);
 800442a:	4952      	ldr	r1, [pc, #328]	; (8004574 <printRadioSettings+0x4a4>)
 800442c:	f000 023f 	and.w	r2, r0, #63	; 0x3f
 8004430:	a807      	add	r0, sp, #28
 8004432:	f001 fac3 	bl	80059bc <siprintf>
	HAL_UART_Transmit(&nrf24_huart, (uint8_t *) uartTxBuf, strlen(uartTxBuf),
 8004436:	a807      	add	r0, sp, #28
 8004438:	f7fb fef6 	bl	8000228 <strlen>
 800443c:	230a      	movs	r3, #10
 800443e:	b282      	uxth	r2, r0
 8004440:	a907      	add	r1, sp, #28
 8004442:	484b      	ldr	r0, [pc, #300]	; (8004570 <printRadioSettings+0x4a0>)
 8004444:	f7fe ff6a 	bl	800331c <HAL_UART_Transmit>
			10);

	reg8Val = NRF24_read_register(0x11 + 3);
 8004448:	2014      	movs	r0, #20
 800444a:	f7ff fc65 	bl	8003d18 <NRF24_read_register>
	sprintf(uartTxBuf, "RX_PW_P3:\r\n		%d bytes \r\n", reg8Val & 0x3F);
 800444e:	494a      	ldr	r1, [pc, #296]	; (8004578 <printRadioSettings+0x4a8>)
 8004450:	f000 023f 	and.w	r2, r0, #63	; 0x3f
 8004454:	a807      	add	r0, sp, #28
 8004456:	f001 fab1 	bl	80059bc <siprintf>
	HAL_UART_Transmit(&nrf24_huart, (uint8_t *) uartTxBuf, strlen(uartTxBuf),
 800445a:	a807      	add	r0, sp, #28
 800445c:	f7fb fee4 	bl	8000228 <strlen>
 8004460:	230a      	movs	r3, #10
 8004462:	b282      	uxth	r2, r0
 8004464:	a907      	add	r1, sp, #28
 8004466:	4842      	ldr	r0, [pc, #264]	; (8004570 <printRadioSettings+0x4a0>)
 8004468:	f7fe ff58 	bl	800331c <HAL_UART_Transmit>
			10);

	reg8Val = NRF24_read_register(0x11 + 4);
 800446c:	2015      	movs	r0, #21
 800446e:	f7ff fc53 	bl	8003d18 <NRF24_read_register>
	sprintf(uartTxBuf, "RX_PW_P4:\r\n		%d bytes \r\n", reg8Val & 0x3F);
 8004472:	4942      	ldr	r1, [pc, #264]	; (800457c <printRadioSettings+0x4ac>)
 8004474:	f000 023f 	and.w	r2, r0, #63	; 0x3f
 8004478:	a807      	add	r0, sp, #28
 800447a:	f001 fa9f 	bl	80059bc <siprintf>
	HAL_UART_Transmit(&nrf24_huart, (uint8_t *) uartTxBuf, strlen(uartTxBuf),
 800447e:	a807      	add	r0, sp, #28
 8004480:	f7fb fed2 	bl	8000228 <strlen>
 8004484:	230a      	movs	r3, #10
 8004486:	b282      	uxth	r2, r0
 8004488:	a907      	add	r1, sp, #28
 800448a:	4839      	ldr	r0, [pc, #228]	; (8004570 <printRadioSettings+0x4a0>)
 800448c:	f7fe ff46 	bl	800331c <HAL_UART_Transmit>
			10);

	reg8Val = NRF24_read_register(0x11 + 5);
 8004490:	2016      	movs	r0, #22
 8004492:	f7ff fc41 	bl	8003d18 <NRF24_read_register>
	sprintf(uartTxBuf, "RX_PW_P5:\r\n		%d bytes \r\n", reg8Val & 0x3F);
 8004496:	493a      	ldr	r1, [pc, #232]	; (8004580 <printRadioSettings+0x4b0>)
 8004498:	f000 023f 	and.w	r2, r0, #63	; 0x3f
 800449c:	a807      	add	r0, sp, #28
 800449e:	f001 fa8d 	bl	80059bc <siprintf>
	HAL_UART_Transmit(&nrf24_huart, (uint8_t *) uartTxBuf, strlen(uartTxBuf),
 80044a2:	a807      	add	r0, sp, #28
 80044a4:	f7fb fec0 	bl	8000228 <strlen>
 80044a8:	a907      	add	r1, sp, #28
 80044aa:	b282      	uxth	r2, r0
 80044ac:	230a      	movs	r3, #10
 80044ae:	4830      	ldr	r0, [pc, #192]	; (8004570 <printRadioSettings+0x4a0>)
 80044b0:	f7fe ff34 	bl	800331c <HAL_UART_Transmit>
			10);

	//i) Dynamic payload enable for each pipe
	reg8Val = NRF24_read_register(0x1c);
 80044b4:	201c      	movs	r0, #28
 80044b6:	f7ff fc2f 	bl	8003d18 <NRF24_read_register>
	sprintf(uartTxBuf,
 80044ba:	f3c0 1340 	ubfx	r3, r0, #5, #1
 80044be:	9303      	str	r3, [sp, #12]
 80044c0:	f3c0 1300 	ubfx	r3, r0, #4, #1
 80044c4:	9302      	str	r3, [sp, #8]
 80044c6:	f3c0 03c0 	ubfx	r3, r0, #3, #1
 80044ca:	9301      	str	r3, [sp, #4]
 80044cc:	f3c0 0380 	ubfx	r3, r0, #2, #1
 80044d0:	f000 0201 	and.w	r2, r0, #1
 80044d4:	9300      	str	r3, [sp, #0]
 80044d6:	492b      	ldr	r1, [pc, #172]	; (8004584 <printRadioSettings+0x4b4>)
 80044d8:	f3c0 0340 	ubfx	r3, r0, #1, #1
 80044dc:	a807      	add	r0, sp, #28
 80044de:	f001 fa6d 	bl	80059bc <siprintf>
			"DYNPD_pipe:\r\n		P0:	%d\r\n		P1:	%d\r\n		P2:	%d\r\n		P3:	%d\r\n		P4:	%d\r\n		P5:	%d\r\n",
			_BOOL(reg8Val & (1 << 0)), _BOOL(reg8Val & (1 << 1)),
			_BOOL(reg8Val & (1 << 2)), _BOOL(reg8Val & (1 << 3)),
			_BOOL(reg8Val & (1 << 4)), _BOOL(reg8Val & (1 << 5)));
	HAL_UART_Transmit(&nrf24_huart, (uint8_t *) uartTxBuf, strlen(uartTxBuf),
 80044e2:	a807      	add	r0, sp, #28
 80044e4:	f7fb fea0 	bl	8000228 <strlen>
 80044e8:	a907      	add	r1, sp, #28
 80044ea:	b282      	uxth	r2, r0
 80044ec:	230a      	movs	r3, #10
 80044ee:	4820      	ldr	r0, [pc, #128]	; (8004570 <printRadioSettings+0x4a0>)
 80044f0:	f7fe ff14 	bl	800331c <HAL_UART_Transmit>
			10);

	//j) EN_DPL (is Dynamic payload feature enabled ?)
	reg8Val = NRF24_read_register(0x1d);
 80044f4:	201d      	movs	r0, #29
 80044f6:	f7ff fc0f 	bl	8003d18 <NRF24_read_register>
	if (reg8Val & (1 << 2))
 80044fa:	0742      	lsls	r2, r0, #29
		sprintf(uartTxBuf, "EN_DPL:\r\n		Enabled \r\n");
 80044fc:	bf4c      	ite	mi
 80044fe:	4922      	ldrmi	r1, [pc, #136]	; (8004588 <printRadioSettings+0x4b8>)
	else
		sprintf(uartTxBuf, "EN_DPL:\r\n		Disabled \r\n");
 8004500:	4922      	ldrpl	r1, [pc, #136]	; (800458c <printRadioSettings+0x4bc>)
	reg8Val = NRF24_read_register(0x1d);
 8004502:	4604      	mov	r4, r0
		sprintf(uartTxBuf, "EN_DPL:\r\n		Disabled \r\n");
 8004504:	a807      	add	r0, sp, #28
 8004506:	f001 fa7d 	bl	8005a04 <strcpy>
	HAL_UART_Transmit(&nrf24_huart, (uint8_t *) uartTxBuf, strlen(uartTxBuf),
 800450a:	a807      	add	r0, sp, #28
 800450c:	f7fb fe8c 	bl	8000228 <strlen>
 8004510:	a907      	add	r1, sp, #28
 8004512:	230a      	movs	r3, #10
 8004514:	b282      	uxth	r2, r0
 8004516:	4816      	ldr	r0, [pc, #88]	; (8004570 <printRadioSettings+0x4a0>)
 8004518:	f7fe ff00 	bl	800331c <HAL_UART_Transmit>
			10);

	//k) EN_ACK_PAY
	if (reg8Val & (1 << 1))
 800451c:	07a3      	lsls	r3, r4, #30
		sprintf(uartTxBuf, "EN_ACK_PAY:\r\n		Enabled \r\n");
 800451e:	bf4c      	ite	mi
 8004520:	491b      	ldrmi	r1, [pc, #108]	; (8004590 <printRadioSettings+0x4c0>)
	else
		sprintf(uartTxBuf, "EN_ACK_PAY:\r\n		Disabled \r\n");
 8004522:	491c      	ldrpl	r1, [pc, #112]	; (8004594 <printRadioSettings+0x4c4>)
 8004524:	a807      	add	r0, sp, #28
 8004526:	f001 fa6d 	bl	8005a04 <strcpy>
	HAL_UART_Transmit(&nrf24_huart, (uint8_t *) uartTxBuf, strlen(uartTxBuf),
 800452a:	a807      	add	r0, sp, #28
 800452c:	f7fb fe7c 	bl	8000228 <strlen>
 8004530:	230a      	movs	r3, #10
 8004532:	b282      	uxth	r2, r0
 8004534:	a907      	add	r1, sp, #28
 8004536:	480e      	ldr	r0, [pc, #56]	; (8004570 <printRadioSettings+0x4a0>)
 8004538:	f7fe fef0 	bl	800331c <HAL_UART_Transmit>
			10);

	sprintf(uartTxBuf,
 800453c:	4916      	ldr	r1, [pc, #88]	; (8004598 <printRadioSettings+0x4c8>)
 800453e:	a807      	add	r0, sp, #28
 8004540:	f001 fa60 	bl	8005a04 <strcpy>
			"\r\n**********************************************\r\n");
	HAL_UART_Transmit(&nrf24_huart, (uint8_t *) uartTxBuf, strlen(uartTxBuf),
 8004544:	a807      	add	r0, sp, #28
 8004546:	f7fb fe6f 	bl	8000228 <strlen>
 800454a:	230a      	movs	r3, #10
 800454c:	b282      	uxth	r2, r0
 800454e:	a907      	add	r1, sp, #28
 8004550:	4807      	ldr	r0, [pc, #28]	; (8004570 <printRadioSettings+0x4a0>)
 8004552:	f7fe fee3 	bl	800331c <HAL_UART_Transmit>
			10);
}
 8004556:	b020      	add	sp, #128	; 0x80
 8004558:	bd10      	pop	{r4, pc}
		sprintf(uartTxBuf, "CRC:\r\n		Disabled \r\n");
 800455a:	4910      	ldr	r1, [pc, #64]	; (800459c <printRadioSettings+0x4cc>)
 800455c:	e5d1      	b.n	8004102 <printRadioSettings+0x32>
	else if (reg8Val == 1)
 800455e:	2c01      	cmp	r4, #1
 8004560:	d101      	bne.n	8004566 <printRadioSettings+0x496>
		sprintf(uartTxBuf, "RF_PWR:\r\n		-12dB \r\n");
 8004562:	490f      	ldr	r1, [pc, #60]	; (80045a0 <printRadioSettings+0x4d0>)
 8004564:	e658      	b.n	8004218 <printRadioSettings+0x148>
	else if (reg8Val == 2)
 8004566:	2c02      	cmp	r4, #2
		sprintf(uartTxBuf, "RF_PWR:\r\n		-6dB \r\n");
 8004568:	bf0c      	ite	eq
 800456a:	490e      	ldreq	r1, [pc, #56]	; (80045a4 <printRadioSettings+0x4d4>)
		sprintf(uartTxBuf, "RF_PWR:\r\n		0dB \r\n");
 800456c:	490e      	ldrne	r1, [pc, #56]	; (80045a8 <printRadioSettings+0x4d8>)
 800456e:	e653      	b.n	8004218 <printRadioSettings+0x148>
 8004570:	20000110 	.word	0x20000110
 8004574:	08007632 	.word	0x08007632
 8004578:	0800764b 	.word	0x0800764b
 800457c:	08007664 	.word	0x08007664
 8004580:	0800767d 	.word	0x0800767d
 8004584:	08007696 	.word	0x08007696
 8004588:	080076e0 	.word	0x080076e0
 800458c:	080076f6 	.word	0x080076f6
 8004590:	0800770d 	.word	0x0800770d
 8004594:	08007727 	.word	0x08007727
 8004598:	08007324 	.word	0x08007324
 800459c:	0800738e 	.word	0x0800738e
 80045a0:	0800749d 	.word	0x0800749d
 80045a4:	080074b1 	.word	0x080074b1
 80045a8:	080074c4 	.word	0x080074c4

080045ac <NRF24_begin>:
		uint16_t nrfCE_Pin, SPI_HandleTypeDef nrfSPI) {
 80045ac:	b082      	sub	sp, #8
 80045ae:	b573      	push	{r0, r1, r4, r5, r6, lr}
 80045b0:	4606      	mov	r6, r0
 80045b2:	460d      	mov	r5, r1
 80045b4:	4614      	mov	r4, r2
 80045b6:	a906      	add	r1, sp, #24
	memcpy(&nrf24_hspi, &nrfSPI, sizeof(nrfSPI));
 80045b8:	2258      	movs	r2, #88	; 0x58
		uint16_t nrfCE_Pin, SPI_HandleTypeDef nrfSPI) {
 80045ba:	f841 3f04 	str.w	r3, [r1, #4]!
	memcpy(&nrf24_hspi, &nrfSPI, sizeof(nrfSPI));
 80045be:	485f      	ldr	r0, [pc, #380]	; (800473c <NRF24_begin+0x190>)
 80045c0:	f001 f96c 	bl	800589c <memcpy>
	nrf24_PORT = nrf24PORT;
 80045c4:	4b5e      	ldr	r3, [pc, #376]	; (8004740 <NRF24_begin+0x194>)
 80045c6:	601e      	str	r6, [r3, #0]
	nrf24_CSN_PIN = nrfCSN_Pin;
 80045c8:	4b5e      	ldr	r3, [pc, #376]	; (8004744 <NRF24_begin+0x198>)
 80045ca:	801d      	strh	r5, [r3, #0]
	nrf24_CE_PIN = nrfCE_Pin;
 80045cc:	4b5e      	ldr	r3, [pc, #376]	; (8004748 <NRF24_begin+0x19c>)
	pipeAddrVar[0] = 0xE7;
 80045ce:	ad02      	add	r5, sp, #8
	nrf24_CE_PIN = nrfCE_Pin;
 80045d0:	801c      	strh	r4, [r3, #0]
 80045d2:	f7ff fb6d 	bl	8003cb0 <NRF24_csn.part.0>
	NRF24_ce(0);
 80045d6:	2000      	movs	r0, #0
 80045d8:	f7ff fb90 	bl	8003cfc <NRF24_ce>
	HAL_Delay(5);
 80045dc:	2005      	movs	r0, #5
 80045de:	f7fc fa5d 	bl	8000a9c <HAL_Delay>
	NRF24_write_register(0x00, 0x08);
 80045e2:	2108      	movs	r1, #8
 80045e4:	2000      	movs	r0, #0
 80045e6:	f7ff fbd5 	bl	8003d94 <NRF24_write_register>
	NRF24_write_register(0x01, 0x3f);
 80045ea:	213f      	movs	r1, #63	; 0x3f
 80045ec:	2001      	movs	r0, #1
 80045ee:	f7ff fbd1 	bl	8003d94 <NRF24_write_register>
	NRF24_write_register(0x02, 0x03);
 80045f2:	2103      	movs	r1, #3
 80045f4:	2002      	movs	r0, #2
 80045f6:	f7ff fbcd 	bl	8003d94 <NRF24_write_register>
	NRF24_write_register(0x03, 0x03);
 80045fa:	2103      	movs	r1, #3
	pipeAddrVar[4] = 0xE7;
 80045fc:	24e7      	movs	r4, #231	; 0xe7
	NRF24_write_register(0x03, 0x03);
 80045fe:	4608      	mov	r0, r1
 8004600:	f7ff fbc8 	bl	8003d94 <NRF24_write_register>
	NRF24_write_register(0x04, 0x03);
 8004604:	2103      	movs	r1, #3
 8004606:	2004      	movs	r0, #4
 8004608:	f7ff fbc4 	bl	8003d94 <NRF24_write_register>
	NRF24_write_register(0x05, 0x02);
 800460c:	2102      	movs	r1, #2
 800460e:	2005      	movs	r0, #5
 8004610:	f7ff fbc0 	bl	8003d94 <NRF24_write_register>
	NRF24_write_register(0x06, 0x0f);
 8004614:	210f      	movs	r1, #15
 8004616:	2006      	movs	r0, #6
 8004618:	f7ff fbbc 	bl	8003d94 <NRF24_write_register>
	NRF24_write_register(0x07, 0x0e);
 800461c:	210e      	movs	r1, #14
 800461e:	2007      	movs	r0, #7
 8004620:	f7ff fbb8 	bl	8003d94 <NRF24_write_register>
	NRF24_write_register(0x08, 0x00);
 8004624:	2100      	movs	r1, #0
 8004626:	2008      	movs	r0, #8
 8004628:	f7ff fbb4 	bl	8003d94 <NRF24_write_register>
	NRF24_write_register(0x09, 0x00);
 800462c:	2100      	movs	r1, #0
 800462e:	2009      	movs	r0, #9
 8004630:	f7ff fbb0 	bl	8003d94 <NRF24_write_register>
	pipeAddrVar[0] = 0xE7;
 8004634:	f805 4d08 	strb.w	r4, [r5, #-8]!
	NRF24_write_registerN(0x0A, pipeAddrVar, 5);
 8004638:	4629      	mov	r1, r5
 800463a:	2205      	movs	r2, #5
 800463c:	200a      	movs	r0, #10
	pipeAddrVar[4] = 0xE7;
 800463e:	f88d 4004 	strb.w	r4, [sp, #4]
	pipeAddrVar[3] = 0xE7;
 8004642:	f88d 4003 	strb.w	r4, [sp, #3]
	pipeAddrVar[2] = 0xE7;
 8004646:	f88d 4002 	strb.w	r4, [sp, #2]
	pipeAddrVar[1] = 0xE7;
 800464a:	f88d 4001 	strb.w	r4, [sp, #1]
	NRF24_write_registerN(0x0A, pipeAddrVar, 5);
 800464e:	f7ff fbb9 	bl	8003dc4 <NRF24_write_registerN>
	pipeAddrVar[4] = 0xC2;
 8004652:	23c2      	movs	r3, #194	; 0xc2
	NRF24_write_registerN(0x0B, pipeAddrVar, 5);
 8004654:	2205      	movs	r2, #5
 8004656:	4629      	mov	r1, r5
 8004658:	200b      	movs	r0, #11
	pipeAddrVar[4] = 0xC2;
 800465a:	f88d 3004 	strb.w	r3, [sp, #4]
	pipeAddrVar[3] = 0xC2;
 800465e:	f88d 3003 	strb.w	r3, [sp, #3]
	pipeAddrVar[2] = 0xC2;
 8004662:	f88d 3002 	strb.w	r3, [sp, #2]
	pipeAddrVar[1] = 0xC2;
 8004666:	f88d 3001 	strb.w	r3, [sp, #1]
	pipeAddrVar[0] = 0xC2;
 800466a:	f88d 3000 	strb.w	r3, [sp]
	NRF24_write_registerN(0x0B, pipeAddrVar, 5);
 800466e:	f7ff fba9 	bl	8003dc4 <NRF24_write_registerN>
	NRF24_write_register(0x0C, 0xC3);
 8004672:	21c3      	movs	r1, #195	; 0xc3
 8004674:	200c      	movs	r0, #12
 8004676:	f7ff fb8d 	bl	8003d94 <NRF24_write_register>
	NRF24_write_register(0x0D, 0xC4);
 800467a:	21c4      	movs	r1, #196	; 0xc4
 800467c:	200d      	movs	r0, #13
 800467e:	f7ff fb89 	bl	8003d94 <NRF24_write_register>
	NRF24_write_register(0x0E, 0xC5);
 8004682:	21c5      	movs	r1, #197	; 0xc5
 8004684:	200e      	movs	r0, #14
 8004686:	f7ff fb85 	bl	8003d94 <NRF24_write_register>
	NRF24_write_register(0x0F, 0xC6);
 800468a:	21c6      	movs	r1, #198	; 0xc6
 800468c:	200f      	movs	r0, #15
 800468e:	f7ff fb81 	bl	8003d94 <NRF24_write_register>
	NRF24_write_registerN(0x10, pipeAddrVar, 5);
 8004692:	2205      	movs	r2, #5
 8004694:	4629      	mov	r1, r5
 8004696:	2010      	movs	r0, #16
	pipeAddrVar[4] = 0xE7;
 8004698:	f88d 4004 	strb.w	r4, [sp, #4]
	pipeAddrVar[3] = 0xE7;
 800469c:	f88d 4003 	strb.w	r4, [sp, #3]
	pipeAddrVar[2] = 0xE7;
 80046a0:	f88d 4002 	strb.w	r4, [sp, #2]
	pipeAddrVar[1] = 0xE7;
 80046a4:	f88d 4001 	strb.w	r4, [sp, #1]
	pipeAddrVar[0] = 0xE7;
 80046a8:	f88d 4000 	strb.w	r4, [sp]
	NRF24_write_registerN(0x10, pipeAddrVar, 5);
 80046ac:	f7ff fb8a 	bl	8003dc4 <NRF24_write_registerN>
	NRF24_write_register(0x11, 0);
 80046b0:	2100      	movs	r1, #0
 80046b2:	2011      	movs	r0, #17
 80046b4:	f7ff fb6e 	bl	8003d94 <NRF24_write_register>
	NRF24_write_register(0x12, 0);
 80046b8:	2100      	movs	r1, #0
 80046ba:	2012      	movs	r0, #18
 80046bc:	f7ff fb6a 	bl	8003d94 <NRF24_write_register>
	NRF24_write_register(0x13, 0);
 80046c0:	2100      	movs	r1, #0
 80046c2:	2013      	movs	r0, #19
 80046c4:	f7ff fb66 	bl	8003d94 <NRF24_write_register>
	NRF24_write_register(0x14, 0);
 80046c8:	2100      	movs	r1, #0
 80046ca:	2014      	movs	r0, #20
 80046cc:	f7ff fb62 	bl	8003d94 <NRF24_write_register>
	NRF24_write_register(0x15, 0);
 80046d0:	2100      	movs	r1, #0
 80046d2:	2015      	movs	r0, #21
 80046d4:	f7ff fb5e 	bl	8003d94 <NRF24_write_register>
	NRF24_write_register(0x16, 0);
 80046d8:	2100      	movs	r1, #0
 80046da:	2016      	movs	r0, #22
 80046dc:	f7ff fb5a 	bl	8003d94 <NRF24_write_register>
	NRF24_ACTIVATE_cmd();
 80046e0:	f7ff fcde 	bl	80040a0 <NRF24_ACTIVATE_cmd>
	NRF24_write_register(0x1c, 0);
 80046e4:	2100      	movs	r1, #0
 80046e6:	201c      	movs	r0, #28
 80046e8:	f7ff fb54 	bl	8003d94 <NRF24_write_register>
	NRF24_write_register(0x1d, 0);
 80046ec:	2100      	movs	r1, #0
 80046ee:	201d      	movs	r0, #29
 80046f0:	f7ff fb50 	bl	8003d94 <NRF24_write_register>
	printRadioSettings();
 80046f4:	f7ff fcec 	bl	80040d0 <printRadioSettings>
	NRF24_write_register(REG_SETUP_RETR,
 80046f8:	21ff      	movs	r1, #255	; 0xff
 80046fa:	2004      	movs	r0, #4
 80046fc:	f7ff fb4a 	bl	8003d94 <NRF24_write_register>
	NRF24_setPALevel(RF24_PA_0dB);
 8004700:	2003      	movs	r0, #3
 8004702:	f7ff fbe8 	bl	8003ed6 <NRF24_setPALevel>
	NRF24_setDataRate(RF24_2MBPS);
 8004706:	2001      	movs	r0, #1
 8004708:	f7ff fc02 	bl	8003f10 <NRF24_setDataRate>
	NRF24_setCRCLength(RF24_CRC_16);
 800470c:	2002      	movs	r0, #2
 800470e:	f7ff fc1a 	bl	8003f46 <NRF24_setCRCLength>
	NRF24_disableDynamicPayloads();
 8004712:	f7ff fbcb 	bl	8003eac <NRF24_disableDynamicPayloads>
	payload_size = MIN(size, max_payload_size);
 8004716:	2220      	movs	r2, #32
 8004718:	4b0c      	ldr	r3, [pc, #48]	; (800474c <NRF24_begin+0x1a0>)
 800471a:	701a      	strb	r2, [r3, #0]
	NRF24_resetStatus();
 800471c:	f7ff fc84 	bl	8004028 <NRF24_resetStatus>
	NRF24_setChannel(76);
 8004720:	204c      	movs	r0, #76	; 0x4c
 8004722:	f7ff fbb9 	bl	8003e98 <NRF24_setChannel>
	NRF24_flush_tx();
 8004726:	f7ff fb87 	bl	8003e38 <NRF24_flush_tx>
	NRF24_flush_rx();
 800472a:	f7ff fb89 	bl	8003e40 <NRF24_flush_rx>
	NRF24_powerDown();
 800472e:	f7ff fc1d 	bl	8003f6c <NRF24_powerDown>
}
 8004732:	b002      	add	sp, #8
 8004734:	e8bd 4070 	ldmia.w	sp!, {r4, r5, r6, lr}
 8004738:	b002      	add	sp, #8
 800473a:	4770      	bx	lr
 800473c:	200000b8 	.word	0x200000b8
 8004740:	200000b4 	.word	0x200000b4
 8004744:	200000b0 	.word	0x200000b0
 8004748:	200000ae 	.word	0x200000ae
 800474c:	20000150 	.word	0x20000150

08004750 <nrf24_DebugUART_Init>:
	HAL_UART_Transmit(&nrf24_huart, (uint8_t *) uartTxBuf, strlen(uartTxBuf),
			10);
}

//4. Init Variables
void nrf24_DebugUART_Init(UART_HandleTypeDef nrf24Uart) {
 8004750:	b084      	sub	sp, #16
 8004752:	b530      	push	{r4, r5, lr}
 8004754:	ac03      	add	r4, sp, #12
 8004756:	e884 000f 	stmia.w	r4, {r0, r1, r2, r3}
	memcpy(&nrf24_huart, &nrf24Uart, sizeof(nrf24Uart));
 800475a:	4c08      	ldr	r4, [pc, #32]	; (800477c <nrf24_DebugUART_Init+0x2c>)
 800475c:	ad03      	add	r5, sp, #12
 800475e:	cd0f      	ldmia	r5!, {r0, r1, r2, r3}
 8004760:	c40f      	stmia	r4!, {r0, r1, r2, r3}
 8004762:	cd0f      	ldmia	r5!, {r0, r1, r2, r3}
 8004764:	c40f      	stmia	r4!, {r0, r1, r2, r3}
 8004766:	cd0f      	ldmia	r5!, {r0, r1, r2, r3}
 8004768:	c40f      	stmia	r4!, {r0, r1, r2, r3}
 800476a:	e895 000f 	ldmia.w	r5, {r0, r1, r2, r3}
 800476e:	e884 000f 	stmia.w	r4, {r0, r1, r2, r3}
}
 8004772:	e8bd 4030 	ldmia.w	sp!, {r4, r5, lr}
 8004776:	b004      	add	sp, #16
 8004778:	4770      	bx	lr
 800477a:	bf00      	nop
 800477c:	20000110 	.word	0x20000110

08004780 <initNRF24andPrintStatus>:
void initNRF24andPrintStatus(void) {
 8004780:	b570      	push	{r4, r5, r6, lr}
	NRF24_begin(CSN_GPIO_Port, CSN_Pin, CE_Pin, hspi1);
 8004782:	4c1a      	ldr	r4, [pc, #104]	; (80047ec <initNRF24andPrintStatus+0x6c>)
void initNRF24andPrintStatus(void) {
 8004784:	b096      	sub	sp, #88	; 0x58
	NRF24_begin(CSN_GPIO_Port, CSN_Pin, CE_Pin, hspi1);
 8004786:	1d21      	adds	r1, r4, #4
 8004788:	2254      	movs	r2, #84	; 0x54
 800478a:	4668      	mov	r0, sp
 800478c:	f001 f886 	bl	800589c <memcpy>
 8004790:	6823      	ldr	r3, [r4, #0]
	nrf24_DebugUART_Init(DEBUG_UART);
 8004792:	466c      	mov	r4, sp
 8004794:	4e16      	ldr	r6, [pc, #88]	; (80047f0 <initNRF24andPrintStatus+0x70>)
	NRF24_begin(CSN_GPIO_Port, CSN_Pin, CE_Pin, hspi1);
 8004796:	2210      	movs	r2, #16
 8004798:	2102      	movs	r1, #2
 800479a:	4816      	ldr	r0, [pc, #88]	; (80047f4 <initNRF24andPrintStatus+0x74>)
	nrf24_DebugUART_Init(DEBUG_UART);
 800479c:	f106 0510 	add.w	r5, r6, #16
	NRF24_begin(CSN_GPIO_Port, CSN_Pin, CE_Pin, hspi1);
 80047a0:	f7ff ff04 	bl	80045ac <NRF24_begin>
	nrf24_DebugUART_Init(DEBUG_UART);
 80047a4:	cd0f      	ldmia	r5!, {r0, r1, r2, r3}
 80047a6:	c40f      	stmia	r4!, {r0, r1, r2, r3}
 80047a8:	cd0f      	ldmia	r5!, {r0, r1, r2, r3}
 80047aa:	c40f      	stmia	r4!, {r0, r1, r2, r3}
 80047ac:	e895 000f 	ldmia.w	r5, {r0, r1, r2, r3}
 80047b0:	e884 000f 	stmia.w	r4, {r0, r1, r2, r3}
 80047b4:	e896 000f 	ldmia.w	r6, {r0, r1, r2, r3}
 80047b8:	f7ff ffca 	bl	8004750 <nrf24_DebugUART_Init>
	NRF24_setAutoAck(false);
 80047bc:	2000      	movs	r0, #0
 80047be:	f7ff fb84 	bl	8003eca <NRF24_setAutoAck>
	NRF24_setChannel(52);
 80047c2:	2034      	movs	r0, #52	; 0x34
 80047c4:	f7ff fb68 	bl	8003e98 <NRF24_setChannel>
	payload_size = MIN(size, max_payload_size);
 80047c8:	2220      	movs	r2, #32
 80047ca:	4b0b      	ldr	r3, [pc, #44]	; (80047f8 <initNRF24andPrintStatus+0x78>)
 80047cc:	701a      	strb	r2, [r3, #0]
	NRF24_stopListening();
 80047ce:	f7ff fb3e 	bl	8003e4e <NRF24_stopListening>
	NRF24_openWritingPipe(txPipeAdress);
 80047d2:	4b0a      	ldr	r3, [pc, #40]	; (80047fc <initNRF24andPrintStatus+0x7c>)
 80047d4:	e9d3 0100 	ldrd	r0, r1, [r3]
 80047d8:	f7ff fb44 	bl	8003e64 <NRF24_openWritingPipe>
	HAL_Delay(100);
 80047dc:	2064      	movs	r0, #100	; 0x64
 80047de:	f7fc f95d 	bl	8000a9c <HAL_Delay>
}
 80047e2:	b016      	add	sp, #88	; 0x58
 80047e4:	e8bd 4070 	ldmia.w	sp!, {r4, r5, r6, lr}
	printRadioSettings();
 80047e8:	f7ff bc72 	b.w	80040d0 <printRadioSettings>
 80047ec:	200007b0 	.word	0x200007b0
 80047f0:	200005a4 	.word	0x200005a4
 80047f4:	40010800 	.word	0x40010800
 80047f8:	20000150 	.word	0x20000150
 80047fc:	20000018 	.word	0x20000018

08004800 <oledInit>:
		0x00, 0x00, 0x00, 0x00, 0x00, 0x00, 0x00, 0x00, 0x00, 0x00, 0x00, 0x00,
		0x00, 0x00, 0x00, 0x00, 0x00, 0x00, 0x00, 0x00, 0x00, 0x00, 0x00, 0x00,
		0x00, 0x00, 0x00, 0x00, 0x00, 0x00, 0x00, 0x00, 0x00, 0x00, 0x00, 0x00,
		0x00, 0x00, 0x00 };

void oledInit(void) {
 8004800:	b508      	push	{r3, lr}

	HAL_GPIO_WritePin(OLED_PWR_GPIO_Port, OLED_PWR_Pin, SET);
 8004802:	2201      	movs	r2, #1
 8004804:	f44f 7180 	mov.w	r1, #256	; 0x100
 8004808:	4804      	ldr	r0, [pc, #16]	; (800481c <oledInit+0x1c>)
 800480a:	f7fc fe3b 	bl	8001484 <HAL_GPIO_WritePin>
	HAL_Delay(5);
 800480e:	2005      	movs	r0, #5
 8004810:	f7fc f944 	bl	8000a9c <HAL_Delay>
	SSD1306_Init(); // initialize the diaply

}
 8004814:	e8bd 4008 	ldmia.w	sp!, {r3, lr}
	SSD1306_Init(); // initialize the diaply
 8004818:	f000 bcd8 	b.w	80051cc <SSD1306_Init>
 800481c:	40010c00 	.word	0x40010c00

08004820 <oledPrintInitScreen>:

void oledPrintInitScreen(void) {
 8004820:	b570      	push	{r4, r5, r6, lr}
 8004822:	b08a      	sub	sp, #40	; 0x28

	const char *firmawre_version = "1.1";

	char buffor_string[25];

	sprintf(buffor_string, "v%s %s", firmawre_version, __DATE__);
 8004824:	4b27      	ldr	r3, [pc, #156]	; (80048c4 <oledPrintInitScreen+0xa4>)
 8004826:	4a28      	ldr	r2, [pc, #160]	; (80048c8 <oledPrintInitScreen+0xa8>)
 8004828:	4928      	ldr	r1, [pc, #160]	; (80048cc <oledPrintInitScreen+0xac>)
 800482a:	a803      	add	r0, sp, #12

	SSD1306_Clear();

	SSD1306_DrawBitmap(0, 0, init_screen, 128, 64, 1);
 800482c:	2401      	movs	r4, #1
	sprintf(buffor_string, "v%s %s", firmawre_version, __DATE__);
 800482e:	f001 f8c5 	bl	80059bc <siprintf>
	SSD1306_DrawBitmap(0, 0, init_screen, 128, 64, 1);
 8004832:	2540      	movs	r5, #64	; 0x40
	SSD1306_Clear();
 8004834:	f000 fcc2 	bl	80051bc <SSD1306_Clear>
	SSD1306_DrawBitmap(0, 0, init_screen, 128, 64, 1);
 8004838:	2100      	movs	r1, #0
 800483a:	9401      	str	r4, [sp, #4]
 800483c:	4608      	mov	r0, r1
 800483e:	9500      	str	r5, [sp, #0]
 8004840:	2380      	movs	r3, #128	; 0x80
 8004842:	4a23      	ldr	r2, [pc, #140]	; (80048d0 <oledPrintInitScreen+0xb0>)
 8004844:	f000 fac0 	bl	8004dc8 <SSD1306_DrawBitmap>
	SSD1306_DrawRectangle(0, 0, 128, 64, 1);
 8004848:	2100      	movs	r1, #0
 800484a:	462b      	mov	r3, r5
 800484c:	2280      	movs	r2, #128	; 0x80
 800484e:	4608      	mov	r0, r1
 8004850:	9400      	str	r4, [sp, #0]
 8004852:	f000 fbf1 	bl	8005038 <SSD1306_DrawRectangle>

	SSD1306_UpdateScreen(); // update screen
 8004856:	f000 fc8f 	bl	8005178 <SSD1306_UpdateScreen>
	HAL_Delay(2e3);
 800485a:	f44f 60fa 	mov.w	r0, #2000	; 0x7d0
 800485e:	f7fc f91d 	bl	8000a9c <HAL_Delay>

	SSD1306_Clear();
 8004862:	f000 fcab 	bl	80051bc <SSD1306_Clear>
	SSD1306_GotoXY(10, 10); // goto 10, 10
 8004866:	210a      	movs	r1, #10
	SSD1306_Puts("RC_controler ", &Font_7x10, 1); // print Hello
 8004868:	4e1a      	ldr	r6, [pc, #104]	; (80048d4 <oledPrintInitScreen+0xb4>)
	SSD1306_GotoXY(10, 10); // goto 10, 10
 800486a:	4608      	mov	r0, r1
 800486c:	f000 faec 	bl	8004e48 <SSD1306_GotoXY>
	SSD1306_Puts("RC_controler ", &Font_7x10, 1); // print Hello
 8004870:	4622      	mov	r2, r4
 8004872:	4631      	mov	r1, r6
 8004874:	4818      	ldr	r0, [pc, #96]	; (80048d8 <oledPrintInitScreen+0xb8>)
 8004876:	f000 fb39 	bl	8004eec <SSD1306_Puts>
	SSD1306_GotoXY(10, 22);
 800487a:	2116      	movs	r1, #22
 800487c:	200a      	movs	r0, #10
 800487e:	f000 fae3 	bl	8004e48 <SSD1306_GotoXY>
	SSD1306_Puts("by D.Wawerek", &Font_7x10, 1);
 8004882:	4622      	mov	r2, r4
 8004884:	4631      	mov	r1, r6
 8004886:	4815      	ldr	r0, [pc, #84]	; (80048dc <oledPrintInitScreen+0xbc>)
 8004888:	f000 fb30 	bl	8004eec <SSD1306_Puts>
	SSD1306_GotoXY(10, 34);
 800488c:	2122      	movs	r1, #34	; 0x22
 800488e:	200a      	movs	r0, #10
 8004890:	f000 fada 	bl	8004e48 <SSD1306_GotoXY>
	SSD1306_Puts(buffor_string, &Font_7x10, 1);
 8004894:	4622      	mov	r2, r4
 8004896:	4631      	mov	r1, r6
 8004898:	a803      	add	r0, sp, #12
 800489a:	f000 fb27 	bl	8004eec <SSD1306_Puts>

	SSD1306_DrawRectangle(0, 0, 128, 64, 1); // nice border of a OLED
 800489e:	2100      	movs	r1, #0
 80048a0:	462b      	mov	r3, r5
 80048a2:	4608      	mov	r0, r1
 80048a4:	2280      	movs	r2, #128	; 0x80
 80048a6:	9400      	str	r4, [sp, #0]
 80048a8:	f000 fbc6 	bl	8005038 <SSD1306_DrawRectangle>
	SSD1306_UpdateScreen(); // update screen
 80048ac:	f000 fc64 	bl	8005178 <SSD1306_UpdateScreen>
	HAL_Delay(1e3);
 80048b0:	f44f 707a 	mov.w	r0, #1000	; 0x3e8
 80048b4:	f7fc f8f2 	bl	8000a9c <HAL_Delay>
	SSD1306_Clear();
 80048b8:	f000 fc80 	bl	80051bc <SSD1306_Clear>
	SSD1306_UpdateScreen();
 80048bc:	f000 fc5c 	bl	8005178 <SSD1306_UpdateScreen>

}
 80048c0:	b00a      	add	sp, #40	; 0x28
 80048c2:	bd70      	pop	{r4, r5, r6, pc}
 80048c4:	08007b8e 	.word	0x08007b8e
 80048c8:	08007b9a 	.word	0x08007b9a
 80048cc:	08007b9e 	.word	0x08007b9e
 80048d0:	08007742 	.word	0x08007742
 80048d4:	20000008 	.word	0x20000008
 80048d8:	08007ba5 	.word	0x08007ba5
 80048dc:	08007bb3 	.word	0x08007bb3

080048e0 <oledDrawValueBars>:

void oledDrawValueBars(uint16_t value1, uint16_t value2, uint16_t value3,
		uint16_t value4, uint8_t start_number) {
 80048e0:	e92d 4ff0 	stmdb	sp!, {r4, r5, r6, r7, r8, r9, sl, fp, lr}
 80048e4:	4604      	mov	r4, r0
	// konwersja na wartosci z zakresu od 0 do 100;
	uint8_t divider = 9;

	uint8_t value1_u8 = (value1 - 1000) / divider;
 80048e6:	f04f 0809 	mov.w	r8, #9
		uint16_t value4, uint8_t start_number) {
 80048ea:	b087      	sub	sp, #28
 80048ec:	f89d 5040 	ldrb.w	r5, [sp, #64]	; 0x40
//	sprintf(buffor_string, "%1d", start_number);
	//Draws 4 bars representing given values on screen. There is no clear function to avoid screen flushing(???)
	// As for now position of bars is chosed exprerimetnaly
	//1. BAR
	SSD1306_GotoXY(3, 5); // goto 10, 10
	sprintf(buffor_string, "%1d: ", start_number++);
 80048f0:	f8df a0f8 	ldr.w	sl, [pc, #248]	; 80049ec <oledDrawValueBars+0x10c>
	SSD1306_Fill(0);
 80048f4:	2000      	movs	r0, #0
		uint16_t value4, uint8_t start_number) {
 80048f6:	461e      	mov	r6, r3
 80048f8:	4617      	mov	r7, r2
	SSD1306_Puts(buffor_string, &Font_7x10, 1);
 80048fa:	f8df 90f4 	ldr.w	r9, [pc, #244]	; 80049f0 <oledDrawValueBars+0x110>
		uint16_t value4, uint8_t start_number) {
 80048fe:	468b      	mov	fp, r1
	SSD1306_Fill(0);
 8004900:	f000 fa32 	bl	8004d68 <SSD1306_Fill>
	SSD1306_GotoXY(3, 5); // goto 10, 10
 8004904:	2105      	movs	r1, #5
 8004906:	2003      	movs	r0, #3
 8004908:	f000 fa9e 	bl	8004e48 <SSD1306_GotoXY>
	sprintf(buffor_string, "%1d: ", start_number++);
 800490c:	462a      	mov	r2, r5
 800490e:	4651      	mov	r1, sl
 8004910:	a802      	add	r0, sp, #8
 8004912:	f001 f853 	bl	80059bc <siprintf>
	SSD1306_Puts(buffor_string, &Font_7x10, 1);
 8004916:	4649      	mov	r1, r9
 8004918:	2201      	movs	r2, #1
 800491a:	a802      	add	r0, sp, #8
 800491c:	f000 fae6 	bl	8004eec <SSD1306_Puts>
	uint8_t value1_u8 = (value1 - 1000) / divider;
 8004920:	f5a4 727a 	sub.w	r2, r4, #1000	; 0x3e8
 8004924:	fb92 f2f8 	sdiv	r2, r2, r8
	SSD1306_DrawFilledRectangle(15, 5, value1_u8, 8, 1); // draw rectangle and complemnetray one
 8004928:	2401      	movs	r4, #1
 800492a:	2308      	movs	r3, #8
 800492c:	b2d2      	uxtb	r2, r2
 800492e:	9400      	str	r4, [sp, #0]
 8004930:	2105      	movs	r1, #5
 8004932:	200f      	movs	r0, #15
 8004934:	f000 fbc1 	bl	80050ba <SSD1306_DrawFilledRectangle>


	//2. BAR
	SSD1306_GotoXY(3, 20); // goto 10, 10
 8004938:	2114      	movs	r1, #20
 800493a:	2003      	movs	r0, #3
 800493c:	f000 fa84 	bl	8004e48 <SSD1306_GotoXY>
	sprintf(buffor_string, "%1d: ", start_number++);
 8004940:	192a      	adds	r2, r5, r4
	sprintf(buffor_string, "%1d: ", start_number++);
 8004942:	4651      	mov	r1, sl
 8004944:	b2d2      	uxtb	r2, r2
 8004946:	a802      	add	r0, sp, #8
 8004948:	f001 f838 	bl	80059bc <siprintf>
	SSD1306_Puts(buffor_string, &Font_7x10, 1);
 800494c:	4622      	mov	r2, r4
 800494e:	4649      	mov	r1, r9
 8004950:	a802      	add	r0, sp, #8
 8004952:	f000 facb 	bl	8004eec <SSD1306_Puts>
	uint8_t value2_u8 = (value2 - 1000) / divider;
 8004956:	f5ab 727a 	sub.w	r2, fp, #1000	; 0x3e8
 800495a:	fb92 f2f8 	sdiv	r2, r2, r8
	SSD1306_DrawFilledRectangle(15, 20, value2_u8, 8, 1);
 800495e:	2308      	movs	r3, #8
 8004960:	b2d2      	uxtb	r2, r2
 8004962:	9400      	str	r4, [sp, #0]
 8004964:	2114      	movs	r1, #20
 8004966:	200f      	movs	r0, #15
 8004968:	f000 fba7 	bl	80050ba <SSD1306_DrawFilledRectangle>


	//3. BAR
	SSD1306_GotoXY(3, 34); // goto 10, 10
 800496c:	2122      	movs	r1, #34	; 0x22
 800496e:	2003      	movs	r0, #3
 8004970:	f000 fa6a 	bl	8004e48 <SSD1306_GotoXY>
	sprintf(buffor_string, "%1d: ", start_number++);
 8004974:	1caa      	adds	r2, r5, #2
	sprintf(buffor_string, "%1d: ", start_number++);
 8004976:	4651      	mov	r1, sl
 8004978:	b2d2      	uxtb	r2, r2
 800497a:	a802      	add	r0, sp, #8
 800497c:	f001 f81e 	bl	80059bc <siprintf>
	SSD1306_Puts(buffor_string, &Font_7x10, 1);
 8004980:	4622      	mov	r2, r4
 8004982:	4649      	mov	r1, r9
 8004984:	a802      	add	r0, sp, #8
 8004986:	f000 fab1 	bl	8004eec <SSD1306_Puts>
	uint8_t value3_u8 = (value3 - 1000) / divider;
 800498a:	f5a7 727a 	sub.w	r2, r7, #1000	; 0x3e8
 800498e:	fb92 f2f8 	sdiv	r2, r2, r8
	SSD1306_DrawFilledRectangle(15, 34, value3_u8, 8, 1);
 8004992:	2308      	movs	r3, #8
 8004994:	b2d2      	uxtb	r2, r2
 8004996:	9400      	str	r4, [sp, #0]
 8004998:	2122      	movs	r1, #34	; 0x22
 800499a:	200f      	movs	r0, #15
 800499c:	f000 fb8d 	bl	80050ba <SSD1306_DrawFilledRectangle>


	//4. BAR
	SSD1306_GotoXY(3, 48); // goto 10, 10
 80049a0:	2130      	movs	r1, #48	; 0x30
 80049a2:	2003      	movs	r0, #3
 80049a4:	f000 fa50 	bl	8004e48 <SSD1306_GotoXY>
	sprintf(buffor_string, "%1d: ", start_number++);
 80049a8:	1cea      	adds	r2, r5, #3
	sprintf(buffor_string, "%1d: ", start_number++);
 80049aa:	4651      	mov	r1, sl
 80049ac:	b2d2      	uxtb	r2, r2
 80049ae:	a802      	add	r0, sp, #8
 80049b0:	f001 f804 	bl	80059bc <siprintf>
	SSD1306_Puts(buffor_string, &Font_7x10, 1);
 80049b4:	4622      	mov	r2, r4
 80049b6:	4649      	mov	r1, r9
 80049b8:	a802      	add	r0, sp, #8
 80049ba:	f000 fa97 	bl	8004eec <SSD1306_Puts>
	uint8_t value4_u8 = (value4 - 1000) / divider;
 80049be:	f5a6 727a 	sub.w	r2, r6, #1000	; 0x3e8
 80049c2:	fb92 f2f8 	sdiv	r2, r2, r8
	SSD1306_DrawFilledRectangle(15, 48, value4_u8, 8, 1);
 80049c6:	9400      	str	r4, [sp, #0]
 80049c8:	2308      	movs	r3, #8
 80049ca:	b2d2      	uxtb	r2, r2
 80049cc:	2130      	movs	r1, #48	; 0x30
 80049ce:	200f      	movs	r0, #15
 80049d0:	f000 fb73 	bl	80050ba <SSD1306_DrawFilledRectangle>


	SSD1306_DrawRectangle(0, 0, 128, 64, 1); // nice border of a OLED
 80049d4:	2100      	movs	r1, #0
 80049d6:	2340      	movs	r3, #64	; 0x40
 80049d8:	2280      	movs	r2, #128	; 0x80
 80049da:	4608      	mov	r0, r1
 80049dc:	9400      	str	r4, [sp, #0]
 80049de:	f000 fb2b 	bl	8005038 <SSD1306_DrawRectangle>
	SSD1306_UpdateScreen(); // update screen
 80049e2:	f000 fbc9 	bl	8005178 <SSD1306_UpdateScreen>

}
 80049e6:	b007      	add	sp, #28
 80049e8:	e8bd 8ff0 	ldmia.w	sp!, {r4, r5, r6, r7, r8, r9, sl, fp, pc}
 80049ec:	08007b42 	.word	0x08007b42
 80049f0:	20000008 	.word	0x20000008

080049f4 <oledPrintEncValues>:

void oledPrintEncValues(uint8_t rotation_value, uint8_t push_value) {
 80049f4:	b530      	push	{r4, r5, lr}
 80049f6:	4604      	mov	r4, r0
 80049f8:	b08b      	sub	sp, #44	; 0x2c
	//Clear function
//	SSD1306_Clear();
	SSD1306_Fill(0);
 80049fa:	2000      	movs	r0, #0
void oledPrintEncValues(uint8_t rotation_value, uint8_t push_value) {
 80049fc:	460d      	mov	r5, r1
	SSD1306_Fill(0);
 80049fe:	f000 f9b3 	bl	8004d68 <SSD1306_Fill>
	char buffor_string[25];

	sprintf(buffor_string, "ROTATION: %2d", rotation_value);
 8004a02:	4622      	mov	r2, r4
 8004a04:	4913      	ldr	r1, [pc, #76]	; (8004a54 <oledPrintEncValues+0x60>)
 8004a06:	a803      	add	r0, sp, #12
 8004a08:	f000 ffd8 	bl	80059bc <siprintf>
	SSD1306_GotoXY(10, 10); // goto 10, 10
 8004a0c:	210a      	movs	r1, #10
	SSD1306_Puts(buffor_string, &Font_7x10, 1);
 8004a0e:	4c12      	ldr	r4, [pc, #72]	; (8004a58 <oledPrintEncValues+0x64>)
	SSD1306_GotoXY(10, 10); // goto 10, 10
 8004a10:	4608      	mov	r0, r1
 8004a12:	f000 fa19 	bl	8004e48 <SSD1306_GotoXY>
	SSD1306_Puts(buffor_string, &Font_7x10, 1);
 8004a16:	4621      	mov	r1, r4
 8004a18:	2201      	movs	r2, #1
 8004a1a:	a803      	add	r0, sp, #12
 8004a1c:	f000 fa66 	bl	8004eec <SSD1306_Puts>

	sprintf(buffor_string, "PUSHES : %2d", push_value);
 8004a20:	462a      	mov	r2, r5
 8004a22:	490e      	ldr	r1, [pc, #56]	; (8004a5c <oledPrintEncValues+0x68>)
 8004a24:	a803      	add	r0, sp, #12
 8004a26:	f000 ffc9 	bl	80059bc <siprintf>
	SSD1306_GotoXY(10, 22);
 8004a2a:	2116      	movs	r1, #22
 8004a2c:	200a      	movs	r0, #10
 8004a2e:	f000 fa0b 	bl	8004e48 <SSD1306_GotoXY>
	SSD1306_Puts(buffor_string, &Font_7x10, 1);
 8004a32:	4621      	mov	r1, r4
 8004a34:	2201      	movs	r2, #1
 8004a36:	a803      	add	r0, sp, #12
 8004a38:	f000 fa58 	bl	8004eec <SSD1306_Puts>

	SSD1306_DrawRectangle(0, 0, 128, 64, 1); // nice border of a OLED
 8004a3c:	2100      	movs	r1, #0
 8004a3e:	2301      	movs	r3, #1
 8004a40:	2280      	movs	r2, #128	; 0x80
 8004a42:	9300      	str	r3, [sp, #0]
 8004a44:	4608      	mov	r0, r1
 8004a46:	2340      	movs	r3, #64	; 0x40
 8004a48:	f000 faf6 	bl	8005038 <SSD1306_DrawRectangle>
	SSD1306_UpdateScreen(); // update screen
 8004a4c:	f000 fb94 	bl	8005178 <SSD1306_UpdateScreen>
}
 8004a50:	b00b      	add	sp, #44	; 0x2c
 8004a52:	bd30      	pop	{r4, r5, pc}
 8004a54:	08007b73 	.word	0x08007b73
 8004a58:	20000008 	.word	0x20000008
 8004a5c:	08007b81 	.word	0x08007b81

08004a60 <oledPrintMainScreen>:

void oledPrintMainScreen(RC_Controler_Status *rc_status) {
 8004a60:	b530      	push	{r4, r5, lr}
 8004a62:	4605      	mov	r5, r0
 8004a64:	b08b      	sub	sp, #44	; 0x2c
	//Clear function
//	SSD1306_Clear();
	SSD1306_Fill(0);
 8004a66:	2000      	movs	r0, #0
 8004a68:	f000 f97e 	bl	8004d68 <SSD1306_Fill>
	char buffor_string[25];
	//1. Line of text
	sprintf(buffor_string, "FRM_SENT: %5ld", rc_status->frames_sent);
 8004a6c:	682a      	ldr	r2, [r5, #0]
 8004a6e:	4922      	ldr	r1, [pc, #136]	; (8004af8 <oledPrintMainScreen+0x98>)
 8004a70:	a803      	add	r0, sp, #12
 8004a72:	f000 ffa3 	bl	80059bc <siprintf>
	SSD1306_GotoXY(10, 10); // goto 10, 10
 8004a76:	210a      	movs	r1, #10
	SSD1306_Puts(buffor_string, &Font_7x10, 1);
 8004a78:	4c20      	ldr	r4, [pc, #128]	; (8004afc <oledPrintMainScreen+0x9c>)
	SSD1306_GotoXY(10, 10); // goto 10, 10
 8004a7a:	4608      	mov	r0, r1
 8004a7c:	f000 f9e4 	bl	8004e48 <SSD1306_GotoXY>
	SSD1306_Puts(buffor_string, &Font_7x10, 1);
 8004a80:	4621      	mov	r1, r4
 8004a82:	2201      	movs	r2, #1
 8004a84:	a803      	add	r0, sp, #12
 8004a86:	f000 fa31 	bl	8004eec <SSD1306_Puts>
	//2. Line of text
	sprintf(buffor_string, "IMU_STAT: %2d", rc_status->mpu_init_succes);
 8004a8a:	7b2a      	ldrb	r2, [r5, #12]
 8004a8c:	491c      	ldr	r1, [pc, #112]	; (8004b00 <oledPrintMainScreen+0xa0>)
 8004a8e:	a803      	add	r0, sp, #12
 8004a90:	f000 ff94 	bl	80059bc <siprintf>
	SSD1306_GotoXY(10, 22);
 8004a94:	2116      	movs	r1, #22
 8004a96:	200a      	movs	r0, #10
 8004a98:	f000 f9d6 	bl	8004e48 <SSD1306_GotoXY>
	SSD1306_Puts(buffor_string, &Font_7x10, 1);
 8004a9c:	4621      	mov	r1, r4
 8004a9e:	2201      	movs	r2, #1
 8004aa0:	a803      	add	r0, sp, #12
 8004aa2:	f000 fa23 	bl	8004eec <SSD1306_Puts>
	//3. Line of text
	sprintf(buffor_string, "RCV_STAT: %2d", rc_status->rc_recvier_found);
 8004aa6:	7b6a      	ldrb	r2, [r5, #13]
 8004aa8:	4916      	ldr	r1, [pc, #88]	; (8004b04 <oledPrintMainScreen+0xa4>)
 8004aaa:	a803      	add	r0, sp, #12
 8004aac:	f000 ff86 	bl	80059bc <siprintf>
	SSD1306_GotoXY(10, 34);
 8004ab0:	2122      	movs	r1, #34	; 0x22
 8004ab2:	200a      	movs	r0, #10
 8004ab4:	f000 f9c8 	bl	8004e48 <SSD1306_GotoXY>
	SSD1306_Puts(buffor_string, &Font_7x10, 1);
 8004ab8:	4621      	mov	r1, r4
 8004aba:	2201      	movs	r2, #1
 8004abc:	a803      	add	r0, sp, #12
 8004abe:	f000 fa15 	bl	8004eec <SSD1306_Puts>

	//4. Line of text

	sprintf(buffor_string, "ACK_RECV: %2d", rc_status->acks_recived);
 8004ac2:	68aa      	ldr	r2, [r5, #8]
 8004ac4:	4910      	ldr	r1, [pc, #64]	; (8004b08 <oledPrintMainScreen+0xa8>)
 8004ac6:	a803      	add	r0, sp, #12
 8004ac8:	f000 ff78 	bl	80059bc <siprintf>
	SSD1306_GotoXY(10, 46);
 8004acc:	212e      	movs	r1, #46	; 0x2e
 8004ace:	200a      	movs	r0, #10
 8004ad0:	f000 f9ba 	bl	8004e48 <SSD1306_GotoXY>
	SSD1306_Puts(buffor_string, &Font_7x10, 1);
 8004ad4:	4621      	mov	r1, r4
 8004ad6:	2201      	movs	r2, #1
 8004ad8:	a803      	add	r0, sp, #12
 8004ada:	f000 fa07 	bl	8004eec <SSD1306_Puts>

	SSD1306_DrawRectangle(0, 0, 128, 64, 1); // nice border of a OLED
 8004ade:	2100      	movs	r1, #0
 8004ae0:	2301      	movs	r3, #1
 8004ae2:	2280      	movs	r2, #128	; 0x80
 8004ae4:	9300      	str	r3, [sp, #0]
 8004ae6:	4608      	mov	r0, r1
 8004ae8:	2340      	movs	r3, #64	; 0x40
 8004aea:	f000 faa5 	bl	8005038 <SSD1306_DrawRectangle>
	SSD1306_UpdateScreen(); // update screen
 8004aee:	f000 fb43 	bl	8005178 <SSD1306_UpdateScreen>
}
 8004af2:	b00b      	add	sp, #44	; 0x2c
 8004af4:	bd30      	pop	{r4, r5, pc}
 8004af6:	bf00      	nop
 8004af8:	08007bc0 	.word	0x08007bc0
 8004afc:	20000008 	.word	0x20000008
 8004b00:	08007bcf 	.word	0x08007bcf
 8004b04:	08007bdd 	.word	0x08007bdd
 8004b08:	08007beb 	.word	0x08007beb

08004b0c <oledPrintCalibScreen>:

void oledPrintCalibScreen(uint8_t channel_number, uint16_t actual_value ,uint16_t time_to_end,
		uint16_t min, uint16_t max) {
 8004b0c:	b5f0      	push	{r4, r5, r6, r7, lr}
 8004b0e:	4604      	mov	r4, r0
 8004b10:	b08b      	sub	sp, #44	; 0x2c

	SSD1306_Fill(0);
 8004b12:	2000      	movs	r0, #0
		uint16_t min, uint16_t max) {
 8004b14:	461e      	mov	r6, r3
 8004b16:	460d      	mov	r5, r1
 8004b18:	4617      	mov	r7, r2
	SSD1306_Fill(0);
 8004b1a:	f000 f925 	bl	8004d68 <SSD1306_Fill>
	char buffor_string[25];
	//1. Line of text //Maybe fancy animation
	sprintf(buffor_string, "Calib chn %2d", channel_number);
 8004b1e:	4622      	mov	r2, r4
 8004b20:	491f      	ldr	r1, [pc, #124]	; (8004ba0 <oledPrintCalibScreen+0x94>)
 8004b22:	a803      	add	r0, sp, #12
 8004b24:	f000 ff4a 	bl	80059bc <siprintf>
	SSD1306_GotoXY(10, 10); // goto 10, 10
 8004b28:	210a      	movs	r1, #10
	SSD1306_Puts(buffor_string, &Font_7x10, 1);
 8004b2a:	4c1e      	ldr	r4, [pc, #120]	; (8004ba4 <oledPrintCalibScreen+0x98>)
	SSD1306_GotoXY(10, 10); // goto 10, 10
 8004b2c:	4608      	mov	r0, r1
 8004b2e:	f000 f98b 	bl	8004e48 <SSD1306_GotoXY>
	SSD1306_Puts(buffor_string, &Font_7x10, 1);
 8004b32:	4621      	mov	r1, r4
 8004b34:	2201      	movs	r2, #1
 8004b36:	a803      	add	r0, sp, #12
 8004b38:	f000 f9d8 	bl	8004eec <SSD1306_Puts>
	//2. Line of text
	sprintf(buffor_string, "time[ms]:%4d", time_to_end);
 8004b3c:	463a      	mov	r2, r7
 8004b3e:	491a      	ldr	r1, [pc, #104]	; (8004ba8 <oledPrintCalibScreen+0x9c>)
 8004b40:	a803      	add	r0, sp, #12
 8004b42:	f000 ff3b 	bl	80059bc <siprintf>
	SSD1306_GotoXY(10, 22);
 8004b46:	2116      	movs	r1, #22
 8004b48:	200a      	movs	r0, #10
 8004b4a:	f000 f97d 	bl	8004e48 <SSD1306_GotoXY>
	SSD1306_Puts(buffor_string, &Font_7x10, 1);
 8004b4e:	4621      	mov	r1, r4
 8004b50:	2201      	movs	r2, #1
 8004b52:	a803      	add	r0, sp, #12
 8004b54:	f000 f9ca 	bl	8004eec <SSD1306_Puts>
	//3. Line of text
	sprintf(buffor_string, "min:%2d max:%4d", min,max);
 8004b58:	f8bd 3040 	ldrh.w	r3, [sp, #64]	; 0x40
 8004b5c:	4632      	mov	r2, r6
 8004b5e:	4913      	ldr	r1, [pc, #76]	; (8004bac <oledPrintCalibScreen+0xa0>)
 8004b60:	a803      	add	r0, sp, #12
 8004b62:	f000 ff2b 	bl	80059bc <siprintf>
	SSD1306_GotoXY(10, 34);
 8004b66:	2122      	movs	r1, #34	; 0x22
 8004b68:	200a      	movs	r0, #10
 8004b6a:	f000 f96d 	bl	8004e48 <SSD1306_GotoXY>
	SSD1306_Puts(buffor_string, &Font_7x10, 1);
 8004b6e:	4621      	mov	r1, r4

	SSD1306_DrawFilledRectangle(15, 48, actual_value/32, 6, 1);
 8004b70:	2401      	movs	r4, #1
	SSD1306_Puts(buffor_string, &Font_7x10, 1);
 8004b72:	2201      	movs	r2, #1
 8004b74:	a803      	add	r0, sp, #12
 8004b76:	f000 f9b9 	bl	8004eec <SSD1306_Puts>
	SSD1306_DrawFilledRectangle(15, 48, actual_value/32, 6, 1);
 8004b7a:	096a      	lsrs	r2, r5, #5
 8004b7c:	9400      	str	r4, [sp, #0]
 8004b7e:	2306      	movs	r3, #6
 8004b80:	2130      	movs	r1, #48	; 0x30
 8004b82:	200f      	movs	r0, #15
 8004b84:	f000 fa99 	bl	80050ba <SSD1306_DrawFilledRectangle>




	SSD1306_DrawRectangle(0, 0, 128, 64, 1); // nice border of a OLED
 8004b88:	2100      	movs	r1, #0
 8004b8a:	2340      	movs	r3, #64	; 0x40
 8004b8c:	2280      	movs	r2, #128	; 0x80
 8004b8e:	4608      	mov	r0, r1
 8004b90:	9400      	str	r4, [sp, #0]
 8004b92:	f000 fa51 	bl	8005038 <SSD1306_DrawRectangle>
	SSD1306_UpdateScreen(); // update screen
 8004b96:	f000 faef 	bl	8005178 <SSD1306_UpdateScreen>
}
 8004b9a:	b00b      	add	sp, #44	; 0x2c
 8004b9c:	bdf0      	pop	{r4, r5, r6, r7, pc}
 8004b9e:	bf00      	nop
 8004ba0:	08007b48 	.word	0x08007b48
 8004ba4:	20000008 	.word	0x20000008
 8004ba8:	08007b56 	.word	0x08007b56
 8004bac:	08007b63 	.word	0x08007b63

08004bb0 <map_values_sbus>:

	return (x - in_min) * (out_max - out_min) / (in_max - in_min) + out_min;

}
uint16_t map_values_sbus(uint16_t x, uint16_t in_min, uint16_t in_max) {
	uint16_t temp_value = (x - in_min) * (2000 - 1000) / (in_max - in_min)
 8004bb0:	f44f 737a 	mov.w	r3, #1000	; 0x3e8
 8004bb4:	1a40      	subs	r0, r0, r1
 8004bb6:	4358      	muls	r0, r3
 8004bb8:	1a52      	subs	r2, r2, r1
 8004bba:	fb90 f0f2 	sdiv	r0, r0, r2
 8004bbe:	4418      	add	r0, r3
 8004bc0:	b280      	uxth	r0, r0
 8004bc2:	4298      	cmp	r0, r3
 8004bc4:	bf38      	it	cc
 8004bc6:	4618      	movcc	r0, r3
	if (temp_value < 1000)
		temp_value = 1000;

	return temp_value;

}
 8004bc8:	f5b0 6ffa 	cmp.w	r0, #2000	; 0x7d0
 8004bcc:	bf28      	it	cs
 8004bce:	f44f 60fa 	movcs.w	r0, #2000	; 0x7d0
 8004bd2:	4770      	bx	lr

08004bd4 <update_rc_mode>:
	return 3000 - value;
}

void update_rc_mode(RC_Mode mode) {

	if (mode) { // checking if mode >0
 8004bd4:	b110      	cbz	r0, 8004bdc <update_rc_mode+0x8>
		rc_channels.rc_mode = mode;
 8004bd6:	4b02      	ldr	r3, [pc, #8]	; (8004be0 <update_rc_mode+0xc>)
 8004bd8:	f883 0058 	strb.w	r0, [r3, #88]	; 0x58
 8004bdc:	4770      	bx	lr
 8004bde:	bf00      	nop
 8004be0:	20000864 	.word	0x20000864
 8004be4:	00000000 	.word	0x00000000

08004be8 <update_rc_channels>:
	}
}

void update_rc_channels(uint16_t* adc_values) {
 8004be8:	e92d 47f0 	stmdb	sp!, {r4, r5, r6, r7, r8, r9, sl, lr}

	if (rc_channels.rc_mode == RC_SIMPLE_JOYSTICK) {
 8004bec:	4c40      	ldr	r4, [pc, #256]	; (8004cf0 <update_rc_channels+0x108>)
void update_rc_channels(uint16_t* adc_values) {
 8004bee:	4605      	mov	r5, r0
	if (rc_channels.rc_mode == RC_SIMPLE_JOYSTICK) {
 8004bf0:	f894 3058 	ldrb.w	r3, [r4, #88]	; 0x58
 8004bf4:	2b01      	cmp	r3, #1
 8004bf6:	d11f      	bne.n	8004c38 <update_rc_channels+0x50>
		rc_channels.scaled_values[0] = reverse_channel(
 8004bf8:	8980      	ldrh	r0, [r0, #12]
 8004bfa:	f44f 6248 	mov.w	r2, #3200	; 0xc80
 8004bfe:	2100      	movs	r1, #0
 8004c00:	f7ff ffd6 	bl	8004bb0 <map_values_sbus>
	return 3000 - value;
 8004c04:	f640 36b8 	movw	r6, #3000	; 0xbb8
 8004c08:	1a30      	subs	r0, r6, r0
		rc_channels.scaled_values[0] = reverse_channel(
 8004c0a:	8020      	strh	r0, [r4, #0]
				map_values_sbus(adc_values[6], 0, 3200)); // ROLL
		rc_channels.scaled_values[1] =
				(map_values_sbus(adc_values[5], 0, 3200)); // PITCH
 8004c0c:	8968      	ldrh	r0, [r5, #10]
 8004c0e:	f44f 6248 	mov.w	r2, #3200	; 0xc80
 8004c12:	2100      	movs	r1, #0
 8004c14:	f7ff ffcc 	bl	8004bb0 <map_values_sbus>
		rc_channels.scaled_values[1] =
 8004c18:	8060      	strh	r0, [r4, #2]
		rc_channels.scaled_values[2] = reverse_channel(
 8004c1a:	89e8      	ldrh	r0, [r5, #14]
 8004c1c:	f44f 6248 	mov.w	r2, #3200	; 0xc80
 8004c20:	2100      	movs	r1, #0
 8004c22:	f7ff ffc5 	bl	8004bb0 <map_values_sbus>
	return 3000 - value;
 8004c26:	1a30      	subs	r0, r6, r0
		rc_channels.scaled_values[2] = reverse_channel(
 8004c28:	80a0      	strh	r0, [r4, #4]
				map_values_sbus(adc_values[7], 0, 3200)); // THROTLE
		rc_channels.scaled_values[3] = map_values_sbus(adc_values[8], 0, 3200); // YAW
 8004c2a:	8a28      	ldrh	r0, [r5, #16]
 8004c2c:	f44f 6248 	mov.w	r2, #3200	; 0xc80
 8004c30:	2100      	movs	r1, #0
 8004c32:	f7ff ffbd 	bl	8004bb0 <map_values_sbus>
 8004c36:	80e0      	strh	r0, [r4, #6]
		rc_channels.scaled_values[2] = map_values_sbus(adc_values[5], 0, 3200); // THROTLE
		rc_channels.scaled_values[3] = map_values_sbus(adc_values[8], 0, 3200); // YAW

	}

	rc_channels.scaled_values[4] = map_values_sbus(adc_values[0], 0, 3646); // POT1 //VALUES READ FROM MANUAL CALIB
 8004c38:	8828      	ldrh	r0, [r5, #0]
 8004c3a:	f640 623e 	movw	r2, #3646	; 0xe3e
// BAT_LEVEL - DO NOT USE AS INPUT

//	rc_channels.scaled_values[8] = map_values_sbus(adc_values[4], 0, 3200);

	for (int i = 0; i < 4; i++) {
		rc_channels.low_pass_values[i] = rc_channels.low_pass_values[i] * 0.95
 8004c3e:	f20f 09a0 	addw	r9, pc, #160	; 0xa0
 8004c42:	e9d9 8900 	ldrd	r8, r9, [r9]
	rc_channels.scaled_values[4] = map_values_sbus(adc_values[0], 0, 3646); // POT1 //VALUES READ FROM MANUAL CALIB
 8004c46:	2100      	movs	r1, #0
 8004c48:	f7ff ffb2 	bl	8004bb0 <map_values_sbus>
 8004c4c:	8120      	strh	r0, [r4, #8]
	rc_channels.scaled_values[5] = map_values_sbus(adc_values[1], 0, 3660); // POT2 //VALUES READ FROM MANUAL CALIB
 8004c4e:	8868      	ldrh	r0, [r5, #2]
 8004c50:	f640 624c 	movw	r2, #3660	; 0xe4c
 8004c54:	2100      	movs	r1, #0
 8004c56:	f7ff ffab 	bl	8004bb0 <map_values_sbus>
 8004c5a:	8160      	strh	r0, [r4, #10]
	rc_channels.scaled_values[6] = map_values_sbus(adc_values[2], 0, 4000); // SW1
 8004c5c:	88a8      	ldrh	r0, [r5, #4]
 8004c5e:	f44f 627a 	mov.w	r2, #4000	; 0xfa0
 8004c62:	2100      	movs	r1, #0
 8004c64:	f7ff ffa4 	bl	8004bb0 <map_values_sbus>
 8004c68:	81a0      	strh	r0, [r4, #12]
	rc_channels.scaled_values[7] = map_values_sbus(adc_values[3], 0, 4000); // SW2
 8004c6a:	88e8      	ldrh	r0, [r5, #6]
 8004c6c:	f44f 627a 	mov.w	r2, #4000	; 0xfa0
 8004c70:	2100      	movs	r1, #0
 8004c72:	f7ff ff9d 	bl	8004bb0 <map_values_sbus>
 8004c76:	81e0      	strh	r0, [r4, #14]
	rc_channels.scaled_values[8] = map_values_sbus(adc_values[9], 0, 4000); // 	 SW3
 8004c78:	8a68      	ldrh	r0, [r5, #18]
 8004c7a:	f44f 627a 	mov.w	r2, #4000	; 0xfa0
 8004c7e:	2100      	movs	r1, #0
 8004c80:	f7ff ff96 	bl	8004bb0 <map_values_sbus>
 8004c84:	8220      	strh	r0, [r4, #16]
	rc_channels.scaled_values[10] = map_values_sbus(adc_values[10], 0, 4000); // SW4
 8004c86:	8aa8      	ldrh	r0, [r5, #20]
 8004c88:	f44f 627a 	mov.w	r2, #4000	; 0xfa0
 8004c8c:	2100      	movs	r1, #0
 8004c8e:	f7ff ff8f 	bl	8004bb0 <map_values_sbus>
 8004c92:	82a0      	strh	r0, [r4, #20]
 8004c94:	4c17      	ldr	r4, [pc, #92]	; (8004cf4 <update_rc_channels+0x10c>)
 8004c96:	f104 0a08 	add.w	sl, r4, #8
		rc_channels.low_pass_values[i] = rc_channels.low_pass_values[i] * 0.95
 8004c9a:	8860      	ldrh	r0, [r4, #2]
 8004c9c:	f7fb fc1e 	bl	80004dc <__aeabi_i2d>
 8004ca0:	4642      	mov	r2, r8
 8004ca2:	464b      	mov	r3, r9
 8004ca4:	f7fb fc80 	bl	80005a8 <__aeabi_dmul>
 8004ca8:	4606      	mov	r6, r0
				+ 0.05 * rc_channels.scaled_values[i];
 8004caa:	f834 0c14 	ldrh.w	r0, [r4, #-20]
		rc_channels.low_pass_values[i] = rc_channels.low_pass_values[i] * 0.95
 8004cae:	460f      	mov	r7, r1
				+ 0.05 * rc_channels.scaled_values[i];
 8004cb0:	f7fb fc14 	bl	80004dc <__aeabi_i2d>
 8004cb4:	a30c      	add	r3, pc, #48	; (adr r3, 8004ce8 <update_rc_channels+0x100>)
 8004cb6:	e9d3 2300 	ldrd	r2, r3, [r3]
 8004cba:	f7fb fc75 	bl	80005a8 <__aeabi_dmul>
 8004cbe:	4602      	mov	r2, r0
 8004cc0:	460b      	mov	r3, r1
 8004cc2:	4630      	mov	r0, r6
 8004cc4:	4639      	mov	r1, r7
 8004cc6:	f7fb fabd 	bl	8000244 <__adddf3>
		rc_channels.low_pass_values[i] = rc_channels.low_pass_values[i] * 0.95
 8004cca:	f7fb fe7f 	bl	80009cc <__aeabi_d2uiz>
 8004cce:	f824 0f02 	strh.w	r0, [r4, #2]!
	for (int i = 0; i < 4; i++) {
 8004cd2:	45a2      	cmp	sl, r4
 8004cd4:	d1e1      	bne.n	8004c9a <update_rc_channels+0xb2>
	}

}
 8004cd6:	e8bd 87f0 	ldmia.w	sp!, {r4, r5, r6, r7, r8, r9, sl, pc}
 8004cda:	bf00      	nop
 8004cdc:	f3af 8000 	nop.w
 8004ce0:	66666666 	.word	0x66666666
 8004ce4:	3fee6666 	.word	0x3fee6666
 8004ce8:	9999999a 	.word	0x9999999a
 8004cec:	3fa99999 	.word	0x3fa99999
 8004cf0:	20000864 	.word	0x20000864
 8004cf4:	20000878 	.word	0x20000878

08004cf8 <calibrate_channel>:

void calibrate_channel(uint8_t channel_number, uint16_t timeout_ms) {
 8004cf8:	e92d 41f3 	stmdb	sp!, {r0, r1, r4, r5, r6, r7, r8, lr}
 8004cfc:	4606      	mov	r6, r0
 8004cfe:	460c      	mov	r4, r1
	uint16_t time_elapse_ms = timeout_ms;
	uint16_t min = 0;
	uint16_t max = 0;

	printf("Calibrating channel :%d ... \r\n ", channel_number);
 8004d00:	4601      	mov	r1, r0
 8004d02:	4815      	ldr	r0, [pc, #84]	; (8004d58 <calibrate_channel+0x60>)
 8004d04:	f000 fdde 	bl	80058c4 <iprintf>
	uint16_t max = 0;
 8004d08:	2500      	movs	r5, #0
		HAL_Delay(1);
		time_elapse_ms--;

		min = set_min(min, adc_values[channel_number]);
		max = set_max(max, adc_values[channel_number]);
		if (!(time_elapse_ms % 50)) {
 8004d0a:	2732      	movs	r7, #50	; 0x32
		min = set_min(min, adc_values[channel_number]);
 8004d0c:	f8df 8054 	ldr.w	r8, [pc, #84]	; 8004d64 <calibrate_channel+0x6c>
	while (time_elapse_ms) {
 8004d10:	b954      	cbnz	r4, 8004d28 <calibrate_channel+0x30>
		}

		//find

	}
	printf("MIN: %d \r\n", min);
 8004d12:	4621      	mov	r1, r4
 8004d14:	4811      	ldr	r0, [pc, #68]	; (8004d5c <calibrate_channel+0x64>)
 8004d16:	f000 fdd5 	bl	80058c4 <iprintf>
	printf("MAX: %d \r\n", max);
 8004d1a:	4629      	mov	r1, r5
 8004d1c:	4810      	ldr	r0, [pc, #64]	; (8004d60 <calibrate_channel+0x68>)

}
 8004d1e:	b002      	add	sp, #8
 8004d20:	e8bd 41f0 	ldmia.w	sp!, {r4, r5, r6, r7, r8, lr}
	printf("MAX: %d \r\n", max);
 8004d24:	f000 bdce 	b.w	80058c4 <iprintf>
		time_elapse_ms--;
 8004d28:	3c01      	subs	r4, #1
 8004d2a:	b2a4      	uxth	r4, r4
		HAL_Delay(1);
 8004d2c:	2001      	movs	r0, #1
 8004d2e:	f7fb feb5 	bl	8000a9c <HAL_Delay>
		if (!(time_elapse_ms % 50)) {
 8004d32:	fbb4 f3f7 	udiv	r3, r4, r7
 8004d36:	fb07 4313 	mls	r3, r7, r3, r4
		min = set_min(min, adc_values[channel_number]);
 8004d3a:	f838 1016 	ldrh.w	r1, [r8, r6, lsl #1]
		if (!(time_elapse_ms % 50)) {
 8004d3e:	b29b      	uxth	r3, r3
 8004d40:	428d      	cmp	r5, r1
 8004d42:	bf38      	it	cc
 8004d44:	460d      	movcc	r5, r1
 8004d46:	2b00      	cmp	r3, #0
 8004d48:	d1e2      	bne.n	8004d10 <calibrate_channel+0x18>
			oledPrintCalibScreen(channel_number, adc_values[channel_number],
 8004d4a:	9500      	str	r5, [sp, #0]
 8004d4c:	4622      	mov	r2, r4
 8004d4e:	4630      	mov	r0, r6
 8004d50:	f7ff fedc 	bl	8004b0c <oledPrintCalibScreen>
 8004d54:	e7dc      	b.n	8004d10 <calibrate_channel+0x18>
 8004d56:	bf00      	nop
 8004d58:	08007bf9 	.word	0x08007bf9
 8004d5c:	08007c19 	.word	0x08007c19
 8004d60:	08007c24 	.word	0x08007c24
 8004d64:	2000084c 	.word	0x2000084c

08004d68 <SSD1306_Fill>:
	}
}

void SSD1306_Fill(SSD1306_COLOR_t color) {
	/* Set memory */
	memset(SSD1306_Buffer, (color == SSD1306_COLOR_BLACK) ? 0x00 : 0xFF, sizeof(SSD1306_Buffer));
 8004d68:	2800      	cmp	r0, #0
 8004d6a:	f44f 6280 	mov.w	r2, #1024	; 0x400
 8004d6e:	bf14      	ite	ne
 8004d70:	21ff      	movne	r1, #255	; 0xff
 8004d72:	2100      	moveq	r1, #0
 8004d74:	4801      	ldr	r0, [pc, #4]	; (8004d7c <SSD1306_Fill+0x14>)
 8004d76:	f000 bd9c 	b.w	80058b2 <memset>
 8004d7a:	bf00      	nop
 8004d7c:	20000158 	.word	0x20000158

08004d80 <SSD1306_DrawPixel>:
}

void SSD1306_DrawPixel(uint16_t x, uint16_t y, SSD1306_COLOR_t color) {
	if (
 8004d80:	287f      	cmp	r0, #127	; 0x7f
void SSD1306_DrawPixel(uint16_t x, uint16_t y, SSD1306_COLOR_t color) {
 8004d82:	b510      	push	{r4, lr}
	if (
 8004d84:	d81a      	bhi.n	8004dbc <SSD1306_DrawPixel+0x3c>
		x >= SSD1306_WIDTH ||
 8004d86:	293f      	cmp	r1, #63	; 0x3f
 8004d88:	d818      	bhi.n	8004dbc <SSD1306_DrawPixel+0x3c>
		/* Error */
		return;
	}
	
	/* Check if pixels are inverted */
	if (SSD1306.Inverted) {
 8004d8a:	4b0d      	ldr	r3, [pc, #52]	; (8004dc0 <SSD1306_DrawPixel+0x40>)
 8004d8c:	791b      	ldrb	r3, [r3, #4]
 8004d8e:	b113      	cbz	r3, 8004d96 <SSD1306_DrawPixel+0x16>
		color = (SSD1306_COLOR_t)!color;
 8004d90:	fab2 f282 	clz	r2, r2
 8004d94:	0952      	lsrs	r2, r2, #5
 8004d96:	08cc      	lsrs	r4, r1, #3
	}
	
	/* Set color */
	if (color == SSD1306_COLOR_WHITE) {
 8004d98:	2a01      	cmp	r2, #1
 8004d9a:	4b0a      	ldr	r3, [pc, #40]	; (8004dc4 <SSD1306_DrawPixel+0x44>)
 8004d9c:	f001 0107 	and.w	r1, r1, #7
		SSD1306_Buffer[x + (y / 8) * SSD1306_WIDTH] |= 1 << (y % 8);
 8004da0:	eb00 10c4 	add.w	r0, r0, r4, lsl #7
	if (color == SSD1306_COLOR_WHITE) {
 8004da4:	d104      	bne.n	8004db0 <SSD1306_DrawPixel+0x30>
		SSD1306_Buffer[x + (y / 8) * SSD1306_WIDTH] |= 1 << (y % 8);
 8004da6:	408a      	lsls	r2, r1
 8004da8:	5c19      	ldrb	r1, [r3, r0]
 8004daa:	430a      	orrs	r2, r1
 8004dac:	541a      	strb	r2, [r3, r0]
 8004dae:	bd10      	pop	{r4, pc}
	} else {
		SSD1306_Buffer[x + (y / 8) * SSD1306_WIDTH] &= ~(1 << (y % 8));
 8004db0:	2201      	movs	r2, #1
 8004db2:	408a      	lsls	r2, r1
 8004db4:	5c19      	ldrb	r1, [r3, r0]
 8004db6:	ea21 0102 	bic.w	r1, r1, r2
 8004dba:	5419      	strb	r1, [r3, r0]
 8004dbc:	bd10      	pop	{r4, pc}
 8004dbe:	bf00      	nop
 8004dc0:	20000152 	.word	0x20000152
 8004dc4:	20000158 	.word	0x20000158

08004dc8 <SSD1306_DrawBitmap>:
{
 8004dc8:	e92d 4ff0 	stmdb	sp!, {r4, r5, r6, r7, r8, r9, sl, fp, lr}
 8004dcc:	b087      	sub	sp, #28
 8004dce:	4698      	mov	r8, r3
 8004dd0:	f9bd 3040 	ldrsh.w	r3, [sp, #64]	; 0x40
    for(int16_t j=0; j<h; j++, y++)
 8004dd4:	2500      	movs	r5, #0
{
 8004dd6:	9302      	str	r3, [sp, #8]
    int16_t byteWidth = (w + 7) / 8; // Bitmap scanline pad = whole byte
 8004dd8:	2308      	movs	r3, #8
{
 8004dda:	4693      	mov	fp, r2
    int16_t byteWidth = (w + 7) / 8; // Bitmap scanline pad = whole byte
 8004ddc:	f108 0207 	add.w	r2, r8, #7
 8004de0:	fb92 f2f3 	sdiv	r2, r2, r3
{
 8004de4:	4682      	mov	sl, r0
 8004de6:	4689      	mov	r9, r1
    for(int16_t j=0; j<h; j++, y++)
 8004de8:	462e      	mov	r6, r5
    uint8_t byte = 0;
 8004dea:	462c      	mov	r4, r5
    int16_t byteWidth = (w + 7) / 8; // Bitmap scanline pad = whole byte
 8004dec:	9201      	str	r2, [sp, #4]
            if(byte & 0x80) SSD1306_DrawPixel(x+i, y, color);
 8004dee:	f89d 2044 	ldrb.w	r2, [sp, #68]	; 0x44
 8004df2:	9204      	str	r2, [sp, #16]
    for(int16_t j=0; j<h; j++, y++)
 8004df4:	9902      	ldr	r1, [sp, #8]
 8004df6:	b232      	sxth	r2, r6
 8004df8:	4291      	cmp	r1, r2
 8004dfa:	dd22      	ble.n	8004e42 <SSD1306_DrawBitmap+0x7a>
            if(byte & 0x80) SSD1306_DrawPixel(x+i, y, color);
 8004dfc:	eb06 0209 	add.w	r2, r6, r9
 8004e00:	b292      	uxth	r2, r2
    for(int16_t j=0; j<h; j++, y++)
 8004e02:	2700      	movs	r7, #0
            if(byte & 0x80) SSD1306_DrawPixel(x+i, y, color);
 8004e04:	9203      	str	r2, [sp, #12]
 8004e06:	e015      	b.n	8004e34 <SSD1306_DrawBitmap+0x6c>
            if(i & 7)
 8004e08:	b2b8      	uxth	r0, r7
 8004e0a:	0741      	lsls	r1, r0, #29
               byte = (*(const unsigned char *)(&bitmap[j * byteWidth + i / 8]));
 8004e0c:	bf05      	ittet	eq
 8004e0e:	fb92 f2f3 	sdiveq	r2, r2, r3
 8004e12:	eb0b 0105 	addeq.w	r1, fp, r5
               byte <<= 1;
 8004e16:	0064      	lslne	r4, r4, #1
               byte = (*(const unsigned char *)(&bitmap[j * byteWidth + i / 8]));
 8004e18:	5c8c      	ldrbeq	r4, [r1, r2]
               byte <<= 1;
 8004e1a:	bf18      	it	ne
 8004e1c:	b2e4      	uxtbne	r4, r4
            if(byte & 0x80) SSD1306_DrawPixel(x+i, y, color);
 8004e1e:	0622      	lsls	r2, r4, #24
 8004e20:	d507      	bpl.n	8004e32 <SSD1306_DrawBitmap+0x6a>
 8004e22:	4450      	add	r0, sl
 8004e24:	9a04      	ldr	r2, [sp, #16]
 8004e26:	9903      	ldr	r1, [sp, #12]
 8004e28:	b280      	uxth	r0, r0
 8004e2a:	9305      	str	r3, [sp, #20]
 8004e2c:	f7ff ffa8 	bl	8004d80 <SSD1306_DrawPixel>
 8004e30:	9b05      	ldr	r3, [sp, #20]
 8004e32:	3701      	adds	r7, #1
 8004e34:	b23a      	sxth	r2, r7
        for(int16_t i=0; i<w; i++)
 8004e36:	4542      	cmp	r2, r8
 8004e38:	dbe6      	blt.n	8004e08 <SSD1306_DrawBitmap+0x40>
 8004e3a:	9a01      	ldr	r2, [sp, #4]
 8004e3c:	3601      	adds	r6, #1
 8004e3e:	4415      	add	r5, r2
 8004e40:	e7d8      	b.n	8004df4 <SSD1306_DrawBitmap+0x2c>
}
 8004e42:	b007      	add	sp, #28
 8004e44:	e8bd 8ff0 	ldmia.w	sp!, {r4, r5, r6, r7, r8, r9, sl, fp, pc}

08004e48 <SSD1306_GotoXY>:
	}
}

void SSD1306_GotoXY(uint16_t x, uint16_t y) {
	/* Set write pointers */
	SSD1306.CurrentX = x;
 8004e48:	4b01      	ldr	r3, [pc, #4]	; (8004e50 <SSD1306_GotoXY+0x8>)
 8004e4a:	8018      	strh	r0, [r3, #0]
	SSD1306.CurrentY = y;
 8004e4c:	8059      	strh	r1, [r3, #2]
 8004e4e:	4770      	bx	lr
 8004e50:	20000152 	.word	0x20000152

08004e54 <SSD1306_Putc>:
}

char SSD1306_Putc(char ch, FontDef_t* Font, SSD1306_COLOR_t color) {
 8004e54:	e92d 4ff0 	stmdb	sp!, {r4, r5, r6, r7, r8, r9, sl, fp, lr}
	uint32_t i, b, j;
	
	/* Check available space in LCD */
	if (
		SSD1306_WIDTH <= (SSD1306.CurrentX + Font->FontWidth) ||
 8004e58:	4d23      	ldr	r5, [pc, #140]	; (8004ee8 <SSD1306_Putc+0x94>)
char SSD1306_Putc(char ch, FontDef_t* Font, SSD1306_COLOR_t color) {
 8004e5a:	4693      	mov	fp, r2
		SSD1306_WIDTH <= (SSD1306.CurrentX + Font->FontWidth) ||
 8004e5c:	882e      	ldrh	r6, [r5, #0]
 8004e5e:	780a      	ldrb	r2, [r1, #0]
char SSD1306_Putc(char ch, FontDef_t* Font, SSD1306_COLOR_t color) {
 8004e60:	b085      	sub	sp, #20
		SSD1306_WIDTH <= (SSD1306.CurrentX + Font->FontWidth) ||
 8004e62:	4432      	add	r2, r6
	if (
 8004e64:	2a7f      	cmp	r2, #127	; 0x7f
char SSD1306_Putc(char ch, FontDef_t* Font, SSD1306_COLOR_t color) {
 8004e66:	4682      	mov	sl, r0
 8004e68:	460c      	mov	r4, r1
	if (
 8004e6a:	dc39      	bgt.n	8004ee0 <SSD1306_Putc+0x8c>
		SSD1306_HEIGHT <= (SSD1306.CurrentY + Font->FontHeight)
 8004e6c:	886b      	ldrh	r3, [r5, #2]
 8004e6e:	784a      	ldrb	r2, [r1, #1]
 8004e70:	9301      	str	r3, [sp, #4]
 8004e72:	441a      	add	r2, r3
		SSD1306_WIDTH <= (SSD1306.CurrentX + Font->FontWidth) ||
 8004e74:	2a3f      	cmp	r2, #63	; 0x3f
 8004e76:	dc33      	bgt.n	8004ee0 <SSD1306_Putc+0x8c>
 8004e78:	2700      	movs	r7, #0
		return 0;
	}
	
	/* Go through font */
	for (i = 0; i < Font->FontHeight; i++) {
		b = Font->data[(ch - 32) * Font->FontHeight + i];
 8004e7a:	f1a0 0320 	sub.w	r3, r0, #32
 8004e7e:	9303      	str	r3, [sp, #12]
	for (i = 0; i < Font->FontHeight; i++) {
 8004e80:	7862      	ldrb	r2, [r4, #1]
 8004e82:	4297      	cmp	r7, r2
 8004e84:	d306      	bcc.n	8004e94 <SSD1306_Putc+0x40>
			}
		}
	}
	
	/* Increase pointer */
	SSD1306.CurrentX += Font->FontWidth;
 8004e86:	7822      	ldrb	r2, [r4, #0]
 8004e88:	4416      	add	r6, r2
 8004e8a:	802e      	strh	r6, [r5, #0]
	
	/* Return character written */
	return ch;
}
 8004e8c:	4650      	mov	r0, sl
 8004e8e:	b005      	add	sp, #20
 8004e90:	e8bd 8ff0 	ldmia.w	sp!, {r4, r5, r6, r7, r8, r9, sl, fp, pc}
		for (j = 0; j < Font->FontWidth; j++) {
 8004e94:	f04f 0800 	mov.w	r8, #0
		b = Font->data[(ch - 32) * Font->FontHeight + i];
 8004e98:	9b03      	ldr	r3, [sp, #12]
 8004e9a:	6861      	ldr	r1, [r4, #4]
 8004e9c:	fb02 7203 	mla	r2, r2, r3, r7
 8004ea0:	f831 3012 	ldrh.w	r3, [r1, r2, lsl #1]
 8004ea4:	9302      	str	r3, [sp, #8]
 8004ea6:	9b01      	ldr	r3, [sp, #4]
 8004ea8:	eb03 0907 	add.w	r9, r3, r7
				SSD1306_DrawPixel(SSD1306.CurrentX + j, (SSD1306.CurrentY + i), (SSD1306_COLOR_t)!color);
 8004eac:	fa1f f989 	uxth.w	r9, r9
		for (j = 0; j < Font->FontWidth; j++) {
 8004eb0:	7822      	ldrb	r2, [r4, #0]
 8004eb2:	4590      	cmp	r8, r2
 8004eb4:	d301      	bcc.n	8004eba <SSD1306_Putc+0x66>
	for (i = 0; i < Font->FontHeight; i++) {
 8004eb6:	3701      	adds	r7, #1
 8004eb8:	e7e2      	b.n	8004e80 <SSD1306_Putc+0x2c>
			if ((b << j) & 0x8000) {
 8004eba:	9b02      	ldr	r3, [sp, #8]
 8004ebc:	eb06 0008 	add.w	r0, r6, r8
 8004ec0:	fa03 f208 	lsl.w	r2, r3, r8
 8004ec4:	f412 4f00 	tst.w	r2, #32768	; 0x8000
				SSD1306_DrawPixel(SSD1306.CurrentX + j, (SSD1306.CurrentY + i), (SSD1306_COLOR_t)!color);
 8004ec8:	bf0a      	itet	eq
 8004eca:	fabb f28b 	clzeq	r2, fp
				SSD1306_DrawPixel(SSD1306.CurrentX + j, (SSD1306.CurrentY + i), (SSD1306_COLOR_t) color);
 8004ece:	465a      	movne	r2, fp
				SSD1306_DrawPixel(SSD1306.CurrentX + j, (SSD1306.CurrentY + i), (SSD1306_COLOR_t)!color);
 8004ed0:	0952      	lsreq	r2, r2, #5
 8004ed2:	4649      	mov	r1, r9
 8004ed4:	b280      	uxth	r0, r0
 8004ed6:	f7ff ff53 	bl	8004d80 <SSD1306_DrawPixel>
		for (j = 0; j < Font->FontWidth; j++) {
 8004eda:	f108 0801 	add.w	r8, r8, #1
 8004ede:	e7e7      	b.n	8004eb0 <SSD1306_Putc+0x5c>
		return 0;
 8004ee0:	f04f 0a00 	mov.w	sl, #0
 8004ee4:	e7d2      	b.n	8004e8c <SSD1306_Putc+0x38>
 8004ee6:	bf00      	nop
 8004ee8:	20000152 	.word	0x20000152

08004eec <SSD1306_Puts>:

char SSD1306_Puts(char* str, FontDef_t* Font, SSD1306_COLOR_t color) {
 8004eec:	b570      	push	{r4, r5, r6, lr}
 8004eee:	460d      	mov	r5, r1
 8004ef0:	4616      	mov	r6, r2
 8004ef2:	1e44      	subs	r4, r0, #1
	/* Write characters */
	while (*str) {
 8004ef4:	7863      	ldrb	r3, [r4, #1]
 8004ef6:	b143      	cbz	r3, 8004f0a <SSD1306_Puts+0x1e>
		/* Write character by character */
		if (SSD1306_Putc(*str, Font, color) != *str) {
 8004ef8:	4618      	mov	r0, r3
 8004efa:	4632      	mov	r2, r6
 8004efc:	4629      	mov	r1, r5
 8004efe:	f7ff ffa9 	bl	8004e54 <SSD1306_Putc>
 8004f02:	f814 3f01 	ldrb.w	r3, [r4, #1]!
 8004f06:	4298      	cmp	r0, r3
 8004f08:	d0f4      	beq.n	8004ef4 <SSD1306_Puts+0x8>
		str++;
	}
	
	/* Everything OK, zero should be returned */
	return *str;
}
 8004f0a:	4618      	mov	r0, r3
 8004f0c:	bd70      	pop	{r4, r5, r6, pc}

08004f0e <SSD1306_DrawLine>:
 

void SSD1306_DrawLine(uint16_t x0, uint16_t y0, uint16_t x1, uint16_t y1, SSD1306_COLOR_t c) {
 8004f0e:	287f      	cmp	r0, #127	; 0x7f
 8004f10:	bf28      	it	cs
 8004f12:	207f      	movcs	r0, #127	; 0x7f
 8004f14:	2a7f      	cmp	r2, #127	; 0x7f
 8004f16:	bf28      	it	cs
 8004f18:	227f      	movcs	r2, #127	; 0x7f
 8004f1a:	293f      	cmp	r1, #63	; 0x3f
 8004f1c:	bf28      	it	cs
 8004f1e:	213f      	movcs	r1, #63	; 0x3f
 8004f20:	2b3f      	cmp	r3, #63	; 0x3f
 8004f22:	bf28      	it	cs
 8004f24:	233f      	movcs	r3, #63	; 0x3f
 8004f26:	e92d 4ff0 	stmdb	sp!, {r4, r5, r6, r7, r8, r9, sl, fp, lr}
 8004f2a:	b085      	sub	sp, #20
 8004f2c:	f89d 4038 	ldrb.w	r4, [sp, #56]	; 0x38
	}
	if (y1 >= SSD1306_HEIGHT) {
		y1 = SSD1306_HEIGHT - 1;
	}
	
	dx = (x0 < x1) ? (x1 - x0) : (x0 - x1); 
 8004f30:	4290      	cmp	r0, r2
void SSD1306_DrawLine(uint16_t x0, uint16_t y0, uint16_t x1, uint16_t y1, SSD1306_COLOR_t c) {
 8004f32:	9401      	str	r4, [sp, #4]
 8004f34:	4691      	mov	r9, r2
 8004f36:	4604      	mov	r4, r0
 8004f38:	460d      	mov	r5, r1
 8004f3a:	461e      	mov	r6, r3
	dx = (x0 < x1) ? (x1 - x0) : (x0 - x1); 
 8004f3c:	d211      	bcs.n	8004f62 <SSD1306_DrawLine+0x54>
 8004f3e:	eba2 0a00 	sub.w	sl, r2, r0
	dy = (y0 < y1) ? (y1 - y0) : (y0 - y1); 
 8004f42:	428b      	cmp	r3, r1
	dx = (x0 < x1) ? (x1 - x0) : (x0 - x1); 
 8004f44:	fa0f fa8a 	sxth.w	sl, sl
	dy = (y0 < y1) ? (y1 - y0) : (y0 - y1); 
 8004f48:	d871      	bhi.n	800502e <SSD1306_DrawLine+0x120>
	sx = (x0 < x1) ? 1 : -1; 
 8004f4a:	454c      	cmp	r4, r9
	dy = (y0 < y1) ? (y1 - y0) : (y0 - y1); 
 8004f4c:	eba5 0706 	sub.w	r7, r5, r6
 8004f50:	b23f      	sxth	r7, r7
	sx = (x0 < x1) ? 1 : -1; 
 8004f52:	bf2c      	ite	cs
 8004f54:	f04f 3bff 	movcs.w	fp, #4294967295
 8004f58:	f04f 0b01 	movcc.w	fp, #1
	sy = (y0 < y1) ? 1 : -1; 
 8004f5c:	f04f 33ff 	mov.w	r3, #4294967295
 8004f60:	e00a      	b.n	8004f78 <SSD1306_DrawLine+0x6a>
	dx = (x0 < x1) ? (x1 - x0) : (x0 - x1); 
 8004f62:	eba0 0a02 	sub.w	sl, r0, r2
	dy = (y0 < y1) ? (y1 - y0) : (y0 - y1); 
 8004f66:	428b      	cmp	r3, r1
	dx = (x0 < x1) ? (x1 - x0) : (x0 - x1); 
 8004f68:	fa0f fa8a 	sxth.w	sl, sl
	dy = (y0 < y1) ? (y1 - y0) : (y0 - y1); 
 8004f6c:	d9ed      	bls.n	8004f4a <SSD1306_DrawLine+0x3c>
	sx = (x0 < x1) ? 1 : -1; 
 8004f6e:	f04f 3bff 	mov.w	fp, #4294967295
	dy = (y0 < y1) ? (y1 - y0) : (y0 - y1); 
 8004f72:	1a5f      	subs	r7, r3, r1
 8004f74:	b23f      	sxth	r7, r7
	sy = (y0 < y1) ? 1 : -1; 
 8004f76:	2301      	movs	r3, #1
 8004f78:	f04f 0802 	mov.w	r8, #2
	err = ((dx > dy) ? dx : -dy) / 2; 
 8004f7c:	4557      	cmp	r7, sl
 8004f7e:	bfa5      	ittet	ge
 8004f80:	fb97 f8f8 	sdivge	r8, r7, r8
 8004f84:	f1c8 0800 	rsbge	r8, r8, #0
 8004f88:	fb9a f8f8 	sdivlt	r8, sl, r8
 8004f8c:	fa0f f888 	sxthge.w	r8, r8

	if (dx == 0) {
 8004f90:	f1ba 0f00 	cmp.w	sl, #0
 8004f94:	d116      	bne.n	8004fc4 <SSD1306_DrawLine+0xb6>
		if (y1 < y0) {
 8004f96:	42ae      	cmp	r6, r5
 8004f98:	bf3e      	ittt	cc
 8004f9a:	462b      	movcc	r3, r5
 8004f9c:	4635      	movcc	r5, r6
 8004f9e:	461e      	movcc	r6, r3
 8004fa0:	454c      	cmp	r4, r9
 8004fa2:	bf28      	it	cs
 8004fa4:	464c      	movcs	r4, r9
 8004fa6:	b2a4      	uxth	r4, r4
			x1 = x0;
			x0 = tmp;
		}
		
		/* Vertical line */
		for (i = y0; i <= y1; i++) {
 8004fa8:	b22d      	sxth	r5, r5
 8004faa:	42b5      	cmp	r5, r6
 8004fac:	dd02      	ble.n	8004fb4 <SSD1306_DrawLine+0xa6>
		if (e2 < dy) {
			err += dx;
			y0 += sy;
		} 
	}
}
 8004fae:	b005      	add	sp, #20
 8004fb0:	e8bd 8ff0 	ldmia.w	sp!, {r4, r5, r6, r7, r8, r9, sl, fp, pc}
			SSD1306_DrawPixel(x0, i, c);
 8004fb4:	b2ad      	uxth	r5, r5
 8004fb6:	4629      	mov	r1, r5
 8004fb8:	9a01      	ldr	r2, [sp, #4]
 8004fba:	4620      	mov	r0, r4
 8004fbc:	f7ff fee0 	bl	8004d80 <SSD1306_DrawPixel>
		for (i = y0; i <= y1; i++) {
 8004fc0:	3501      	adds	r5, #1
 8004fc2:	e7f1      	b.n	8004fa8 <SSD1306_DrawLine+0x9a>
	if (dy == 0) {
 8004fc4:	b1ff      	cbz	r7, 8005006 <SSD1306_DrawLine+0xf8>
		if (e2 > -dx) {
 8004fc6:	f1ca 0200 	rsb	r2, sl, #0
 8004fca:	9202      	str	r2, [sp, #8]
		SSD1306_DrawPixel(x0, y0, c);
 8004fcc:	9a01      	ldr	r2, [sp, #4]
 8004fce:	4629      	mov	r1, r5
 8004fd0:	4620      	mov	r0, r4
 8004fd2:	9303      	str	r3, [sp, #12]
 8004fd4:	f7ff fed4 	bl	8004d80 <SSD1306_DrawPixel>
		if (x0 == x1 && y0 == y1) {
 8004fd8:	454c      	cmp	r4, r9
 8004fda:	9b03      	ldr	r3, [sp, #12]
 8004fdc:	d101      	bne.n	8004fe2 <SSD1306_DrawLine+0xd4>
 8004fde:	42b5      	cmp	r5, r6
 8004fe0:	d0e5      	beq.n	8004fae <SSD1306_DrawLine+0xa0>
		if (e2 > -dx) {
 8004fe2:	9a02      	ldr	r2, [sp, #8]
 8004fe4:	4590      	cmp	r8, r2
			err -= dy;
 8004fe6:	bfc1      	itttt	gt
 8004fe8:	eba8 0207 	subgt.w	r2, r8, r7
			x0 += sx;
 8004fec:	445c      	addgt	r4, fp
			err -= dy;
 8004fee:	b212      	sxthgt	r2, r2
			x0 += sx;
 8004ff0:	b2a4      	uxthgt	r4, r4
 8004ff2:	bfd8      	it	le
 8004ff4:	4642      	movle	r2, r8
		if (e2 < dy) {
 8004ff6:	45b8      	cmp	r8, r7
 8004ff8:	da03      	bge.n	8005002 <SSD1306_DrawLine+0xf4>
			err += dx;
 8004ffa:	4452      	add	r2, sl
			y0 += sy;
 8004ffc:	441d      	add	r5, r3
			err += dx;
 8004ffe:	b212      	sxth	r2, r2
			y0 += sy;
 8005000:	b2ad      	uxth	r5, r5
		if (x1 < x0) {
 8005002:	4690      	mov	r8, r2
 8005004:	e7e2      	b.n	8004fcc <SSD1306_DrawLine+0xbe>
 8005006:	42b5      	cmp	r5, r6
 8005008:	bf28      	it	cs
 800500a:	4635      	movcs	r5, r6
 800500c:	454c      	cmp	r4, r9
 800500e:	b2ad      	uxth	r5, r5
 8005010:	d902      	bls.n	8005018 <SSD1306_DrawLine+0x10a>
 8005012:	4623      	mov	r3, r4
 8005014:	464c      	mov	r4, r9
 8005016:	4699      	mov	r9, r3
		for (i = x0; i <= x1; i++) {
 8005018:	b224      	sxth	r4, r4
 800501a:	454c      	cmp	r4, r9
 800501c:	dcc7      	bgt.n	8004fae <SSD1306_DrawLine+0xa0>
			SSD1306_DrawPixel(i, y0, c);
 800501e:	b2a4      	uxth	r4, r4
 8005020:	4620      	mov	r0, r4
 8005022:	9a01      	ldr	r2, [sp, #4]
 8005024:	4629      	mov	r1, r5
 8005026:	f7ff feab 	bl	8004d80 <SSD1306_DrawPixel>
		for (i = x0; i <= x1; i++) {
 800502a:	3401      	adds	r4, #1
 800502c:	e7f4      	b.n	8005018 <SSD1306_DrawLine+0x10a>
	dy = (y0 < y1) ? (y1 - y0) : (y0 - y1); 
 800502e:	1a5f      	subs	r7, r3, r1
 8005030:	b23f      	sxth	r7, r7
	sx = (x0 < x1) ? 1 : -1; 
 8005032:	f04f 0b01 	mov.w	fp, #1
 8005036:	e79e      	b.n	8004f76 <SSD1306_DrawLine+0x68>

08005038 <SSD1306_DrawRectangle>:

void SSD1306_DrawRectangle(uint16_t x, uint16_t y, uint16_t w, uint16_t h, SSD1306_COLOR_t c) {
 8005038:	e92d 41f3 	stmdb	sp!, {r0, r1, r4, r5, r6, r7, r8, lr}
	/* Check input parameters */
	if (
 800503c:	287f      	cmp	r0, #127	; 0x7f
void SSD1306_DrawRectangle(uint16_t x, uint16_t y, uint16_t w, uint16_t h, SSD1306_COLOR_t c) {
 800503e:	4607      	mov	r7, r0
 8005040:	460e      	mov	r6, r1
 8005042:	461d      	mov	r5, r3
 8005044:	f89d 8020 	ldrb.w	r8, [sp, #32]
	if (
 8005048:	d834      	bhi.n	80050b4 <SSD1306_DrawRectangle+0x7c>
		x >= SSD1306_WIDTH ||
 800504a:	293f      	cmp	r1, #63	; 0x3f
 800504c:	d832      	bhi.n	80050b4 <SSD1306_DrawRectangle+0x7c>
		/* Return error */
		return;
	}
	
	/* Check width and height */
	if ((x + w) >= SSD1306_WIDTH) {
 800504e:	1883      	adds	r3, r0, r2
 8005050:	2b7f      	cmp	r3, #127	; 0x7f
		w = SSD1306_WIDTH - x;
 8005052:	bfc8      	it	gt
 8005054:	f1c0 0280 	rsbgt	r2, r0, #128	; 0x80
	}
	if ((y + h) >= SSD1306_HEIGHT) {
 8005058:	eb01 0305 	add.w	r3, r1, r5
		w = SSD1306_WIDTH - x;
 800505c:	bfc8      	it	gt
 800505e:	b292      	uxthgt	r2, r2
	if ((y + h) >= SSD1306_HEIGHT) {
 8005060:	2b3f      	cmp	r3, #63	; 0x3f
		h = SSD1306_HEIGHT - y;
 8005062:	bfc4      	itt	gt
 8005064:	f1c1 0540 	rsbgt	r5, r1, #64	; 0x40
 8005068:	b2ad      	uxthgt	r5, r5
	}
	
	/* Draw 4 lines */
	SSD1306_DrawLine(x, y, x + w, y, c);         /* Top line */
 800506a:	4402      	add	r2, r0
 800506c:	b294      	uxth	r4, r2
	SSD1306_DrawLine(x, y + h, x + w, y + h, c); /* Bottom line */
 800506e:	4435      	add	r5, r6
 8005070:	b2ad      	uxth	r5, r5
	SSD1306_DrawLine(x, y, x + w, y, c);         /* Top line */
 8005072:	460b      	mov	r3, r1
 8005074:	4622      	mov	r2, r4
 8005076:	f8cd 8000 	str.w	r8, [sp]
 800507a:	f7ff ff48 	bl	8004f0e <SSD1306_DrawLine>
	SSD1306_DrawLine(x, y + h, x + w, y + h, c); /* Bottom line */
 800507e:	462b      	mov	r3, r5
 8005080:	4622      	mov	r2, r4
 8005082:	4629      	mov	r1, r5
 8005084:	4638      	mov	r0, r7
 8005086:	f8cd 8000 	str.w	r8, [sp]
 800508a:	f7ff ff40 	bl	8004f0e <SSD1306_DrawLine>
	SSD1306_DrawLine(x, y, x, y + h, c);         /* Left line */
 800508e:	462b      	mov	r3, r5
 8005090:	463a      	mov	r2, r7
 8005092:	4631      	mov	r1, r6
 8005094:	4638      	mov	r0, r7
 8005096:	f8cd 8000 	str.w	r8, [sp]
 800509a:	f7ff ff38 	bl	8004f0e <SSD1306_DrawLine>
	SSD1306_DrawLine(x + w, y, x + w, y + h, c); /* Right line */
 800509e:	462b      	mov	r3, r5
 80050a0:	4622      	mov	r2, r4
 80050a2:	4631      	mov	r1, r6
 80050a4:	4620      	mov	r0, r4
 80050a6:	f8cd 8020 	str.w	r8, [sp, #32]
}
 80050aa:	b002      	add	sp, #8
 80050ac:	e8bd 41f0 	ldmia.w	sp!, {r4, r5, r6, r7, r8, lr}
	SSD1306_DrawLine(x + w, y, x + w, y + h, c); /* Right line */
 80050b0:	f7ff bf2d 	b.w	8004f0e <SSD1306_DrawLine>
}
 80050b4:	b002      	add	sp, #8
 80050b6:	e8bd 81f0 	ldmia.w	sp!, {r4, r5, r6, r7, r8, pc}

080050ba <SSD1306_DrawFilledRectangle>:

void SSD1306_DrawFilledRectangle(uint16_t x, uint16_t y, uint16_t w, uint16_t h, SSD1306_COLOR_t c) {
 80050ba:	e92d 43f7 	stmdb	sp!, {r0, r1, r2, r4, r5, r6, r7, r8, r9, lr}
	uint8_t i;
	
	/* Check input parameters */
	if (
 80050be:	287f      	cmp	r0, #127	; 0x7f
void SSD1306_DrawFilledRectangle(uint16_t x, uint16_t y, uint16_t w, uint16_t h, SSD1306_COLOR_t c) {
 80050c0:	4606      	mov	r6, r0
 80050c2:	460f      	mov	r7, r1
 80050c4:	461d      	mov	r5, r3
 80050c6:	f89d 8028 	ldrb.w	r8, [sp, #40]	; 0x28
	if (
 80050ca:	d81a      	bhi.n	8005102 <SSD1306_DrawFilledRectangle+0x48>
		x >= SSD1306_WIDTH ||
 80050cc:	293f      	cmp	r1, #63	; 0x3f
 80050ce:	d818      	bhi.n	8005102 <SSD1306_DrawFilledRectangle+0x48>
	if ((y + h) >= SSD1306_HEIGHT) {
		h = SSD1306_HEIGHT - y;
	}
	
	/* Draw lines */
	for (i = 0; i <= h; i++) {
 80050d0:	f04f 0900 	mov.w	r9, #0
	if ((x + w) >= SSD1306_WIDTH) {
 80050d4:	1883      	adds	r3, r0, r2
 80050d6:	2b7f      	cmp	r3, #127	; 0x7f
		w = SSD1306_WIDTH - x;
 80050d8:	bfc8      	it	gt
 80050da:	f1c0 0280 	rsbgt	r2, r0, #128	; 0x80
	if ((y + h) >= SSD1306_HEIGHT) {
 80050de:	eb01 0305 	add.w	r3, r1, r5
		w = SSD1306_WIDTH - x;
 80050e2:	bfc8      	it	gt
 80050e4:	b292      	uxthgt	r2, r2
	if ((y + h) >= SSD1306_HEIGHT) {
 80050e6:	2b3f      	cmp	r3, #63	; 0x3f
		h = SSD1306_HEIGHT - y;
 80050e8:	bfc8      	it	gt
 80050ea:	f1c1 0540 	rsbgt	r5, r1, #64	; 0x40
		/* Draw lines */
		SSD1306_DrawLine(x, y + i, x + w, y + i, c);
 80050ee:	4402      	add	r2, r0
		h = SSD1306_HEIGHT - y;
 80050f0:	bfc8      	it	gt
 80050f2:	b2ad      	uxthgt	r5, r5
		SSD1306_DrawLine(x, y + i, x + w, y + i, c);
 80050f4:	b294      	uxth	r4, r2
	for (i = 0; i <= h; i++) {
 80050f6:	fa5f f389 	uxtb.w	r3, r9
 80050fa:	429d      	cmp	r5, r3
 80050fc:	f109 0901 	add.w	r9, r9, #1
 8005100:	d202      	bcs.n	8005108 <SSD1306_DrawFilledRectangle+0x4e>
	}
}
 8005102:	b003      	add	sp, #12
 8005104:	e8bd 83f0 	ldmia.w	sp!, {r4, r5, r6, r7, r8, r9, pc}
		SSD1306_DrawLine(x, y + i, x + w, y + i, c);
 8005108:	443b      	add	r3, r7
 800510a:	b29b      	uxth	r3, r3
 800510c:	f8cd 8000 	str.w	r8, [sp]
 8005110:	4622      	mov	r2, r4
 8005112:	4619      	mov	r1, r3
 8005114:	4630      	mov	r0, r6
 8005116:	f7ff fefa 	bl	8004f0e <SSD1306_DrawLine>
 800511a:	e7ec      	b.n	80050f6 <SSD1306_DrawFilledRectangle+0x3c>

0800511c <ssd1306_I2C_WriteMulti>:
	//while(p>0)
	//	p--;
	//MX_I2C1_Init();
}

void ssd1306_I2C_WriteMulti(uint8_t address, uint8_t reg, uint8_t* data, uint16_t count) {
 800511c:	b530      	push	{r4, r5, lr}
 800511e:	b0c3      	sub	sp, #268	; 0x10c
uint8_t dt[256];
dt[0] = reg;
 8005120:	f88d 1008 	strb.w	r1, [sp, #8]
uint8_t i;
for(i = 0; i < count; i++)
 8005124:	2100      	movs	r1, #0
 8005126:	1c4c      	adds	r4, r1, #1
 8005128:	b2c9      	uxtb	r1, r1
 800512a:	4299      	cmp	r1, r3
 800512c:	d30a      	bcc.n	8005144 <ssd1306_I2C_WriteMulti+0x28>
dt[i+1] = data[i];
HAL_I2C_Master_Transmit(&hi2c1, address, dt, count+1, 10);
 800512e:	220a      	movs	r2, #10
 8005130:	3301      	adds	r3, #1
 8005132:	9200      	str	r2, [sp, #0]
 8005134:	4601      	mov	r1, r0
 8005136:	b29b      	uxth	r3, r3
 8005138:	aa02      	add	r2, sp, #8
 800513a:	4805      	ldr	r0, [pc, #20]	; (8005150 <ssd1306_I2C_WriteMulti+0x34>)
 800513c:	f7fc fc2e 	bl	800199c <HAL_I2C_Master_Transmit>
}
 8005140:	b043      	add	sp, #268	; 0x10c
 8005142:	bd30      	pop	{r4, r5, pc}
dt[i+1] = data[i];
 8005144:	ad02      	add	r5, sp, #8
 8005146:	440d      	add	r5, r1
 8005148:	5c51      	ldrb	r1, [r2, r1]
 800514a:	7069      	strb	r1, [r5, #1]
 800514c:	4621      	mov	r1, r4
 800514e:	e7ea      	b.n	8005126 <ssd1306_I2C_WriteMulti+0xa>
 8005150:	200005e4 	.word	0x200005e4

08005154 <ssd1306_I2C_Write>:


void ssd1306_I2C_Write(uint8_t address, uint8_t reg, uint8_t data) {
 8005154:	b51f      	push	{r0, r1, r2, r3, r4, lr}
	uint8_t dt[2];
	dt[0] = reg;
	dt[1] = data;
	HAL_I2C_Master_Transmit(&hi2c1, address, dt, 2, 10);
 8005156:	230a      	movs	r3, #10
	dt[0] = reg;
 8005158:	f88d 100c 	strb.w	r1, [sp, #12]
	dt[1] = data;
 800515c:	f88d 200d 	strb.w	r2, [sp, #13]
	HAL_I2C_Master_Transmit(&hi2c1, address, dt, 2, 10);
 8005160:	9300      	str	r3, [sp, #0]
 8005162:	4601      	mov	r1, r0
 8005164:	2302      	movs	r3, #2
 8005166:	aa03      	add	r2, sp, #12
 8005168:	4802      	ldr	r0, [pc, #8]	; (8005174 <ssd1306_I2C_Write+0x20>)
 800516a:	f7fc fc17 	bl	800199c <HAL_I2C_Master_Transmit>
}
 800516e:	b005      	add	sp, #20
 8005170:	f85d fb04 	ldr.w	pc, [sp], #4
 8005174:	200005e4 	.word	0x200005e4

08005178 <SSD1306_UpdateScreen>:
void SSD1306_UpdateScreen(void) {
 8005178:	b538      	push	{r3, r4, r5, lr}
 800517a:	2400      	movs	r4, #0
		ssd1306_I2C_WriteMulti(SSD1306_I2C_ADDR, 0x40, &SSD1306_Buffer[SSD1306_WIDTH * m], SSD1306_WIDTH);
 800517c:	4d0e      	ldr	r5, [pc, #56]	; (80051b8 <SSD1306_UpdateScreen+0x40>)
		SSD1306_WRITECOMMAND(0xB0 + m);
 800517e:	f1a4 0250 	sub.w	r2, r4, #80	; 0x50
 8005182:	b2d2      	uxtb	r2, r2
 8005184:	2100      	movs	r1, #0
 8005186:	2078      	movs	r0, #120	; 0x78
 8005188:	f7ff ffe4 	bl	8005154 <ssd1306_I2C_Write>
		SSD1306_WRITECOMMAND(0x00);
 800518c:	2200      	movs	r2, #0
 800518e:	2078      	movs	r0, #120	; 0x78
 8005190:	4611      	mov	r1, r2
 8005192:	f7ff ffdf 	bl	8005154 <ssd1306_I2C_Write>
		SSD1306_WRITECOMMAND(0x10);
 8005196:	2210      	movs	r2, #16
 8005198:	2100      	movs	r1, #0
 800519a:	2078      	movs	r0, #120	; 0x78
 800519c:	f7ff ffda 	bl	8005154 <ssd1306_I2C_Write>
		ssd1306_I2C_WriteMulti(SSD1306_I2C_ADDR, 0x40, &SSD1306_Buffer[SSD1306_WIDTH * m], SSD1306_WIDTH);
 80051a0:	eb05 12c4 	add.w	r2, r5, r4, lsl #7
 80051a4:	2380      	movs	r3, #128	; 0x80
 80051a6:	2140      	movs	r1, #64	; 0x40
 80051a8:	2078      	movs	r0, #120	; 0x78
 80051aa:	3401      	adds	r4, #1
 80051ac:	f7ff ffb6 	bl	800511c <ssd1306_I2C_WriteMulti>
	for (m = 0; m < 8; m++) {
 80051b0:	2c08      	cmp	r4, #8
 80051b2:	d1e4      	bne.n	800517e <SSD1306_UpdateScreen+0x6>
}
 80051b4:	bd38      	pop	{r3, r4, r5, pc}
 80051b6:	bf00      	nop
 80051b8:	20000158 	.word	0x20000158

080051bc <SSD1306_Clear>:
{
 80051bc:	b508      	push	{r3, lr}
	SSD1306_Fill (0);
 80051be:	2000      	movs	r0, #0
 80051c0:	f7ff fdd2 	bl	8004d68 <SSD1306_Fill>
}
 80051c4:	e8bd 4008 	ldmia.w	sp!, {r3, lr}
    SSD1306_UpdateScreen();
 80051c8:	f7ff bfd6 	b.w	8005178 <SSD1306_UpdateScreen>

080051cc <SSD1306_Init>:
uint8_t SSD1306_Init(void) {
 80051cc:	b510      	push	{r4, lr}
	if (HAL_I2C_IsDeviceReady(&hi2c1, SSD1306_I2C_ADDR, 1, 20000) != HAL_OK) {
 80051ce:	f644 6320 	movw	r3, #20000	; 0x4e20
 80051d2:	2201      	movs	r2, #1
 80051d4:	2178      	movs	r1, #120	; 0x78
 80051d6:	4852      	ldr	r0, [pc, #328]	; (8005320 <SSD1306_Init+0x154>)
 80051d8:	f7fc ffd0 	bl	800217c <HAL_I2C_IsDeviceReady>
 80051dc:	4604      	mov	r4, r0
 80051de:	2800      	cmp	r0, #0
 80051e0:	f040 809c 	bne.w	800531c <SSD1306_Init+0x150>
	SSD1306_WRITECOMMAND(0xAE); //display off
 80051e4:	4601      	mov	r1, r0
 80051e6:	22ae      	movs	r2, #174	; 0xae
 80051e8:	2078      	movs	r0, #120	; 0x78
 80051ea:	f7ff ffb3 	bl	8005154 <ssd1306_I2C_Write>
	SSD1306_WRITECOMMAND(0x20); //Set Memory Addressing Mode   
 80051ee:	4621      	mov	r1, r4
 80051f0:	2220      	movs	r2, #32
 80051f2:	2078      	movs	r0, #120	; 0x78
 80051f4:	f7ff ffae 	bl	8005154 <ssd1306_I2C_Write>
	SSD1306_WRITECOMMAND(0x10); //00,Horizontal Addressing Mode;01,Vertical Addressing Mode;10,Page Addressing Mode (RESET);11,Invalid
 80051f8:	4621      	mov	r1, r4
 80051fa:	2210      	movs	r2, #16
 80051fc:	2078      	movs	r0, #120	; 0x78
 80051fe:	f7ff ffa9 	bl	8005154 <ssd1306_I2C_Write>
	SSD1306_WRITECOMMAND(0xB0); //Set Page Start Address for Page Addressing Mode,0-7
 8005202:	4621      	mov	r1, r4
 8005204:	22b0      	movs	r2, #176	; 0xb0
 8005206:	2078      	movs	r0, #120	; 0x78
 8005208:	f7ff ffa4 	bl	8005154 <ssd1306_I2C_Write>
	SSD1306_WRITECOMMAND(0xC8); //Set COM Output Scan Direction
 800520c:	4621      	mov	r1, r4
 800520e:	22c8      	movs	r2, #200	; 0xc8
 8005210:	2078      	movs	r0, #120	; 0x78
 8005212:	f7ff ff9f 	bl	8005154 <ssd1306_I2C_Write>
	SSD1306_WRITECOMMAND(0x00); //---set low column address
 8005216:	4622      	mov	r2, r4
 8005218:	4621      	mov	r1, r4
 800521a:	2078      	movs	r0, #120	; 0x78
 800521c:	f7ff ff9a 	bl	8005154 <ssd1306_I2C_Write>
	SSD1306_WRITECOMMAND(0x10); //---set high column address
 8005220:	4621      	mov	r1, r4
 8005222:	2210      	movs	r2, #16
 8005224:	2078      	movs	r0, #120	; 0x78
 8005226:	f7ff ff95 	bl	8005154 <ssd1306_I2C_Write>
	SSD1306_WRITECOMMAND(0x40); //--set start line address
 800522a:	4621      	mov	r1, r4
 800522c:	2240      	movs	r2, #64	; 0x40
 800522e:	2078      	movs	r0, #120	; 0x78
 8005230:	f7ff ff90 	bl	8005154 <ssd1306_I2C_Write>
	SSD1306_WRITECOMMAND(0x81); //--set contrast control register
 8005234:	4621      	mov	r1, r4
 8005236:	2281      	movs	r2, #129	; 0x81
 8005238:	2078      	movs	r0, #120	; 0x78
 800523a:	f7ff ff8b 	bl	8005154 <ssd1306_I2C_Write>
	SSD1306_WRITECOMMAND(0xFF);
 800523e:	4621      	mov	r1, r4
 8005240:	22ff      	movs	r2, #255	; 0xff
 8005242:	2078      	movs	r0, #120	; 0x78
 8005244:	f7ff ff86 	bl	8005154 <ssd1306_I2C_Write>
	SSD1306_WRITECOMMAND(0xA1); //--set segment re-map 0 to 127
 8005248:	4621      	mov	r1, r4
 800524a:	22a1      	movs	r2, #161	; 0xa1
 800524c:	2078      	movs	r0, #120	; 0x78
 800524e:	f7ff ff81 	bl	8005154 <ssd1306_I2C_Write>
	SSD1306_WRITECOMMAND(0xA6); //--set normal display
 8005252:	4621      	mov	r1, r4
 8005254:	22a6      	movs	r2, #166	; 0xa6
 8005256:	2078      	movs	r0, #120	; 0x78
 8005258:	f7ff ff7c 	bl	8005154 <ssd1306_I2C_Write>
	SSD1306_WRITECOMMAND(0xA8); //--set multiplex ratio(1 to 64)
 800525c:	4621      	mov	r1, r4
 800525e:	22a8      	movs	r2, #168	; 0xa8
 8005260:	2078      	movs	r0, #120	; 0x78
 8005262:	f7ff ff77 	bl	8005154 <ssd1306_I2C_Write>
	SSD1306_WRITECOMMAND(0x3F); //
 8005266:	4621      	mov	r1, r4
 8005268:	223f      	movs	r2, #63	; 0x3f
 800526a:	2078      	movs	r0, #120	; 0x78
 800526c:	f7ff ff72 	bl	8005154 <ssd1306_I2C_Write>
	SSD1306_WRITECOMMAND(0xA4); //0xa4,Output follows RAM content;0xa5,Output ignores RAM content
 8005270:	4621      	mov	r1, r4
 8005272:	22a4      	movs	r2, #164	; 0xa4
 8005274:	2078      	movs	r0, #120	; 0x78
 8005276:	f7ff ff6d 	bl	8005154 <ssd1306_I2C_Write>
	SSD1306_WRITECOMMAND(0xD3); //-set display offset
 800527a:	4621      	mov	r1, r4
 800527c:	22d3      	movs	r2, #211	; 0xd3
 800527e:	2078      	movs	r0, #120	; 0x78
 8005280:	f7ff ff68 	bl	8005154 <ssd1306_I2C_Write>
	SSD1306_WRITECOMMAND(0x00); //-not offset
 8005284:	4622      	mov	r2, r4
 8005286:	4621      	mov	r1, r4
 8005288:	2078      	movs	r0, #120	; 0x78
 800528a:	f7ff ff63 	bl	8005154 <ssd1306_I2C_Write>
	SSD1306_WRITECOMMAND(0xD5); //--set display clock divide ratio/oscillator frequency
 800528e:	4621      	mov	r1, r4
 8005290:	22d5      	movs	r2, #213	; 0xd5
 8005292:	2078      	movs	r0, #120	; 0x78
 8005294:	f7ff ff5e 	bl	8005154 <ssd1306_I2C_Write>
	SSD1306_WRITECOMMAND(0xF0); //--set divide ratio
 8005298:	4621      	mov	r1, r4
 800529a:	22f0      	movs	r2, #240	; 0xf0
 800529c:	2078      	movs	r0, #120	; 0x78
 800529e:	f7ff ff59 	bl	8005154 <ssd1306_I2C_Write>
	SSD1306_WRITECOMMAND(0xD9); //--set pre-charge period
 80052a2:	4621      	mov	r1, r4
 80052a4:	22d9      	movs	r2, #217	; 0xd9
 80052a6:	2078      	movs	r0, #120	; 0x78
 80052a8:	f7ff ff54 	bl	8005154 <ssd1306_I2C_Write>
	SSD1306_WRITECOMMAND(0x22); //
 80052ac:	4621      	mov	r1, r4
 80052ae:	2222      	movs	r2, #34	; 0x22
 80052b0:	2078      	movs	r0, #120	; 0x78
 80052b2:	f7ff ff4f 	bl	8005154 <ssd1306_I2C_Write>
	SSD1306_WRITECOMMAND(0xDA); //--set com pins hardware configuration
 80052b6:	4621      	mov	r1, r4
 80052b8:	22da      	movs	r2, #218	; 0xda
 80052ba:	2078      	movs	r0, #120	; 0x78
 80052bc:	f7ff ff4a 	bl	8005154 <ssd1306_I2C_Write>
	SSD1306_WRITECOMMAND(0x12);
 80052c0:	4621      	mov	r1, r4
 80052c2:	2212      	movs	r2, #18
 80052c4:	2078      	movs	r0, #120	; 0x78
 80052c6:	f7ff ff45 	bl	8005154 <ssd1306_I2C_Write>
	SSD1306_WRITECOMMAND(0xDB); //--set vcomh
 80052ca:	4621      	mov	r1, r4
 80052cc:	22db      	movs	r2, #219	; 0xdb
 80052ce:	2078      	movs	r0, #120	; 0x78
 80052d0:	f7ff ff40 	bl	8005154 <ssd1306_I2C_Write>
	SSD1306_WRITECOMMAND(0x20); //0x20,0.77xVcc
 80052d4:	4621      	mov	r1, r4
 80052d6:	2220      	movs	r2, #32
 80052d8:	2078      	movs	r0, #120	; 0x78
 80052da:	f7ff ff3b 	bl	8005154 <ssd1306_I2C_Write>
	SSD1306_WRITECOMMAND(0x8D); //--set DC-DC enable
 80052de:	4621      	mov	r1, r4
 80052e0:	228d      	movs	r2, #141	; 0x8d
 80052e2:	2078      	movs	r0, #120	; 0x78
 80052e4:	f7ff ff36 	bl	8005154 <ssd1306_I2C_Write>
	SSD1306_WRITECOMMAND(0x14); //
 80052e8:	4621      	mov	r1, r4
 80052ea:	2214      	movs	r2, #20
 80052ec:	2078      	movs	r0, #120	; 0x78
 80052ee:	f7ff ff31 	bl	8005154 <ssd1306_I2C_Write>
	SSD1306_WRITECOMMAND(0xAF); //--turn on SSD1306 panel
 80052f2:	4621      	mov	r1, r4
 80052f4:	22af      	movs	r2, #175	; 0xaf
 80052f6:	2078      	movs	r0, #120	; 0x78
 80052f8:	f7ff ff2c 	bl	8005154 <ssd1306_I2C_Write>
	SSD1306_WRITECOMMAND(SSD1306_DEACTIVATE_SCROLL);
 80052fc:	222e      	movs	r2, #46	; 0x2e
 80052fe:	4621      	mov	r1, r4
 8005300:	2078      	movs	r0, #120	; 0x78
 8005302:	f7ff ff27 	bl	8005154 <ssd1306_I2C_Write>
	SSD1306_Fill(SSD1306_COLOR_BLACK);
 8005306:	4620      	mov	r0, r4
 8005308:	f7ff fd2e 	bl	8004d68 <SSD1306_Fill>
	SSD1306_UpdateScreen();
 800530c:	f7ff ff34 	bl	8005178 <SSD1306_UpdateScreen>
	SSD1306.Initialized = 1;
 8005310:	2001      	movs	r0, #1
	SSD1306.CurrentX = 0;
 8005312:	4b04      	ldr	r3, [pc, #16]	; (8005324 <SSD1306_Init+0x158>)
	SSD1306.Initialized = 1;
 8005314:	7158      	strb	r0, [r3, #5]
	SSD1306.CurrentX = 0;
 8005316:	801c      	strh	r4, [r3, #0]
	SSD1306.CurrentY = 0;
 8005318:	805c      	strh	r4, [r3, #2]
	return 1;
 800531a:	bd10      	pop	{r4, pc}
		return 0;
 800531c:	2000      	movs	r0, #0
}
 800531e:	bd10      	pop	{r4, pc}
 8005320:	200005e4 	.word	0x200005e4
 8005324:	20000152 	.word	0x20000152

08005328 <HAL_MspInit>:
{
  /* USER CODE BEGIN MspInit 0 */

  /* USER CODE END MspInit 0 */

  __HAL_RCC_AFIO_CLK_ENABLE();
 8005328:	4b0e      	ldr	r3, [pc, #56]	; (8005364 <HAL_MspInit+0x3c>)
{
 800532a:	b082      	sub	sp, #8
  __HAL_RCC_AFIO_CLK_ENABLE();
 800532c:	699a      	ldr	r2, [r3, #24]
 800532e:	f042 0201 	orr.w	r2, r2, #1
 8005332:	619a      	str	r2, [r3, #24]
 8005334:	699a      	ldr	r2, [r3, #24]
 8005336:	f002 0201 	and.w	r2, r2, #1
 800533a:	9200      	str	r2, [sp, #0]
 800533c:	9a00      	ldr	r2, [sp, #0]
  __HAL_RCC_PWR_CLK_ENABLE();
 800533e:	69da      	ldr	r2, [r3, #28]
 8005340:	f042 5280 	orr.w	r2, r2, #268435456	; 0x10000000
 8005344:	61da      	str	r2, [r3, #28]
 8005346:	69db      	ldr	r3, [r3, #28]

  /* System interrupt init*/

  /** NOJTAG: JTAG-DP Disabled and SW-DP Enabled 
  */
  __HAL_AFIO_REMAP_SWJ_NOJTAG();
 8005348:	4a07      	ldr	r2, [pc, #28]	; (8005368 <HAL_MspInit+0x40>)
  __HAL_RCC_PWR_CLK_ENABLE();
 800534a:	f003 5380 	and.w	r3, r3, #268435456	; 0x10000000
 800534e:	9301      	str	r3, [sp, #4]
 8005350:	9b01      	ldr	r3, [sp, #4]
  __HAL_AFIO_REMAP_SWJ_NOJTAG();
 8005352:	6853      	ldr	r3, [r2, #4]
 8005354:	f023 63e0 	bic.w	r3, r3, #117440512	; 0x7000000
 8005358:	f043 7300 	orr.w	r3, r3, #33554432	; 0x2000000
 800535c:	6053      	str	r3, [r2, #4]

  /* USER CODE BEGIN MspInit 1 */

  /* USER CODE END MspInit 1 */
}
 800535e:	b002      	add	sp, #8
 8005360:	4770      	bx	lr
 8005362:	bf00      	nop
 8005364:	40021000 	.word	0x40021000
 8005368:	40010000 	.word	0x40010000

0800536c <HAL_ADC_MspInit>:
* @param hadc: ADC handle pointer
* @retval None
*/
void HAL_ADC_MspInit(ADC_HandleTypeDef* hadc)
{
  GPIO_InitTypeDef GPIO_InitStruct = {0};
 800536c:	2210      	movs	r2, #16
{
 800536e:	b530      	push	{r4, r5, lr}
 8005370:	4605      	mov	r5, r0
 8005372:	b089      	sub	sp, #36	; 0x24
  GPIO_InitTypeDef GPIO_InitStruct = {0};
 8005374:	eb0d 0002 	add.w	r0, sp, r2
 8005378:	2100      	movs	r1, #0
 800537a:	f000 fa9a 	bl	80058b2 <memset>
  if(hadc->Instance==ADC1)
 800537e:	682a      	ldr	r2, [r5, #0]
 8005380:	4b2c      	ldr	r3, [pc, #176]	; (8005434 <HAL_ADC_MspInit+0xc8>)
 8005382:	429a      	cmp	r2, r3
 8005384:	d154      	bne.n	8005430 <HAL_ADC_MspInit+0xc4>
  {
  /* USER CODE BEGIN ADC1_MspInit 0 */

  /* USER CODE END ADC1_MspInit 0 */
    /* Peripheral clock enable */
    __HAL_RCC_ADC1_CLK_ENABLE();
 8005386:	f503 436c 	add.w	r3, r3, #60416	; 0xec00
 800538a:	699a      	ldr	r2, [r3, #24]
    PC5     ------> ADC1_IN15
    PB0     ------> ADC1_IN8 
    */
    GPIO_InitStruct.Pin = JOY1_X_Pin|JO1_Y_Pin|JOY2_X_Pin|JOY2_Y_Pin 
                          |SW3_Pin|SW4_Pin;
    GPIO_InitStruct.Mode = GPIO_MODE_ANALOG;
 800538c:	2403      	movs	r4, #3
    __HAL_RCC_ADC1_CLK_ENABLE();
 800538e:	f442 7200 	orr.w	r2, r2, #512	; 0x200
 8005392:	619a      	str	r2, [r3, #24]
 8005394:	699a      	ldr	r2, [r3, #24]
    HAL_GPIO_Init(GPIOC, &GPIO_InitStruct);
 8005396:	a904      	add	r1, sp, #16
    __HAL_RCC_ADC1_CLK_ENABLE();
 8005398:	f402 7200 	and.w	r2, r2, #512	; 0x200
 800539c:	9200      	str	r2, [sp, #0]
 800539e:	9a00      	ldr	r2, [sp, #0]
    __HAL_RCC_GPIOC_CLK_ENABLE();
 80053a0:	699a      	ldr	r2, [r3, #24]
    HAL_GPIO_Init(GPIOC, &GPIO_InitStruct);
 80053a2:	4825      	ldr	r0, [pc, #148]	; (8005438 <HAL_ADC_MspInit+0xcc>)
    __HAL_RCC_GPIOC_CLK_ENABLE();
 80053a4:	f042 0210 	orr.w	r2, r2, #16
 80053a8:	619a      	str	r2, [r3, #24]
 80053aa:	699a      	ldr	r2, [r3, #24]
 80053ac:	f002 0210 	and.w	r2, r2, #16
 80053b0:	9201      	str	r2, [sp, #4]
 80053b2:	9a01      	ldr	r2, [sp, #4]
    __HAL_RCC_GPIOA_CLK_ENABLE();
 80053b4:	699a      	ldr	r2, [r3, #24]
 80053b6:	f042 0204 	orr.w	r2, r2, #4
 80053ba:	619a      	str	r2, [r3, #24]
 80053bc:	699a      	ldr	r2, [r3, #24]
 80053be:	f002 0204 	and.w	r2, r2, #4
 80053c2:	9202      	str	r2, [sp, #8]
 80053c4:	9a02      	ldr	r2, [sp, #8]
    __HAL_RCC_GPIOB_CLK_ENABLE();
 80053c6:	699a      	ldr	r2, [r3, #24]
 80053c8:	f042 0208 	orr.w	r2, r2, #8
 80053cc:	619a      	str	r2, [r3, #24]
 80053ce:	699b      	ldr	r3, [r3, #24]
    GPIO_InitStruct.Mode = GPIO_MODE_ANALOG;
 80053d0:	9405      	str	r4, [sp, #20]
    __HAL_RCC_GPIOB_CLK_ENABLE();
 80053d2:	f003 0308 	and.w	r3, r3, #8
 80053d6:	9303      	str	r3, [sp, #12]
 80053d8:	9b03      	ldr	r3, [sp, #12]
    GPIO_InitStruct.Pin = JOY1_X_Pin|JO1_Y_Pin|JOY2_X_Pin|JOY2_Y_Pin 
 80053da:	233f      	movs	r3, #63	; 0x3f
 80053dc:	9304      	str	r3, [sp, #16]
    HAL_GPIO_Init(GPIOC, &GPIO_InitStruct);
 80053de:	f7fb ff65 	bl	80012ac <HAL_GPIO_Init>

    GPIO_InitStruct.Pin = POT1_Pin|POT2_Pin|SW1_Pin|SW2_Pin;
 80053e2:	23e1      	movs	r3, #225	; 0xe1
    GPIO_InitStruct.Mode = GPIO_MODE_ANALOG;
    HAL_GPIO_Init(GPIOA, &GPIO_InitStruct);
 80053e4:	a904      	add	r1, sp, #16
 80053e6:	4815      	ldr	r0, [pc, #84]	; (800543c <HAL_ADC_MspInit+0xd0>)
    GPIO_InitStruct.Pin = POT1_Pin|POT2_Pin|SW1_Pin|SW2_Pin;
 80053e8:	9304      	str	r3, [sp, #16]
    GPIO_InitStruct.Mode = GPIO_MODE_ANALOG;
 80053ea:	9405      	str	r4, [sp, #20]
    HAL_GPIO_Init(GPIOA, &GPIO_InitStruct);
 80053ec:	f7fb ff5e 	bl	80012ac <HAL_GPIO_Init>

    GPIO_InitStruct.Pin = BAT_LEVEL_Pin;
 80053f0:	2301      	movs	r3, #1
    GPIO_InitStruct.Mode = GPIO_MODE_ANALOG;
    HAL_GPIO_Init(BAT_LEVEL_GPIO_Port, &GPIO_InitStruct);
 80053f2:	4813      	ldr	r0, [pc, #76]	; (8005440 <HAL_ADC_MspInit+0xd4>)
 80053f4:	a904      	add	r1, sp, #16
    GPIO_InitStruct.Pin = BAT_LEVEL_Pin;
 80053f6:	9304      	str	r3, [sp, #16]
    GPIO_InitStruct.Mode = GPIO_MODE_ANALOG;
 80053f8:	9405      	str	r4, [sp, #20]
    HAL_GPIO_Init(BAT_LEVEL_GPIO_Port, &GPIO_InitStruct);
 80053fa:	f7fb ff57 	bl	80012ac <HAL_GPIO_Init>
    /* ADC1 DMA Init */
    /* ADC1 Init */
    hdma_adc1.Instance = DMA1_Channel1;
    hdma_adc1.Init.Direction = DMA_PERIPH_TO_MEMORY;
    hdma_adc1.Init.PeriphInc = DMA_PINC_DISABLE;
    hdma_adc1.Init.MemInc = DMA_MINC_ENABLE;
 80053fe:	2280      	movs	r2, #128	; 0x80
    hdma_adc1.Instance = DMA1_Channel1;
 8005400:	4c10      	ldr	r4, [pc, #64]	; (8005444 <HAL_ADC_MspInit+0xd8>)
 8005402:	4b11      	ldr	r3, [pc, #68]	; (8005448 <HAL_ADC_MspInit+0xdc>)
    hdma_adc1.Init.MemInc = DMA_MINC_ENABLE;
 8005404:	60e2      	str	r2, [r4, #12]
    hdma_adc1.Init.PeriphDataAlignment = DMA_PDATAALIGN_HALFWORD;
 8005406:	f44f 7280 	mov.w	r2, #256	; 0x100
 800540a:	6122      	str	r2, [r4, #16]
    hdma_adc1.Init.MemDataAlignment = DMA_MDATAALIGN_HALFWORD;
 800540c:	f44f 6280 	mov.w	r2, #1024	; 0x400
    hdma_adc1.Instance = DMA1_Channel1;
 8005410:	6023      	str	r3, [r4, #0]
    hdma_adc1.Init.MemDataAlignment = DMA_MDATAALIGN_HALFWORD;
 8005412:	6162      	str	r2, [r4, #20]
    hdma_adc1.Init.Direction = DMA_PERIPH_TO_MEMORY;
 8005414:	2300      	movs	r3, #0
    hdma_adc1.Init.Mode = DMA_CIRCULAR;
 8005416:	2220      	movs	r2, #32
    hdma_adc1.Init.Priority = DMA_PRIORITY_LOW;
    if (HAL_DMA_Init(&hdma_adc1) != HAL_OK)
 8005418:	4620      	mov	r0, r4
    hdma_adc1.Init.Direction = DMA_PERIPH_TO_MEMORY;
 800541a:	6063      	str	r3, [r4, #4]
    hdma_adc1.Init.PeriphInc = DMA_PINC_DISABLE;
 800541c:	60a3      	str	r3, [r4, #8]
    hdma_adc1.Init.Mode = DMA_CIRCULAR;
 800541e:	61a2      	str	r2, [r4, #24]
    hdma_adc1.Init.Priority = DMA_PRIORITY_LOW;
 8005420:	61e3      	str	r3, [r4, #28]
    if (HAL_DMA_Init(&hdma_adc1) != HAL_OK)
 8005422:	f7fb fde9 	bl	8000ff8 <HAL_DMA_Init>
 8005426:	b108      	cbz	r0, 800542c <HAL_ADC_MspInit+0xc0>
    {
      Error_Handler();
 8005428:	f7fe fc40 	bl	8003cac <Error_Handler>
    }

    __HAL_LINKDMA(hadc,DMA_Handle,hdma_adc1);
 800542c:	622c      	str	r4, [r5, #32]
 800542e:	6265      	str	r5, [r4, #36]	; 0x24
  /* USER CODE BEGIN ADC1_MspInit 1 */

  /* USER CODE END ADC1_MspInit 1 */
  }

}
 8005430:	b009      	add	sp, #36	; 0x24
 8005432:	bd30      	pop	{r4, r5, pc}
 8005434:	40012400 	.word	0x40012400
 8005438:	40011000 	.word	0x40011000
 800543c:	40010800 	.word	0x40010800
 8005440:	40010c00 	.word	0x40010c00
 8005444:	200006ec 	.word	0x200006ec
 8005448:	40020008 	.word	0x40020008

0800544c <HAL_I2C_MspInit>:
* This function configures the hardware resources used in this example
* @param hi2c: I2C handle pointer
* @retval None
*/
void HAL_I2C_MspInit(I2C_HandleTypeDef* hi2c)
{
 800544c:	b510      	push	{r4, lr}
 800544e:	4604      	mov	r4, r0
 8005450:	b08a      	sub	sp, #40	; 0x28
  GPIO_InitTypeDef GPIO_InitStruct = {0};
 8005452:	2210      	movs	r2, #16
 8005454:	2100      	movs	r1, #0
 8005456:	a806      	add	r0, sp, #24
 8005458:	f000 fa2b 	bl	80058b2 <memset>
  if(hi2c->Instance==I2C1)
 800545c:	6823      	ldr	r3, [r4, #0]
 800545e:	4a26      	ldr	r2, [pc, #152]	; (80054f8 <HAL_I2C_MspInit+0xac>)
 8005460:	4293      	cmp	r3, r2
 8005462:	d127      	bne.n	80054b4 <HAL_I2C_MspInit+0x68>
  {
  /* USER CODE BEGIN I2C1_MspInit 0 */
	  __HAL_RCC_I2C2_CLK_ENABLE();  // <<<<<<<<<<<<<<<<<<<<<<<<<<<<<<<<<<  add manualy
 8005464:	4c25      	ldr	r4, [pc, #148]	; (80054fc <HAL_I2C_MspInit+0xb0>)
    PB7     ------> I2C1_SDA 
    */
    GPIO_InitStruct.Pin = GPIO_PIN_6|GPIO_PIN_7;
    GPIO_InitStruct.Mode = GPIO_MODE_AF_OD;
    GPIO_InitStruct.Speed = GPIO_SPEED_FREQ_HIGH;
    HAL_GPIO_Init(GPIOB, &GPIO_InitStruct);
 8005466:	a906      	add	r1, sp, #24
	  __HAL_RCC_I2C2_CLK_ENABLE();  // <<<<<<<<<<<<<<<<<<<<<<<<<<<<<<<<<<  add manualy
 8005468:	69e3      	ldr	r3, [r4, #28]
    HAL_GPIO_Init(GPIOB, &GPIO_InitStruct);
 800546a:	4825      	ldr	r0, [pc, #148]	; (8005500 <HAL_I2C_MspInit+0xb4>)
	  __HAL_RCC_I2C2_CLK_ENABLE();  // <<<<<<<<<<<<<<<<<<<<<<<<<<<<<<<<<<  add manualy
 800546c:	f443 0380 	orr.w	r3, r3, #4194304	; 0x400000
 8005470:	61e3      	str	r3, [r4, #28]
 8005472:	69e3      	ldr	r3, [r4, #28]
 8005474:	f403 0380 	and.w	r3, r3, #4194304	; 0x400000
 8005478:	9301      	str	r3, [sp, #4]
 800547a:	9b01      	ldr	r3, [sp, #4]
    __HAL_RCC_GPIOB_CLK_ENABLE();
 800547c:	69a3      	ldr	r3, [r4, #24]
 800547e:	f043 0308 	orr.w	r3, r3, #8
 8005482:	61a3      	str	r3, [r4, #24]
 8005484:	69a3      	ldr	r3, [r4, #24]
 8005486:	f003 0308 	and.w	r3, r3, #8
 800548a:	9302      	str	r3, [sp, #8]
 800548c:	9b02      	ldr	r3, [sp, #8]
    GPIO_InitStruct.Pin = GPIO_PIN_6|GPIO_PIN_7;
 800548e:	23c0      	movs	r3, #192	; 0xc0
 8005490:	9306      	str	r3, [sp, #24]
    GPIO_InitStruct.Mode = GPIO_MODE_AF_OD;
 8005492:	2312      	movs	r3, #18
 8005494:	9307      	str	r3, [sp, #28]
    GPIO_InitStruct.Speed = GPIO_SPEED_FREQ_HIGH;
 8005496:	2303      	movs	r3, #3
 8005498:	9309      	str	r3, [sp, #36]	; 0x24
    HAL_GPIO_Init(GPIOB, &GPIO_InitStruct);
 800549a:	f7fb ff07 	bl	80012ac <HAL_GPIO_Init>

    /* Peripheral clock enable */
    __HAL_RCC_I2C1_CLK_ENABLE();
 800549e:	69e3      	ldr	r3, [r4, #28]
 80054a0:	f443 1300 	orr.w	r3, r3, #2097152	; 0x200000
 80054a4:	61e3      	str	r3, [r4, #28]
 80054a6:	69e3      	ldr	r3, [r4, #28]
 80054a8:	f403 1300 	and.w	r3, r3, #2097152	; 0x200000
 80054ac:	9303      	str	r3, [sp, #12]
 80054ae:	9b03      	ldr	r3, [sp, #12]
  /* USER CODE BEGIN I2C2_MspInit 1 */

  /* USER CODE END I2C2_MspInit 1 */
  }

}
 80054b0:	b00a      	add	sp, #40	; 0x28
 80054b2:	bd10      	pop	{r4, pc}
  else if(hi2c->Instance==I2C2)
 80054b4:	4a13      	ldr	r2, [pc, #76]	; (8005504 <HAL_I2C_MspInit+0xb8>)
 80054b6:	4293      	cmp	r3, r2
 80054b8:	d1fa      	bne.n	80054b0 <HAL_I2C_MspInit+0x64>
    __HAL_RCC_GPIOB_CLK_ENABLE();
 80054ba:	4c10      	ldr	r4, [pc, #64]	; (80054fc <HAL_I2C_MspInit+0xb0>)
    HAL_GPIO_Init(GPIOB, &GPIO_InitStruct);
 80054bc:	a906      	add	r1, sp, #24
    __HAL_RCC_GPIOB_CLK_ENABLE();
 80054be:	69a3      	ldr	r3, [r4, #24]
    HAL_GPIO_Init(GPIOB, &GPIO_InitStruct);
 80054c0:	480f      	ldr	r0, [pc, #60]	; (8005500 <HAL_I2C_MspInit+0xb4>)
    __HAL_RCC_GPIOB_CLK_ENABLE();
 80054c2:	f043 0308 	orr.w	r3, r3, #8
 80054c6:	61a3      	str	r3, [r4, #24]
 80054c8:	69a3      	ldr	r3, [r4, #24]
 80054ca:	f003 0308 	and.w	r3, r3, #8
 80054ce:	9304      	str	r3, [sp, #16]
 80054d0:	9b04      	ldr	r3, [sp, #16]
    GPIO_InitStruct.Pin = GPIO_PIN_10|GPIO_PIN_11;
 80054d2:	f44f 6340 	mov.w	r3, #3072	; 0xc00
 80054d6:	9306      	str	r3, [sp, #24]
    GPIO_InitStruct.Mode = GPIO_MODE_AF_OD;
 80054d8:	2312      	movs	r3, #18
 80054da:	9307      	str	r3, [sp, #28]
    GPIO_InitStruct.Speed = GPIO_SPEED_FREQ_HIGH;
 80054dc:	2303      	movs	r3, #3
 80054de:	9309      	str	r3, [sp, #36]	; 0x24
    HAL_GPIO_Init(GPIOB, &GPIO_InitStruct);
 80054e0:	f7fb fee4 	bl	80012ac <HAL_GPIO_Init>
    __HAL_RCC_I2C2_CLK_ENABLE();
 80054e4:	69e3      	ldr	r3, [r4, #28]
 80054e6:	f443 0380 	orr.w	r3, r3, #4194304	; 0x400000
 80054ea:	61e3      	str	r3, [r4, #28]
 80054ec:	69e3      	ldr	r3, [r4, #28]
 80054ee:	f403 0380 	and.w	r3, r3, #4194304	; 0x400000
 80054f2:	9305      	str	r3, [sp, #20]
 80054f4:	9b05      	ldr	r3, [sp, #20]
}
 80054f6:	e7db      	b.n	80054b0 <HAL_I2C_MspInit+0x64>
 80054f8:	40005400 	.word	0x40005400
 80054fc:	40021000 	.word	0x40021000
 8005500:	40010c00 	.word	0x40010c00
 8005504:	40005800 	.word	0x40005800

08005508 <HAL_SPI_MspInit>:
* This function configures the hardware resources used in this example
* @param hspi: SPI handle pointer
* @retval None
*/
void HAL_SPI_MspInit(SPI_HandleTypeDef* hspi)
{
 8005508:	b530      	push	{r4, r5, lr}
  GPIO_InitTypeDef GPIO_InitStruct = {0};
 800550a:	2410      	movs	r4, #16
{
 800550c:	4605      	mov	r5, r0
 800550e:	b087      	sub	sp, #28
  GPIO_InitTypeDef GPIO_InitStruct = {0};
 8005510:	4622      	mov	r2, r4
 8005512:	2100      	movs	r1, #0
 8005514:	a802      	add	r0, sp, #8
 8005516:	f000 f9cc 	bl	80058b2 <memset>
  if(hspi->Instance==SPI1)
 800551a:	682a      	ldr	r2, [r5, #0]
 800551c:	4b18      	ldr	r3, [pc, #96]	; (8005580 <HAL_SPI_MspInit+0x78>)
 800551e:	429a      	cmp	r2, r3
 8005520:	d12c      	bne.n	800557c <HAL_SPI_MspInit+0x74>
  {
  /* USER CODE BEGIN SPI1_MspInit 0 */

  /* USER CODE END SPI1_MspInit 0 */
    /* Peripheral clock enable */
    __HAL_RCC_SPI1_CLK_ENABLE();
 8005522:	f503 4360 	add.w	r3, r3, #57344	; 0xe000
 8005526:	699a      	ldr	r2, [r3, #24]
    PB5     ------> SPI1_MOSI 
    */
    GPIO_InitStruct.Pin = GPIO_PIN_3|GPIO_PIN_5;
    GPIO_InitStruct.Mode = GPIO_MODE_AF_PP;
    GPIO_InitStruct.Speed = GPIO_SPEED_FREQ_HIGH;
    HAL_GPIO_Init(GPIOB, &GPIO_InitStruct);
 8005528:	a902      	add	r1, sp, #8
    __HAL_RCC_SPI1_CLK_ENABLE();
 800552a:	f442 5280 	orr.w	r2, r2, #4096	; 0x1000
 800552e:	619a      	str	r2, [r3, #24]
 8005530:	699a      	ldr	r2, [r3, #24]
    HAL_GPIO_Init(GPIOB, &GPIO_InitStruct);
 8005532:	4814      	ldr	r0, [pc, #80]	; (8005584 <HAL_SPI_MspInit+0x7c>)
    __HAL_RCC_SPI1_CLK_ENABLE();
 8005534:	f402 5280 	and.w	r2, r2, #4096	; 0x1000
 8005538:	9200      	str	r2, [sp, #0]
 800553a:	9a00      	ldr	r2, [sp, #0]
    __HAL_RCC_GPIOB_CLK_ENABLE();
 800553c:	699a      	ldr	r2, [r3, #24]
 800553e:	f042 0208 	orr.w	r2, r2, #8
 8005542:	619a      	str	r2, [r3, #24]
 8005544:	699b      	ldr	r3, [r3, #24]
 8005546:	f003 0308 	and.w	r3, r3, #8
 800554a:	9301      	str	r3, [sp, #4]
 800554c:	9b01      	ldr	r3, [sp, #4]
    GPIO_InitStruct.Pin = GPIO_PIN_3|GPIO_PIN_5;
 800554e:	2328      	movs	r3, #40	; 0x28
 8005550:	9302      	str	r3, [sp, #8]
    GPIO_InitStruct.Mode = GPIO_MODE_AF_PP;
 8005552:	2302      	movs	r3, #2
 8005554:	9303      	str	r3, [sp, #12]
    GPIO_InitStruct.Speed = GPIO_SPEED_FREQ_HIGH;
 8005556:	2303      	movs	r3, #3
 8005558:	9305      	str	r3, [sp, #20]
    HAL_GPIO_Init(GPIOB, &GPIO_InitStruct);
 800555a:	f7fb fea7 	bl	80012ac <HAL_GPIO_Init>

    GPIO_InitStruct.Pin = GPIO_PIN_4;
    GPIO_InitStruct.Mode = GPIO_MODE_INPUT;
 800555e:	2300      	movs	r3, #0
    GPIO_InitStruct.Pull = GPIO_NOPULL;
    HAL_GPIO_Init(GPIOB, &GPIO_InitStruct);
 8005560:	a902      	add	r1, sp, #8
 8005562:	4808      	ldr	r0, [pc, #32]	; (8005584 <HAL_SPI_MspInit+0x7c>)
    GPIO_InitStruct.Mode = GPIO_MODE_INPUT;
 8005564:	9303      	str	r3, [sp, #12]
    GPIO_InitStruct.Pull = GPIO_NOPULL;
 8005566:	9304      	str	r3, [sp, #16]
    GPIO_InitStruct.Pin = GPIO_PIN_4;
 8005568:	9402      	str	r4, [sp, #8]
    HAL_GPIO_Init(GPIOB, &GPIO_InitStruct);
 800556a:	f7fb fe9f 	bl	80012ac <HAL_GPIO_Init>

    __HAL_AFIO_REMAP_SPI1_ENABLE();
 800556e:	4a06      	ldr	r2, [pc, #24]	; (8005588 <HAL_SPI_MspInit+0x80>)
 8005570:	6853      	ldr	r3, [r2, #4]
 8005572:	f043 63e0 	orr.w	r3, r3, #117440512	; 0x7000000
 8005576:	f043 0301 	orr.w	r3, r3, #1
 800557a:	6053      	str	r3, [r2, #4]
  /* USER CODE BEGIN SPI1_MspInit 1 */

  /* USER CODE END SPI1_MspInit 1 */
  }

}
 800557c:	b007      	add	sp, #28
 800557e:	bd30      	pop	{r4, r5, pc}
 8005580:	40013000 	.word	0x40013000
 8005584:	40010c00 	.word	0x40010c00
 8005588:	40010000 	.word	0x40010000

0800558c <HAL_TIM_Encoder_MspInit>:
* This function configures the hardware resources used in this example
* @param htim_encoder: TIM_Encoder handle pointer
* @retval None
*/
void HAL_TIM_Encoder_MspInit(TIM_HandleTypeDef* htim_encoder)
{
 800558c:	b510      	push	{r4, lr}
 800558e:	4604      	mov	r4, r0
 8005590:	b086      	sub	sp, #24
  GPIO_InitTypeDef GPIO_InitStruct = {0};
 8005592:	2210      	movs	r2, #16
 8005594:	2100      	movs	r1, #0
 8005596:	a802      	add	r0, sp, #8
 8005598:	f000 f98b 	bl	80058b2 <memset>
  if(htim_encoder->Instance==TIM1)
 800559c:	6822      	ldr	r2, [r4, #0]
 800559e:	4b11      	ldr	r3, [pc, #68]	; (80055e4 <HAL_TIM_Encoder_MspInit+0x58>)
 80055a0:	429a      	cmp	r2, r3
 80055a2:	d11c      	bne.n	80055de <HAL_TIM_Encoder_MspInit+0x52>
  {
  /* USER CODE BEGIN TIM1_MspInit 0 */

  /* USER CODE END TIM1_MspInit 0 */
    /* Peripheral clock enable */
    __HAL_RCC_TIM1_CLK_ENABLE();
 80055a4:	f503 4364 	add.w	r3, r3, #58368	; 0xe400
 80055a8:	699a      	ldr	r2, [r3, #24]
    PA9     ------> TIM1_CH2 
    */
    GPIO_InitStruct.Pin = GPIO_PIN_8|GPIO_PIN_9;
    GPIO_InitStruct.Mode = GPIO_MODE_INPUT;
    GPIO_InitStruct.Pull = GPIO_PULLUP;
    HAL_GPIO_Init(GPIOA, &GPIO_InitStruct);
 80055aa:	a902      	add	r1, sp, #8
    __HAL_RCC_TIM1_CLK_ENABLE();
 80055ac:	f442 6200 	orr.w	r2, r2, #2048	; 0x800
 80055b0:	619a      	str	r2, [r3, #24]
 80055b2:	699a      	ldr	r2, [r3, #24]
    HAL_GPIO_Init(GPIOA, &GPIO_InitStruct);
 80055b4:	480c      	ldr	r0, [pc, #48]	; (80055e8 <HAL_TIM_Encoder_MspInit+0x5c>)
    __HAL_RCC_TIM1_CLK_ENABLE();
 80055b6:	f402 6200 	and.w	r2, r2, #2048	; 0x800
 80055ba:	9200      	str	r2, [sp, #0]
 80055bc:	9a00      	ldr	r2, [sp, #0]
    __HAL_RCC_GPIOA_CLK_ENABLE();
 80055be:	699a      	ldr	r2, [r3, #24]
 80055c0:	f042 0204 	orr.w	r2, r2, #4
 80055c4:	619a      	str	r2, [r3, #24]
 80055c6:	699b      	ldr	r3, [r3, #24]
 80055c8:	f003 0304 	and.w	r3, r3, #4
 80055cc:	9301      	str	r3, [sp, #4]
 80055ce:	9b01      	ldr	r3, [sp, #4]
    GPIO_InitStruct.Pin = GPIO_PIN_8|GPIO_PIN_9;
 80055d0:	f44f 7340 	mov.w	r3, #768	; 0x300
 80055d4:	9302      	str	r3, [sp, #8]
    GPIO_InitStruct.Pull = GPIO_PULLUP;
 80055d6:	2301      	movs	r3, #1
 80055d8:	9304      	str	r3, [sp, #16]
    HAL_GPIO_Init(GPIOA, &GPIO_InitStruct);
 80055da:	f7fb fe67 	bl	80012ac <HAL_GPIO_Init>
  /* USER CODE BEGIN TIM1_MspInit 1 */

  /* USER CODE END TIM1_MspInit 1 */
  }

}
 80055de:	b006      	add	sp, #24
 80055e0:	bd10      	pop	{r4, pc}
 80055e2:	bf00      	nop
 80055e4:	40012c00 	.word	0x40012c00
 80055e8:	40010800 	.word	0x40010800

080055ec <HAL_TIM_Base_MspInit>:
* This function configures the hardware resources used in this example
* @param htim_base: TIM_Base handle pointer
* @retval None
*/
void HAL_TIM_Base_MspInit(TIM_HandleTypeDef* htim_base)
{
 80055ec:	b507      	push	{r0, r1, r2, lr}
  if(htim_base->Instance==TIM6)
 80055ee:	4b0d      	ldr	r3, [pc, #52]	; (8005624 <HAL_TIM_Base_MspInit+0x38>)
 80055f0:	6802      	ldr	r2, [r0, #0]
 80055f2:	429a      	cmp	r2, r3
 80055f4:	d112      	bne.n	800561c <HAL_TIM_Base_MspInit+0x30>
  {
  /* USER CODE BEGIN TIM6_MspInit 0 */

  /* USER CODE END TIM6_MspInit 0 */
    /* Peripheral clock enable */
    __HAL_RCC_TIM6_CLK_ENABLE();
 80055f6:	f503 3300 	add.w	r3, r3, #131072	; 0x20000
 80055fa:	69da      	ldr	r2, [r3, #28]
    /* TIM6 interrupt Init */
    HAL_NVIC_SetPriority(TIM6_IRQn, 0, 0);
 80055fc:	2036      	movs	r0, #54	; 0x36
    __HAL_RCC_TIM6_CLK_ENABLE();
 80055fe:	f042 0210 	orr.w	r2, r2, #16
 8005602:	61da      	str	r2, [r3, #28]
    HAL_NVIC_SetPriority(TIM6_IRQn, 0, 0);
 8005604:	2200      	movs	r2, #0
    __HAL_RCC_TIM6_CLK_ENABLE();
 8005606:	69db      	ldr	r3, [r3, #28]
    HAL_NVIC_SetPriority(TIM6_IRQn, 0, 0);
 8005608:	4611      	mov	r1, r2
    __HAL_RCC_TIM6_CLK_ENABLE();
 800560a:	f003 0310 	and.w	r3, r3, #16
 800560e:	9301      	str	r3, [sp, #4]
 8005610:	9b01      	ldr	r3, [sp, #4]
    HAL_NVIC_SetPriority(TIM6_IRQn, 0, 0);
 8005612:	f7fb fc99 	bl	8000f48 <HAL_NVIC_SetPriority>
    HAL_NVIC_EnableIRQ(TIM6_IRQn);
 8005616:	2036      	movs	r0, #54	; 0x36
 8005618:	f7fb fcca 	bl	8000fb0 <HAL_NVIC_EnableIRQ>
  /* USER CODE BEGIN TIM6_MspInit 1 */

  /* USER CODE END TIM6_MspInit 1 */
  }

}
 800561c:	b003      	add	sp, #12
 800561e:	f85d fb04 	ldr.w	pc, [sp], #4
 8005622:	bf00      	nop
 8005624:	40001000 	.word	0x40001000

08005628 <HAL_UART_MspInit>:
* @param huart: UART handle pointer
* @retval None
*/
void HAL_UART_MspInit(UART_HandleTypeDef* huart)
{
  GPIO_InitTypeDef GPIO_InitStruct = {0};
 8005628:	2210      	movs	r2, #16
{
 800562a:	b510      	push	{r4, lr}
 800562c:	4604      	mov	r4, r0
 800562e:	b088      	sub	sp, #32
  GPIO_InitTypeDef GPIO_InitStruct = {0};
 8005630:	eb0d 0002 	add.w	r0, sp, r2
 8005634:	2100      	movs	r1, #0
 8005636:	f000 f93c 	bl	80058b2 <memset>
  if(huart->Instance==USART2)
 800563a:	6823      	ldr	r3, [r4, #0]
 800563c:	4a2f      	ldr	r2, [pc, #188]	; (80056fc <HAL_UART_MspInit+0xd4>)
 800563e:	4293      	cmp	r3, r2
 8005640:	d127      	bne.n	8005692 <HAL_UART_MspInit+0x6a>
  {
  /* USER CODE BEGIN USART2_MspInit 0 */

  /* USER CODE END USART2_MspInit 0 */
    /* Peripheral clock enable */
    __HAL_RCC_USART2_CLK_ENABLE();
 8005642:	4b2f      	ldr	r3, [pc, #188]	; (8005700 <HAL_UART_MspInit+0xd8>)
    PA3     ------> USART2_RX 
    */
    GPIO_InitStruct.Pin = GPIO_PIN_2;
    GPIO_InitStruct.Mode = GPIO_MODE_AF_PP;
    GPIO_InitStruct.Speed = GPIO_SPEED_FREQ_HIGH;
    HAL_GPIO_Init(GPIOA, &GPIO_InitStruct);
 8005644:	a904      	add	r1, sp, #16
    __HAL_RCC_USART2_CLK_ENABLE();
 8005646:	69da      	ldr	r2, [r3, #28]
    HAL_GPIO_Init(GPIOA, &GPIO_InitStruct);
 8005648:	482e      	ldr	r0, [pc, #184]	; (8005704 <HAL_UART_MspInit+0xdc>)
    __HAL_RCC_USART2_CLK_ENABLE();
 800564a:	f442 3200 	orr.w	r2, r2, #131072	; 0x20000
 800564e:	61da      	str	r2, [r3, #28]
 8005650:	69da      	ldr	r2, [r3, #28]
 8005652:	f402 3200 	and.w	r2, r2, #131072	; 0x20000
 8005656:	9200      	str	r2, [sp, #0]
 8005658:	9a00      	ldr	r2, [sp, #0]
    __HAL_RCC_GPIOA_CLK_ENABLE();
 800565a:	699a      	ldr	r2, [r3, #24]
 800565c:	f042 0204 	orr.w	r2, r2, #4
 8005660:	619a      	str	r2, [r3, #24]
 8005662:	699b      	ldr	r3, [r3, #24]
 8005664:	f003 0304 	and.w	r3, r3, #4
 8005668:	9301      	str	r3, [sp, #4]
 800566a:	9b01      	ldr	r3, [sp, #4]
    GPIO_InitStruct.Pin = GPIO_PIN_2;
 800566c:	2304      	movs	r3, #4
 800566e:	9304      	str	r3, [sp, #16]
    GPIO_InitStruct.Mode = GPIO_MODE_AF_PP;
 8005670:	2302      	movs	r3, #2
 8005672:	9305      	str	r3, [sp, #20]
    GPIO_InitStruct.Speed = GPIO_SPEED_FREQ_HIGH;
 8005674:	2303      	movs	r3, #3
 8005676:	9307      	str	r3, [sp, #28]
    HAL_GPIO_Init(GPIOA, &GPIO_InitStruct);
 8005678:	f7fb fe18 	bl	80012ac <HAL_GPIO_Init>

    GPIO_InitStruct.Pin = GPIO_PIN_3;
 800567c:	2308      	movs	r3, #8
 800567e:	9304      	str	r3, [sp, #16]
    GPIO_InitStruct.Mode = GPIO_MODE_INPUT;
 8005680:	2300      	movs	r3, #0
    GPIO_InitStruct.Pull = GPIO_NOPULL;
    HAL_GPIO_Init(GPIOA, &GPIO_InitStruct);
 8005682:	a904      	add	r1, sp, #16
 8005684:	481f      	ldr	r0, [pc, #124]	; (8005704 <HAL_UART_MspInit+0xdc>)
    GPIO_InitStruct.Mode = GPIO_MODE_INPUT;
 8005686:	9305      	str	r3, [sp, #20]
    GPIO_InitStruct.Pull = GPIO_NOPULL;
 8005688:	9306      	str	r3, [sp, #24]
    HAL_GPIO_Init(GPIOA, &GPIO_InitStruct);
 800568a:	f7fb fe0f 	bl	80012ac <HAL_GPIO_Init>
  /* USER CODE BEGIN USART3_MspInit 1 */

  /* USER CODE END USART3_MspInit 1 */
  }

}
 800568e:	b008      	add	sp, #32
 8005690:	bd10      	pop	{r4, pc}
  else if(huart->Instance==USART3)
 8005692:	4a1d      	ldr	r2, [pc, #116]	; (8005708 <HAL_UART_MspInit+0xe0>)
 8005694:	4293      	cmp	r3, r2
 8005696:	d1fa      	bne.n	800568e <HAL_UART_MspInit+0x66>
    __HAL_RCC_USART3_CLK_ENABLE();
 8005698:	4b19      	ldr	r3, [pc, #100]	; (8005700 <HAL_UART_MspInit+0xd8>)
    HAL_GPIO_Init(GPIOC, &GPIO_InitStruct);
 800569a:	a904      	add	r1, sp, #16
    __HAL_RCC_USART3_CLK_ENABLE();
 800569c:	69da      	ldr	r2, [r3, #28]
    HAL_GPIO_Init(GPIOC, &GPIO_InitStruct);
 800569e:	481b      	ldr	r0, [pc, #108]	; (800570c <HAL_UART_MspInit+0xe4>)
    __HAL_RCC_USART3_CLK_ENABLE();
 80056a0:	f442 2280 	orr.w	r2, r2, #262144	; 0x40000
 80056a4:	61da      	str	r2, [r3, #28]
 80056a6:	69da      	ldr	r2, [r3, #28]
 80056a8:	f402 2280 	and.w	r2, r2, #262144	; 0x40000
 80056ac:	9202      	str	r2, [sp, #8]
 80056ae:	9a02      	ldr	r2, [sp, #8]
    __HAL_RCC_GPIOC_CLK_ENABLE();
 80056b0:	699a      	ldr	r2, [r3, #24]
 80056b2:	f042 0210 	orr.w	r2, r2, #16
 80056b6:	619a      	str	r2, [r3, #24]
 80056b8:	699b      	ldr	r3, [r3, #24]
 80056ba:	f003 0310 	and.w	r3, r3, #16
 80056be:	9303      	str	r3, [sp, #12]
 80056c0:	9b03      	ldr	r3, [sp, #12]
    GPIO_InitStruct.Pin = GPIO_PIN_10;
 80056c2:	f44f 6380 	mov.w	r3, #1024	; 0x400
 80056c6:	9304      	str	r3, [sp, #16]
    GPIO_InitStruct.Mode = GPIO_MODE_AF_PP;
 80056c8:	2302      	movs	r3, #2
 80056ca:	9305      	str	r3, [sp, #20]
    GPIO_InitStruct.Speed = GPIO_SPEED_FREQ_HIGH;
 80056cc:	2303      	movs	r3, #3
 80056ce:	9307      	str	r3, [sp, #28]
    HAL_GPIO_Init(GPIOC, &GPIO_InitStruct);
 80056d0:	f7fb fdec 	bl	80012ac <HAL_GPIO_Init>
    GPIO_InitStruct.Pin = GPIO_PIN_11;
 80056d4:	f44f 6300 	mov.w	r3, #2048	; 0x800
 80056d8:	9304      	str	r3, [sp, #16]
    GPIO_InitStruct.Mode = GPIO_MODE_INPUT;
 80056da:	2300      	movs	r3, #0
    HAL_GPIO_Init(GPIOC, &GPIO_InitStruct);
 80056dc:	a904      	add	r1, sp, #16
 80056de:	480b      	ldr	r0, [pc, #44]	; (800570c <HAL_UART_MspInit+0xe4>)
    GPIO_InitStruct.Mode = GPIO_MODE_INPUT;
 80056e0:	9305      	str	r3, [sp, #20]
    GPIO_InitStruct.Pull = GPIO_NOPULL;
 80056e2:	9306      	str	r3, [sp, #24]
    HAL_GPIO_Init(GPIOC, &GPIO_InitStruct);
 80056e4:	f7fb fde2 	bl	80012ac <HAL_GPIO_Init>
    __HAL_AFIO_REMAP_USART3_PARTIAL();
 80056e8:	4a09      	ldr	r2, [pc, #36]	; (8005710 <HAL_UART_MspInit+0xe8>)
 80056ea:	6853      	ldr	r3, [r2, #4]
 80056ec:	f023 0330 	bic.w	r3, r3, #48	; 0x30
 80056f0:	f043 63e0 	orr.w	r3, r3, #117440512	; 0x7000000
 80056f4:	f043 0310 	orr.w	r3, r3, #16
 80056f8:	6053      	str	r3, [r2, #4]
}
 80056fa:	e7c8      	b.n	800568e <HAL_UART_MspInit+0x66>
 80056fc:	40004400 	.word	0x40004400
 8005700:	40021000 	.word	0x40021000
 8005704:	40010800 	.word	0x40010800
 8005708:	40004800 	.word	0x40004800
 800570c:	40011000 	.word	0x40011000
 8005710:	40010000 	.word	0x40010000

08005714 <NMI_Handler>:
 8005714:	4770      	bx	lr

08005716 <HardFault_Handler>:

/**
  * @brief This function handles Hard fault interrupt.
  */
void HardFault_Handler(void)
{
 8005716:	e7fe      	b.n	8005716 <HardFault_Handler>

08005718 <MemManage_Handler>:

/**
  * @brief This function handles Memory management fault.
  */
void MemManage_Handler(void)
{
 8005718:	e7fe      	b.n	8005718 <MemManage_Handler>

0800571a <BusFault_Handler>:

/**
  * @brief This function handles Prefetch fault, memory access fault.
  */
void BusFault_Handler(void)
{
 800571a:	e7fe      	b.n	800571a <BusFault_Handler>

0800571c <UsageFault_Handler>:

/**
  * @brief This function handles Undefined instruction or illegal state.
  */
void UsageFault_Handler(void)
{
 800571c:	e7fe      	b.n	800571c <UsageFault_Handler>

0800571e <SVC_Handler>:
 800571e:	4770      	bx	lr

08005720 <DebugMon_Handler>:
 8005720:	4770      	bx	lr

08005722 <PendSV_Handler>:

/**
  * @brief This function handles Pendable request for system service.
  */
void PendSV_Handler(void)
{
 8005722:	4770      	bx	lr

08005724 <SysTick_Handler>:
void SysTick_Handler(void)
{
  /* USER CODE BEGIN SysTick_IRQn 0 */

  /* USER CODE END SysTick_IRQn 0 */
  HAL_IncTick();
 8005724:	f7fb b9a8 	b.w	8000a78 <HAL_IncTick>

08005728 <DMA1_Channel1_IRQHandler>:
void DMA1_Channel1_IRQHandler(void)
{
  /* USER CODE BEGIN DMA1_Channel1_IRQn 0 */

  /* USER CODE END DMA1_Channel1_IRQn 0 */
  HAL_DMA_IRQHandler(&hdma_adc1);
 8005728:	4801      	ldr	r0, [pc, #4]	; (8005730 <DMA1_Channel1_IRQHandler+0x8>)
 800572a:	f7fb bce3 	b.w	80010f4 <HAL_DMA_IRQHandler>
 800572e:	bf00      	nop
 8005730:	200006ec 	.word	0x200006ec

08005734 <EXTI15_10_IRQHandler>:
void EXTI15_10_IRQHandler(void)
{
  /* USER CODE BEGIN EXTI15_10_IRQn 0 */

  /* USER CODE END EXTI15_10_IRQn 0 */
  HAL_GPIO_EXTI_IRQHandler(GPIO_PIN_10);
 8005734:	f44f 6080 	mov.w	r0, #1024	; 0x400
 8005738:	f7fb beb0 	b.w	800149c <HAL_GPIO_EXTI_IRQHandler>

0800573c <TIM6_IRQHandler>:
void TIM6_IRQHandler(void)
{
  /* USER CODE BEGIN TIM6_IRQn 0 */

  /* USER CODE END TIM6_IRQn 0 */
  HAL_TIM_IRQHandler(&htim6);
 800573c:	4801      	ldr	r0, [pc, #4]	; (8005744 <TIM6_IRQHandler+0x8>)
 800573e:	f7fd bbe8 	b.w	8002f12 <HAL_TIM_IRQHandler>
 8005742:	bf00      	nop
 8005744:	20000730 	.word	0x20000730

08005748 <_read>:
	_kill(status, -1);
	while (1) {}		/* Make sure we hang here */
}

__attribute__((weak)) int _read(int file, char *ptr, int len)
{
 8005748:	b570      	push	{r4, r5, r6, lr}
 800574a:	460e      	mov	r6, r1
 800574c:	4615      	mov	r5, r2
	int DataIdx;

	for (DataIdx = 0; DataIdx < len; DataIdx++)
 800574e:	460c      	mov	r4, r1
 8005750:	1ba3      	subs	r3, r4, r6
 8005752:	429d      	cmp	r5, r3
 8005754:	dc01      	bgt.n	800575a <_read+0x12>
	{
		*ptr++ = __io_getchar();
	}

return len;
}
 8005756:	4628      	mov	r0, r5
 8005758:	bd70      	pop	{r4, r5, r6, pc}
		*ptr++ = __io_getchar();
 800575a:	f3af 8000 	nop.w
 800575e:	f804 0b01 	strb.w	r0, [r4], #1
 8005762:	e7f5      	b.n	8005750 <_read+0x8>

08005764 <_sbrk>:
	}
	return len;
}

caddr_t _sbrk(int incr)
{
 8005764:	b508      	push	{r3, lr}
	extern char end asm("end");
	static char *heap_end;
	char *prev_heap_end;

	if (heap_end == 0)
 8005766:	4b0a      	ldr	r3, [pc, #40]	; (8005790 <_sbrk+0x2c>)
{
 8005768:	4602      	mov	r2, r0
	if (heap_end == 0)
 800576a:	6819      	ldr	r1, [r3, #0]
 800576c:	b909      	cbnz	r1, 8005772 <_sbrk+0xe>
		heap_end = &end;
 800576e:	4909      	ldr	r1, [pc, #36]	; (8005794 <_sbrk+0x30>)
 8005770:	6019      	str	r1, [r3, #0]

	prev_heap_end = heap_end;
	if (heap_end + incr > stack_ptr)
 8005772:	4669      	mov	r1, sp
	prev_heap_end = heap_end;
 8005774:	6818      	ldr	r0, [r3, #0]
	if (heap_end + incr > stack_ptr)
 8005776:	4402      	add	r2, r0
 8005778:	428a      	cmp	r2, r1
 800577a:	d906      	bls.n	800578a <_sbrk+0x26>
	{
//		write(1, "Heap and stack collision\n", 25);
//		abort();
		errno = ENOMEM;
 800577c:	f000 f864 	bl	8005848 <__errno>
 8005780:	230c      	movs	r3, #12
 8005782:	6003      	str	r3, [r0, #0]
		return (caddr_t) -1;
 8005784:	f04f 30ff 	mov.w	r0, #4294967295
 8005788:	bd08      	pop	{r3, pc}
	}

	heap_end += incr;
 800578a:	601a      	str	r2, [r3, #0]

	return (caddr_t) prev_heap_end;
}
 800578c:	bd08      	pop	{r3, pc}
 800578e:	bf00      	nop
 8005790:	20000558 	.word	0x20000558
 8005794:	200008d4 	.word	0x200008d4

08005798 <_close>:

int _close(int file)
{
	return -1;
}
 8005798:	f04f 30ff 	mov.w	r0, #4294967295
 800579c:	4770      	bx	lr

0800579e <_fstat>:


int _fstat(int file, struct stat *st)
{
	st->st_mode = S_IFCHR;
 800579e:	f44f 5300 	mov.w	r3, #8192	; 0x2000
	return 0;
}
 80057a2:	2000      	movs	r0, #0
	st->st_mode = S_IFCHR;
 80057a4:	604b      	str	r3, [r1, #4]
}
 80057a6:	4770      	bx	lr

080057a8 <_isatty>:

int _isatty(int file)
{
	return 1;
}
 80057a8:	2001      	movs	r0, #1
 80057aa:	4770      	bx	lr

080057ac <_lseek>:

int _lseek(int file, int ptr, int dir)
{
	return 0;
}
 80057ac:	2000      	movs	r0, #0
 80057ae:	4770      	bx	lr

080057b0 <SystemInit>:
  */
void SystemInit (void)
{
  /* Reset the RCC clock configuration to the default reset state(for debug purpose) */
  /* Set HSION bit */
  RCC->CR |= 0x00000001U;
 80057b0:	4b0f      	ldr	r3, [pc, #60]	; (80057f0 <SystemInit+0x40>)
 80057b2:	681a      	ldr	r2, [r3, #0]
 80057b4:	f042 0201 	orr.w	r2, r2, #1
 80057b8:	601a      	str	r2, [r3, #0]

  /* Reset SW, HPRE, PPRE1, PPRE2, ADCPRE and MCO bits */
#if !defined(STM32F105xC) && !defined(STM32F107xC)
  RCC->CFGR &= 0xF8FF0000U;
 80057ba:	6859      	ldr	r1, [r3, #4]
 80057bc:	4a0d      	ldr	r2, [pc, #52]	; (80057f4 <SystemInit+0x44>)
 80057be:	400a      	ands	r2, r1
 80057c0:	605a      	str	r2, [r3, #4]
#else
  RCC->CFGR &= 0xF0FF0000U;
#endif /* STM32F105xC */   
  
  /* Reset HSEON, CSSON and PLLON bits */
  RCC->CR &= 0xFEF6FFFFU;
 80057c2:	681a      	ldr	r2, [r3, #0]
 80057c4:	f022 7284 	bic.w	r2, r2, #17301504	; 0x1080000
 80057c8:	f422 3280 	bic.w	r2, r2, #65536	; 0x10000
 80057cc:	601a      	str	r2, [r3, #0]

  /* Reset HSEBYP bit */
  RCC->CR &= 0xFFFBFFFFU;
 80057ce:	681a      	ldr	r2, [r3, #0]
 80057d0:	f422 2280 	bic.w	r2, r2, #262144	; 0x40000
 80057d4:	601a      	str	r2, [r3, #0]

  /* Reset PLLSRC, PLLXTPRE, PLLMUL and USBPRE/OTGFSPRE bits */
  RCC->CFGR &= 0xFF80FFFFU;
 80057d6:	685a      	ldr	r2, [r3, #4]
 80057d8:	f422 02fe 	bic.w	r2, r2, #8323072	; 0x7f0000
 80057dc:	605a      	str	r2, [r3, #4]

  /* Reset CFGR2 register */
  RCC->CFGR2 = 0x00000000U;      
#else
  /* Disable all interrupts and clear pending bits  */
  RCC->CIR = 0x009F0000U;
 80057de:	f44f 021f 	mov.w	r2, #10420224	; 0x9f0000
 80057e2:	609a      	str	r2, [r3, #8]
#endif 

#ifdef VECT_TAB_SRAM
  SCB->VTOR = SRAM_BASE | VECT_TAB_OFFSET; /* Vector Table Relocation in Internal SRAM. */
#else
  SCB->VTOR = FLASH_BASE | VECT_TAB_OFFSET; /* Vector Table Relocation in Internal FLASH. */
 80057e4:	f04f 6200 	mov.w	r2, #134217728	; 0x8000000
 80057e8:	4b03      	ldr	r3, [pc, #12]	; (80057f8 <SystemInit+0x48>)
 80057ea:	609a      	str	r2, [r3, #8]
 80057ec:	4770      	bx	lr
 80057ee:	bf00      	nop
 80057f0:	40021000 	.word	0x40021000
 80057f4:	f8ff0000 	.word	0xf8ff0000
 80057f8:	e000ed00 	.word	0xe000ed00

080057fc <Reset_Handler>:
  .weak Reset_Handler
  .type Reset_Handler, %function
Reset_Handler:

/* Copy the data segment initializers from flash to SRAM */
  movs r1, #0
 80057fc:	2100      	movs	r1, #0
  b LoopCopyDataInit
 80057fe:	e003      	b.n	8005808 <LoopCopyDataInit>

08005800 <CopyDataInit>:

CopyDataInit:
  ldr r3, =_sidata
 8005800:	4b0b      	ldr	r3, [pc, #44]	; (8005830 <LoopFillZerobss+0x14>)
  ldr r3, [r3, r1]
 8005802:	585b      	ldr	r3, [r3, r1]
  str r3, [r0, r1]
 8005804:	5043      	str	r3, [r0, r1]
  adds r1, r1, #4
 8005806:	3104      	adds	r1, #4

08005808 <LoopCopyDataInit>:

LoopCopyDataInit:
  ldr r0, =_sdata
 8005808:	480a      	ldr	r0, [pc, #40]	; (8005834 <LoopFillZerobss+0x18>)
  ldr r3, =_edata
 800580a:	4b0b      	ldr	r3, [pc, #44]	; (8005838 <LoopFillZerobss+0x1c>)
  adds r2, r0, r1
 800580c:	1842      	adds	r2, r0, r1
  cmp r2, r3
 800580e:	429a      	cmp	r2, r3
  bcc CopyDataInit
 8005810:	d3f6      	bcc.n	8005800 <CopyDataInit>
  ldr r2, =_sbss
 8005812:	4a0a      	ldr	r2, [pc, #40]	; (800583c <LoopFillZerobss+0x20>)
  b LoopFillZerobss
 8005814:	e002      	b.n	800581c <LoopFillZerobss>

08005816 <FillZerobss>:
/* Zero fill the bss segment. */
FillZerobss:
  movs r3, #0
 8005816:	2300      	movs	r3, #0
  str r3, [r2], #4
 8005818:	f842 3b04 	str.w	r3, [r2], #4

0800581c <LoopFillZerobss>:

LoopFillZerobss:
  ldr r3, = _ebss
 800581c:	4b08      	ldr	r3, [pc, #32]	; (8005840 <LoopFillZerobss+0x24>)
  cmp r2, r3
 800581e:	429a      	cmp	r2, r3
  bcc FillZerobss
 8005820:	d3f9      	bcc.n	8005816 <FillZerobss>

/* Call the clock system intitialization function.*/
    bl  SystemInit
 8005822:	f7ff ffc5 	bl	80057b0 <SystemInit>
/* Call static constructors */
    bl __libc_init_array
 8005826:	f000 f815 	bl	8005854 <__libc_init_array>
/* Call the application's entry point.*/
  bl main
 800582a:	f7fd ff87 	bl	800373c <main>
  bx lr
 800582e:	4770      	bx	lr
  ldr r3, =_sidata
 8005830:	08007ce8 	.word	0x08007ce8
  ldr r0, =_sdata
 8005834:	20000000 	.word	0x20000000
  ldr r3, =_edata
 8005838:	20000088 	.word	0x20000088
  ldr r2, =_sbss
 800583c:	20000088 	.word	0x20000088
  ldr r3, = _ebss
 8005840:	200008d4 	.word	0x200008d4

08005844 <ADC1_2_IRQHandler>:
 * @retval : None
*/
    .section .text.Default_Handler,"ax",%progbits
Default_Handler:
Infinite_Loop:
  b Infinite_Loop
 8005844:	e7fe      	b.n	8005844 <ADC1_2_IRQHandler>
	...

08005848 <__errno>:
 8005848:	4b01      	ldr	r3, [pc, #4]	; (8005850 <__errno+0x8>)
 800584a:	6818      	ldr	r0, [r3, #0]
 800584c:	4770      	bx	lr
 800584e:	bf00      	nop
 8005850:	20000024 	.word	0x20000024

08005854 <__libc_init_array>:
 8005854:	b570      	push	{r4, r5, r6, lr}
 8005856:	2500      	movs	r5, #0
 8005858:	4e0c      	ldr	r6, [pc, #48]	; (800588c <__libc_init_array+0x38>)
 800585a:	4c0d      	ldr	r4, [pc, #52]	; (8005890 <__libc_init_array+0x3c>)
 800585c:	1ba4      	subs	r4, r4, r6
 800585e:	10a4      	asrs	r4, r4, #2
 8005860:	42a5      	cmp	r5, r4
 8005862:	d109      	bne.n	8005878 <__libc_init_array+0x24>
 8005864:	f001 f95c 	bl	8006b20 <_init>
 8005868:	2500      	movs	r5, #0
 800586a:	4e0a      	ldr	r6, [pc, #40]	; (8005894 <__libc_init_array+0x40>)
 800586c:	4c0a      	ldr	r4, [pc, #40]	; (8005898 <__libc_init_array+0x44>)
 800586e:	1ba4      	subs	r4, r4, r6
 8005870:	10a4      	asrs	r4, r4, #2
 8005872:	42a5      	cmp	r5, r4
 8005874:	d105      	bne.n	8005882 <__libc_init_array+0x2e>
 8005876:	bd70      	pop	{r4, r5, r6, pc}
 8005878:	f856 3025 	ldr.w	r3, [r6, r5, lsl #2]
 800587c:	4798      	blx	r3
 800587e:	3501      	adds	r5, #1
 8005880:	e7ee      	b.n	8005860 <__libc_init_array+0xc>
 8005882:	f856 3025 	ldr.w	r3, [r6, r5, lsl #2]
 8005886:	4798      	blx	r3
 8005888:	3501      	adds	r5, #1
 800588a:	e7f2      	b.n	8005872 <__libc_init_array+0x1e>
 800588c:	08007ce0 	.word	0x08007ce0
 8005890:	08007ce0 	.word	0x08007ce0
 8005894:	08007ce0 	.word	0x08007ce0
 8005898:	08007ce4 	.word	0x08007ce4

0800589c <memcpy>:
 800589c:	b510      	push	{r4, lr}
 800589e:	1e43      	subs	r3, r0, #1
 80058a0:	440a      	add	r2, r1
 80058a2:	4291      	cmp	r1, r2
 80058a4:	d100      	bne.n	80058a8 <memcpy+0xc>
 80058a6:	bd10      	pop	{r4, pc}
 80058a8:	f811 4b01 	ldrb.w	r4, [r1], #1
 80058ac:	f803 4f01 	strb.w	r4, [r3, #1]!
 80058b0:	e7f7      	b.n	80058a2 <memcpy+0x6>

080058b2 <memset>:
 80058b2:	4603      	mov	r3, r0
 80058b4:	4402      	add	r2, r0
 80058b6:	4293      	cmp	r3, r2
 80058b8:	d100      	bne.n	80058bc <memset+0xa>
 80058ba:	4770      	bx	lr
 80058bc:	f803 1b01 	strb.w	r1, [r3], #1
 80058c0:	e7f9      	b.n	80058b6 <memset+0x4>
	...

080058c4 <iprintf>:
 80058c4:	b40f      	push	{r0, r1, r2, r3}
 80058c6:	4b0a      	ldr	r3, [pc, #40]	; (80058f0 <iprintf+0x2c>)
 80058c8:	b513      	push	{r0, r1, r4, lr}
 80058ca:	681c      	ldr	r4, [r3, #0]
 80058cc:	b124      	cbz	r4, 80058d8 <iprintf+0x14>
 80058ce:	69a3      	ldr	r3, [r4, #24]
 80058d0:	b913      	cbnz	r3, 80058d8 <iprintf+0x14>
 80058d2:	4620      	mov	r0, r4
 80058d4:	f000 fa50 	bl	8005d78 <__sinit>
 80058d8:	ab05      	add	r3, sp, #20
 80058da:	9a04      	ldr	r2, [sp, #16]
 80058dc:	68a1      	ldr	r1, [r4, #8]
 80058de:	4620      	mov	r0, r4
 80058e0:	9301      	str	r3, [sp, #4]
 80058e2:	f000 fd59 	bl	8006398 <_vfiprintf_r>
 80058e6:	b002      	add	sp, #8
 80058e8:	e8bd 4010 	ldmia.w	sp!, {r4, lr}
 80058ec:	b004      	add	sp, #16
 80058ee:	4770      	bx	lr
 80058f0:	20000024 	.word	0x20000024

080058f4 <_puts_r>:
 80058f4:	b570      	push	{r4, r5, r6, lr}
 80058f6:	460e      	mov	r6, r1
 80058f8:	4605      	mov	r5, r0
 80058fa:	b118      	cbz	r0, 8005904 <_puts_r+0x10>
 80058fc:	6983      	ldr	r3, [r0, #24]
 80058fe:	b90b      	cbnz	r3, 8005904 <_puts_r+0x10>
 8005900:	f000 fa3a 	bl	8005d78 <__sinit>
 8005904:	69ab      	ldr	r3, [r5, #24]
 8005906:	68ac      	ldr	r4, [r5, #8]
 8005908:	b913      	cbnz	r3, 8005910 <_puts_r+0x1c>
 800590a:	4628      	mov	r0, r5
 800590c:	f000 fa34 	bl	8005d78 <__sinit>
 8005910:	4b23      	ldr	r3, [pc, #140]	; (80059a0 <_puts_r+0xac>)
 8005912:	429c      	cmp	r4, r3
 8005914:	d117      	bne.n	8005946 <_puts_r+0x52>
 8005916:	686c      	ldr	r4, [r5, #4]
 8005918:	89a3      	ldrh	r3, [r4, #12]
 800591a:	071b      	lsls	r3, r3, #28
 800591c:	d51d      	bpl.n	800595a <_puts_r+0x66>
 800591e:	6923      	ldr	r3, [r4, #16]
 8005920:	b1db      	cbz	r3, 800595a <_puts_r+0x66>
 8005922:	3e01      	subs	r6, #1
 8005924:	68a3      	ldr	r3, [r4, #8]
 8005926:	f816 1f01 	ldrb.w	r1, [r6, #1]!
 800592a:	3b01      	subs	r3, #1
 800592c:	60a3      	str	r3, [r4, #8]
 800592e:	b9e9      	cbnz	r1, 800596c <_puts_r+0x78>
 8005930:	2b00      	cmp	r3, #0
 8005932:	da2e      	bge.n	8005992 <_puts_r+0x9e>
 8005934:	4622      	mov	r2, r4
 8005936:	210a      	movs	r1, #10
 8005938:	4628      	mov	r0, r5
 800593a:	f000 f86b 	bl	8005a14 <__swbuf_r>
 800593e:	3001      	adds	r0, #1
 8005940:	d011      	beq.n	8005966 <_puts_r+0x72>
 8005942:	200a      	movs	r0, #10
 8005944:	bd70      	pop	{r4, r5, r6, pc}
 8005946:	4b17      	ldr	r3, [pc, #92]	; (80059a4 <_puts_r+0xb0>)
 8005948:	429c      	cmp	r4, r3
 800594a:	d101      	bne.n	8005950 <_puts_r+0x5c>
 800594c:	68ac      	ldr	r4, [r5, #8]
 800594e:	e7e3      	b.n	8005918 <_puts_r+0x24>
 8005950:	4b15      	ldr	r3, [pc, #84]	; (80059a8 <_puts_r+0xb4>)
 8005952:	429c      	cmp	r4, r3
 8005954:	bf08      	it	eq
 8005956:	68ec      	ldreq	r4, [r5, #12]
 8005958:	e7de      	b.n	8005918 <_puts_r+0x24>
 800595a:	4621      	mov	r1, r4
 800595c:	4628      	mov	r0, r5
 800595e:	f000 f8ab 	bl	8005ab8 <__swsetup_r>
 8005962:	2800      	cmp	r0, #0
 8005964:	d0dd      	beq.n	8005922 <_puts_r+0x2e>
 8005966:	f04f 30ff 	mov.w	r0, #4294967295
 800596a:	bd70      	pop	{r4, r5, r6, pc}
 800596c:	2b00      	cmp	r3, #0
 800596e:	da04      	bge.n	800597a <_puts_r+0x86>
 8005970:	69a2      	ldr	r2, [r4, #24]
 8005972:	4293      	cmp	r3, r2
 8005974:	db06      	blt.n	8005984 <_puts_r+0x90>
 8005976:	290a      	cmp	r1, #10
 8005978:	d004      	beq.n	8005984 <_puts_r+0x90>
 800597a:	6823      	ldr	r3, [r4, #0]
 800597c:	1c5a      	adds	r2, r3, #1
 800597e:	6022      	str	r2, [r4, #0]
 8005980:	7019      	strb	r1, [r3, #0]
 8005982:	e7cf      	b.n	8005924 <_puts_r+0x30>
 8005984:	4622      	mov	r2, r4
 8005986:	4628      	mov	r0, r5
 8005988:	f000 f844 	bl	8005a14 <__swbuf_r>
 800598c:	3001      	adds	r0, #1
 800598e:	d1c9      	bne.n	8005924 <_puts_r+0x30>
 8005990:	e7e9      	b.n	8005966 <_puts_r+0x72>
 8005992:	200a      	movs	r0, #10
 8005994:	6823      	ldr	r3, [r4, #0]
 8005996:	1c5a      	adds	r2, r3, #1
 8005998:	6022      	str	r2, [r4, #0]
 800599a:	7018      	strb	r0, [r3, #0]
 800599c:	bd70      	pop	{r4, r5, r6, pc}
 800599e:	bf00      	nop
 80059a0:	08007c6c 	.word	0x08007c6c
 80059a4:	08007c8c 	.word	0x08007c8c
 80059a8:	08007c4c 	.word	0x08007c4c

080059ac <puts>:
 80059ac:	4b02      	ldr	r3, [pc, #8]	; (80059b8 <puts+0xc>)
 80059ae:	4601      	mov	r1, r0
 80059b0:	6818      	ldr	r0, [r3, #0]
 80059b2:	f7ff bf9f 	b.w	80058f4 <_puts_r>
 80059b6:	bf00      	nop
 80059b8:	20000024 	.word	0x20000024

080059bc <siprintf>:
 80059bc:	b40e      	push	{r1, r2, r3}
 80059be:	f44f 7102 	mov.w	r1, #520	; 0x208
 80059c2:	b500      	push	{lr}
 80059c4:	b09c      	sub	sp, #112	; 0x70
 80059c6:	f8ad 1014 	strh.w	r1, [sp, #20]
 80059ca:	f06f 4100 	mvn.w	r1, #2147483648	; 0x80000000
 80059ce:	9104      	str	r1, [sp, #16]
 80059d0:	9107      	str	r1, [sp, #28]
 80059d2:	f64f 71ff 	movw	r1, #65535	; 0xffff
 80059d6:	ab1d      	add	r3, sp, #116	; 0x74
 80059d8:	9002      	str	r0, [sp, #8]
 80059da:	9006      	str	r0, [sp, #24]
 80059dc:	4808      	ldr	r0, [pc, #32]	; (8005a00 <siprintf+0x44>)
 80059de:	f853 2b04 	ldr.w	r2, [r3], #4
 80059e2:	f8ad 1016 	strh.w	r1, [sp, #22]
 80059e6:	6800      	ldr	r0, [r0, #0]
 80059e8:	a902      	add	r1, sp, #8
 80059ea:	9301      	str	r3, [sp, #4]
 80059ec:	f000 fbb8 	bl	8006160 <_svfiprintf_r>
 80059f0:	2200      	movs	r2, #0
 80059f2:	9b02      	ldr	r3, [sp, #8]
 80059f4:	701a      	strb	r2, [r3, #0]
 80059f6:	b01c      	add	sp, #112	; 0x70
 80059f8:	f85d eb04 	ldr.w	lr, [sp], #4
 80059fc:	b003      	add	sp, #12
 80059fe:	4770      	bx	lr
 8005a00:	20000024 	.word	0x20000024

08005a04 <strcpy>:
 8005a04:	4603      	mov	r3, r0
 8005a06:	f811 2b01 	ldrb.w	r2, [r1], #1
 8005a0a:	f803 2b01 	strb.w	r2, [r3], #1
 8005a0e:	2a00      	cmp	r2, #0
 8005a10:	d1f9      	bne.n	8005a06 <strcpy+0x2>
 8005a12:	4770      	bx	lr

08005a14 <__swbuf_r>:
 8005a14:	b5f8      	push	{r3, r4, r5, r6, r7, lr}
 8005a16:	460e      	mov	r6, r1
 8005a18:	4614      	mov	r4, r2
 8005a1a:	4605      	mov	r5, r0
 8005a1c:	b118      	cbz	r0, 8005a26 <__swbuf_r+0x12>
 8005a1e:	6983      	ldr	r3, [r0, #24]
 8005a20:	b90b      	cbnz	r3, 8005a26 <__swbuf_r+0x12>
 8005a22:	f000 f9a9 	bl	8005d78 <__sinit>
 8005a26:	4b21      	ldr	r3, [pc, #132]	; (8005aac <__swbuf_r+0x98>)
 8005a28:	429c      	cmp	r4, r3
 8005a2a:	d12a      	bne.n	8005a82 <__swbuf_r+0x6e>
 8005a2c:	686c      	ldr	r4, [r5, #4]
 8005a2e:	69a3      	ldr	r3, [r4, #24]
 8005a30:	60a3      	str	r3, [r4, #8]
 8005a32:	89a3      	ldrh	r3, [r4, #12]
 8005a34:	071a      	lsls	r2, r3, #28
 8005a36:	d52e      	bpl.n	8005a96 <__swbuf_r+0x82>
 8005a38:	6923      	ldr	r3, [r4, #16]
 8005a3a:	b363      	cbz	r3, 8005a96 <__swbuf_r+0x82>
 8005a3c:	6923      	ldr	r3, [r4, #16]
 8005a3e:	6820      	ldr	r0, [r4, #0]
 8005a40:	b2f6      	uxtb	r6, r6
 8005a42:	1ac0      	subs	r0, r0, r3
 8005a44:	6963      	ldr	r3, [r4, #20]
 8005a46:	4637      	mov	r7, r6
 8005a48:	4298      	cmp	r0, r3
 8005a4a:	db04      	blt.n	8005a56 <__swbuf_r+0x42>
 8005a4c:	4621      	mov	r1, r4
 8005a4e:	4628      	mov	r0, r5
 8005a50:	f000 f928 	bl	8005ca4 <_fflush_r>
 8005a54:	bb28      	cbnz	r0, 8005aa2 <__swbuf_r+0x8e>
 8005a56:	68a3      	ldr	r3, [r4, #8]
 8005a58:	3001      	adds	r0, #1
 8005a5a:	3b01      	subs	r3, #1
 8005a5c:	60a3      	str	r3, [r4, #8]
 8005a5e:	6823      	ldr	r3, [r4, #0]
 8005a60:	1c5a      	adds	r2, r3, #1
 8005a62:	6022      	str	r2, [r4, #0]
 8005a64:	701e      	strb	r6, [r3, #0]
 8005a66:	6963      	ldr	r3, [r4, #20]
 8005a68:	4298      	cmp	r0, r3
 8005a6a:	d004      	beq.n	8005a76 <__swbuf_r+0x62>
 8005a6c:	89a3      	ldrh	r3, [r4, #12]
 8005a6e:	07db      	lsls	r3, r3, #31
 8005a70:	d519      	bpl.n	8005aa6 <__swbuf_r+0x92>
 8005a72:	2e0a      	cmp	r6, #10
 8005a74:	d117      	bne.n	8005aa6 <__swbuf_r+0x92>
 8005a76:	4621      	mov	r1, r4
 8005a78:	4628      	mov	r0, r5
 8005a7a:	f000 f913 	bl	8005ca4 <_fflush_r>
 8005a7e:	b190      	cbz	r0, 8005aa6 <__swbuf_r+0x92>
 8005a80:	e00f      	b.n	8005aa2 <__swbuf_r+0x8e>
 8005a82:	4b0b      	ldr	r3, [pc, #44]	; (8005ab0 <__swbuf_r+0x9c>)
 8005a84:	429c      	cmp	r4, r3
 8005a86:	d101      	bne.n	8005a8c <__swbuf_r+0x78>
 8005a88:	68ac      	ldr	r4, [r5, #8]
 8005a8a:	e7d0      	b.n	8005a2e <__swbuf_r+0x1a>
 8005a8c:	4b09      	ldr	r3, [pc, #36]	; (8005ab4 <__swbuf_r+0xa0>)
 8005a8e:	429c      	cmp	r4, r3
 8005a90:	bf08      	it	eq
 8005a92:	68ec      	ldreq	r4, [r5, #12]
 8005a94:	e7cb      	b.n	8005a2e <__swbuf_r+0x1a>
 8005a96:	4621      	mov	r1, r4
 8005a98:	4628      	mov	r0, r5
 8005a9a:	f000 f80d 	bl	8005ab8 <__swsetup_r>
 8005a9e:	2800      	cmp	r0, #0
 8005aa0:	d0cc      	beq.n	8005a3c <__swbuf_r+0x28>
 8005aa2:	f04f 37ff 	mov.w	r7, #4294967295
 8005aa6:	4638      	mov	r0, r7
 8005aa8:	bdf8      	pop	{r3, r4, r5, r6, r7, pc}
 8005aaa:	bf00      	nop
 8005aac:	08007c6c 	.word	0x08007c6c
 8005ab0:	08007c8c 	.word	0x08007c8c
 8005ab4:	08007c4c 	.word	0x08007c4c

08005ab8 <__swsetup_r>:
 8005ab8:	4b32      	ldr	r3, [pc, #200]	; (8005b84 <__swsetup_r+0xcc>)
 8005aba:	b570      	push	{r4, r5, r6, lr}
 8005abc:	681d      	ldr	r5, [r3, #0]
 8005abe:	4606      	mov	r6, r0
 8005ac0:	460c      	mov	r4, r1
 8005ac2:	b125      	cbz	r5, 8005ace <__swsetup_r+0x16>
 8005ac4:	69ab      	ldr	r3, [r5, #24]
 8005ac6:	b913      	cbnz	r3, 8005ace <__swsetup_r+0x16>
 8005ac8:	4628      	mov	r0, r5
 8005aca:	f000 f955 	bl	8005d78 <__sinit>
 8005ace:	4b2e      	ldr	r3, [pc, #184]	; (8005b88 <__swsetup_r+0xd0>)
 8005ad0:	429c      	cmp	r4, r3
 8005ad2:	d10f      	bne.n	8005af4 <__swsetup_r+0x3c>
 8005ad4:	686c      	ldr	r4, [r5, #4]
 8005ad6:	f9b4 300c 	ldrsh.w	r3, [r4, #12]
 8005ada:	b29a      	uxth	r2, r3
 8005adc:	0715      	lsls	r5, r2, #28
 8005ade:	d42c      	bmi.n	8005b3a <__swsetup_r+0x82>
 8005ae0:	06d0      	lsls	r0, r2, #27
 8005ae2:	d411      	bmi.n	8005b08 <__swsetup_r+0x50>
 8005ae4:	2209      	movs	r2, #9
 8005ae6:	6032      	str	r2, [r6, #0]
 8005ae8:	f043 0340 	orr.w	r3, r3, #64	; 0x40
 8005aec:	81a3      	strh	r3, [r4, #12]
 8005aee:	f04f 30ff 	mov.w	r0, #4294967295
 8005af2:	bd70      	pop	{r4, r5, r6, pc}
 8005af4:	4b25      	ldr	r3, [pc, #148]	; (8005b8c <__swsetup_r+0xd4>)
 8005af6:	429c      	cmp	r4, r3
 8005af8:	d101      	bne.n	8005afe <__swsetup_r+0x46>
 8005afa:	68ac      	ldr	r4, [r5, #8]
 8005afc:	e7eb      	b.n	8005ad6 <__swsetup_r+0x1e>
 8005afe:	4b24      	ldr	r3, [pc, #144]	; (8005b90 <__swsetup_r+0xd8>)
 8005b00:	429c      	cmp	r4, r3
 8005b02:	bf08      	it	eq
 8005b04:	68ec      	ldreq	r4, [r5, #12]
 8005b06:	e7e6      	b.n	8005ad6 <__swsetup_r+0x1e>
 8005b08:	0751      	lsls	r1, r2, #29
 8005b0a:	d512      	bpl.n	8005b32 <__swsetup_r+0x7a>
 8005b0c:	6b61      	ldr	r1, [r4, #52]	; 0x34
 8005b0e:	b141      	cbz	r1, 8005b22 <__swsetup_r+0x6a>
 8005b10:	f104 0344 	add.w	r3, r4, #68	; 0x44
 8005b14:	4299      	cmp	r1, r3
 8005b16:	d002      	beq.n	8005b1e <__swsetup_r+0x66>
 8005b18:	4630      	mov	r0, r6
 8005b1a:	f000 fa1b 	bl	8005f54 <_free_r>
 8005b1e:	2300      	movs	r3, #0
 8005b20:	6363      	str	r3, [r4, #52]	; 0x34
 8005b22:	89a3      	ldrh	r3, [r4, #12]
 8005b24:	f023 0324 	bic.w	r3, r3, #36	; 0x24
 8005b28:	81a3      	strh	r3, [r4, #12]
 8005b2a:	2300      	movs	r3, #0
 8005b2c:	6063      	str	r3, [r4, #4]
 8005b2e:	6923      	ldr	r3, [r4, #16]
 8005b30:	6023      	str	r3, [r4, #0]
 8005b32:	89a3      	ldrh	r3, [r4, #12]
 8005b34:	f043 0308 	orr.w	r3, r3, #8
 8005b38:	81a3      	strh	r3, [r4, #12]
 8005b3a:	6923      	ldr	r3, [r4, #16]
 8005b3c:	b94b      	cbnz	r3, 8005b52 <__swsetup_r+0x9a>
 8005b3e:	89a3      	ldrh	r3, [r4, #12]
 8005b40:	f403 7320 	and.w	r3, r3, #640	; 0x280
 8005b44:	f5b3 7f00 	cmp.w	r3, #512	; 0x200
 8005b48:	d003      	beq.n	8005b52 <__swsetup_r+0x9a>
 8005b4a:	4621      	mov	r1, r4
 8005b4c:	4630      	mov	r0, r6
 8005b4e:	f000 f9c1 	bl	8005ed4 <__smakebuf_r>
 8005b52:	89a2      	ldrh	r2, [r4, #12]
 8005b54:	f012 0301 	ands.w	r3, r2, #1
 8005b58:	d00c      	beq.n	8005b74 <__swsetup_r+0xbc>
 8005b5a:	2300      	movs	r3, #0
 8005b5c:	60a3      	str	r3, [r4, #8]
 8005b5e:	6963      	ldr	r3, [r4, #20]
 8005b60:	425b      	negs	r3, r3
 8005b62:	61a3      	str	r3, [r4, #24]
 8005b64:	6923      	ldr	r3, [r4, #16]
 8005b66:	b953      	cbnz	r3, 8005b7e <__swsetup_r+0xc6>
 8005b68:	f9b4 300c 	ldrsh.w	r3, [r4, #12]
 8005b6c:	f013 0080 	ands.w	r0, r3, #128	; 0x80
 8005b70:	d1ba      	bne.n	8005ae8 <__swsetup_r+0x30>
 8005b72:	bd70      	pop	{r4, r5, r6, pc}
 8005b74:	0792      	lsls	r2, r2, #30
 8005b76:	bf58      	it	pl
 8005b78:	6963      	ldrpl	r3, [r4, #20]
 8005b7a:	60a3      	str	r3, [r4, #8]
 8005b7c:	e7f2      	b.n	8005b64 <__swsetup_r+0xac>
 8005b7e:	2000      	movs	r0, #0
 8005b80:	e7f7      	b.n	8005b72 <__swsetup_r+0xba>
 8005b82:	bf00      	nop
 8005b84:	20000024 	.word	0x20000024
 8005b88:	08007c6c 	.word	0x08007c6c
 8005b8c:	08007c8c 	.word	0x08007c8c
 8005b90:	08007c4c 	.word	0x08007c4c

08005b94 <__sflush_r>:
 8005b94:	898a      	ldrh	r2, [r1, #12]
 8005b96:	e92d 41f0 	stmdb	sp!, {r4, r5, r6, r7, r8, lr}
 8005b9a:	4605      	mov	r5, r0
 8005b9c:	0710      	lsls	r0, r2, #28
 8005b9e:	460c      	mov	r4, r1
 8005ba0:	d45a      	bmi.n	8005c58 <__sflush_r+0xc4>
 8005ba2:	684b      	ldr	r3, [r1, #4]
 8005ba4:	2b00      	cmp	r3, #0
 8005ba6:	dc05      	bgt.n	8005bb4 <__sflush_r+0x20>
 8005ba8:	6c0b      	ldr	r3, [r1, #64]	; 0x40
 8005baa:	2b00      	cmp	r3, #0
 8005bac:	dc02      	bgt.n	8005bb4 <__sflush_r+0x20>
 8005bae:	2000      	movs	r0, #0
 8005bb0:	e8bd 81f0 	ldmia.w	sp!, {r4, r5, r6, r7, r8, pc}
 8005bb4:	6ae6      	ldr	r6, [r4, #44]	; 0x2c
 8005bb6:	2e00      	cmp	r6, #0
 8005bb8:	d0f9      	beq.n	8005bae <__sflush_r+0x1a>
 8005bba:	2300      	movs	r3, #0
 8005bbc:	f412 5280 	ands.w	r2, r2, #4096	; 0x1000
 8005bc0:	682f      	ldr	r7, [r5, #0]
 8005bc2:	602b      	str	r3, [r5, #0]
 8005bc4:	d033      	beq.n	8005c2e <__sflush_r+0x9a>
 8005bc6:	6d60      	ldr	r0, [r4, #84]	; 0x54
 8005bc8:	89a3      	ldrh	r3, [r4, #12]
 8005bca:	075a      	lsls	r2, r3, #29
 8005bcc:	d505      	bpl.n	8005bda <__sflush_r+0x46>
 8005bce:	6863      	ldr	r3, [r4, #4]
 8005bd0:	1ac0      	subs	r0, r0, r3
 8005bd2:	6b63      	ldr	r3, [r4, #52]	; 0x34
 8005bd4:	b10b      	cbz	r3, 8005bda <__sflush_r+0x46>
 8005bd6:	6c23      	ldr	r3, [r4, #64]	; 0x40
 8005bd8:	1ac0      	subs	r0, r0, r3
 8005bda:	2300      	movs	r3, #0
 8005bdc:	4602      	mov	r2, r0
 8005bde:	6ae6      	ldr	r6, [r4, #44]	; 0x2c
 8005be0:	6a21      	ldr	r1, [r4, #32]
 8005be2:	4628      	mov	r0, r5
 8005be4:	47b0      	blx	r6
 8005be6:	1c43      	adds	r3, r0, #1
 8005be8:	89a3      	ldrh	r3, [r4, #12]
 8005bea:	d106      	bne.n	8005bfa <__sflush_r+0x66>
 8005bec:	6829      	ldr	r1, [r5, #0]
 8005bee:	291d      	cmp	r1, #29
 8005bf0:	d84b      	bhi.n	8005c8a <__sflush_r+0xf6>
 8005bf2:	4a2b      	ldr	r2, [pc, #172]	; (8005ca0 <__sflush_r+0x10c>)
 8005bf4:	40ca      	lsrs	r2, r1
 8005bf6:	07d6      	lsls	r6, r2, #31
 8005bf8:	d547      	bpl.n	8005c8a <__sflush_r+0xf6>
 8005bfa:	2200      	movs	r2, #0
 8005bfc:	6062      	str	r2, [r4, #4]
 8005bfe:	6922      	ldr	r2, [r4, #16]
 8005c00:	04d9      	lsls	r1, r3, #19
 8005c02:	6022      	str	r2, [r4, #0]
 8005c04:	d504      	bpl.n	8005c10 <__sflush_r+0x7c>
 8005c06:	1c42      	adds	r2, r0, #1
 8005c08:	d101      	bne.n	8005c0e <__sflush_r+0x7a>
 8005c0a:	682b      	ldr	r3, [r5, #0]
 8005c0c:	b903      	cbnz	r3, 8005c10 <__sflush_r+0x7c>
 8005c0e:	6560      	str	r0, [r4, #84]	; 0x54
 8005c10:	6b61      	ldr	r1, [r4, #52]	; 0x34
 8005c12:	602f      	str	r7, [r5, #0]
 8005c14:	2900      	cmp	r1, #0
 8005c16:	d0ca      	beq.n	8005bae <__sflush_r+0x1a>
 8005c18:	f104 0344 	add.w	r3, r4, #68	; 0x44
 8005c1c:	4299      	cmp	r1, r3
 8005c1e:	d002      	beq.n	8005c26 <__sflush_r+0x92>
 8005c20:	4628      	mov	r0, r5
 8005c22:	f000 f997 	bl	8005f54 <_free_r>
 8005c26:	2000      	movs	r0, #0
 8005c28:	6360      	str	r0, [r4, #52]	; 0x34
 8005c2a:	e8bd 81f0 	ldmia.w	sp!, {r4, r5, r6, r7, r8, pc}
 8005c2e:	6a21      	ldr	r1, [r4, #32]
 8005c30:	2301      	movs	r3, #1
 8005c32:	4628      	mov	r0, r5
 8005c34:	47b0      	blx	r6
 8005c36:	1c41      	adds	r1, r0, #1
 8005c38:	d1c6      	bne.n	8005bc8 <__sflush_r+0x34>
 8005c3a:	682b      	ldr	r3, [r5, #0]
 8005c3c:	2b00      	cmp	r3, #0
 8005c3e:	d0c3      	beq.n	8005bc8 <__sflush_r+0x34>
 8005c40:	2b1d      	cmp	r3, #29
 8005c42:	d001      	beq.n	8005c48 <__sflush_r+0xb4>
 8005c44:	2b16      	cmp	r3, #22
 8005c46:	d101      	bne.n	8005c4c <__sflush_r+0xb8>
 8005c48:	602f      	str	r7, [r5, #0]
 8005c4a:	e7b0      	b.n	8005bae <__sflush_r+0x1a>
 8005c4c:	89a3      	ldrh	r3, [r4, #12]
 8005c4e:	f043 0340 	orr.w	r3, r3, #64	; 0x40
 8005c52:	81a3      	strh	r3, [r4, #12]
 8005c54:	e8bd 81f0 	ldmia.w	sp!, {r4, r5, r6, r7, r8, pc}
 8005c58:	690f      	ldr	r7, [r1, #16]
 8005c5a:	2f00      	cmp	r7, #0
 8005c5c:	d0a7      	beq.n	8005bae <__sflush_r+0x1a>
 8005c5e:	0793      	lsls	r3, r2, #30
 8005c60:	bf18      	it	ne
 8005c62:	2300      	movne	r3, #0
 8005c64:	680e      	ldr	r6, [r1, #0]
 8005c66:	bf08      	it	eq
 8005c68:	694b      	ldreq	r3, [r1, #20]
 8005c6a:	eba6 0807 	sub.w	r8, r6, r7
 8005c6e:	600f      	str	r7, [r1, #0]
 8005c70:	608b      	str	r3, [r1, #8]
 8005c72:	f1b8 0f00 	cmp.w	r8, #0
 8005c76:	dd9a      	ble.n	8005bae <__sflush_r+0x1a>
 8005c78:	4643      	mov	r3, r8
 8005c7a:	463a      	mov	r2, r7
 8005c7c:	6a21      	ldr	r1, [r4, #32]
 8005c7e:	4628      	mov	r0, r5
 8005c80:	6aa6      	ldr	r6, [r4, #40]	; 0x28
 8005c82:	47b0      	blx	r6
 8005c84:	2800      	cmp	r0, #0
 8005c86:	dc07      	bgt.n	8005c98 <__sflush_r+0x104>
 8005c88:	89a3      	ldrh	r3, [r4, #12]
 8005c8a:	f043 0340 	orr.w	r3, r3, #64	; 0x40
 8005c8e:	81a3      	strh	r3, [r4, #12]
 8005c90:	f04f 30ff 	mov.w	r0, #4294967295
 8005c94:	e8bd 81f0 	ldmia.w	sp!, {r4, r5, r6, r7, r8, pc}
 8005c98:	4407      	add	r7, r0
 8005c9a:	eba8 0800 	sub.w	r8, r8, r0
 8005c9e:	e7e8      	b.n	8005c72 <__sflush_r+0xde>
 8005ca0:	20400001 	.word	0x20400001

08005ca4 <_fflush_r>:
 8005ca4:	b538      	push	{r3, r4, r5, lr}
 8005ca6:	690b      	ldr	r3, [r1, #16]
 8005ca8:	4605      	mov	r5, r0
 8005caa:	460c      	mov	r4, r1
 8005cac:	b1db      	cbz	r3, 8005ce6 <_fflush_r+0x42>
 8005cae:	b118      	cbz	r0, 8005cb8 <_fflush_r+0x14>
 8005cb0:	6983      	ldr	r3, [r0, #24]
 8005cb2:	b90b      	cbnz	r3, 8005cb8 <_fflush_r+0x14>
 8005cb4:	f000 f860 	bl	8005d78 <__sinit>
 8005cb8:	4b0c      	ldr	r3, [pc, #48]	; (8005cec <_fflush_r+0x48>)
 8005cba:	429c      	cmp	r4, r3
 8005cbc:	d109      	bne.n	8005cd2 <_fflush_r+0x2e>
 8005cbe:	686c      	ldr	r4, [r5, #4]
 8005cc0:	f9b4 300c 	ldrsh.w	r3, [r4, #12]
 8005cc4:	b17b      	cbz	r3, 8005ce6 <_fflush_r+0x42>
 8005cc6:	4621      	mov	r1, r4
 8005cc8:	4628      	mov	r0, r5
 8005cca:	e8bd 4038 	ldmia.w	sp!, {r3, r4, r5, lr}
 8005cce:	f7ff bf61 	b.w	8005b94 <__sflush_r>
 8005cd2:	4b07      	ldr	r3, [pc, #28]	; (8005cf0 <_fflush_r+0x4c>)
 8005cd4:	429c      	cmp	r4, r3
 8005cd6:	d101      	bne.n	8005cdc <_fflush_r+0x38>
 8005cd8:	68ac      	ldr	r4, [r5, #8]
 8005cda:	e7f1      	b.n	8005cc0 <_fflush_r+0x1c>
 8005cdc:	4b05      	ldr	r3, [pc, #20]	; (8005cf4 <_fflush_r+0x50>)
 8005cde:	429c      	cmp	r4, r3
 8005ce0:	bf08      	it	eq
 8005ce2:	68ec      	ldreq	r4, [r5, #12]
 8005ce4:	e7ec      	b.n	8005cc0 <_fflush_r+0x1c>
 8005ce6:	2000      	movs	r0, #0
 8005ce8:	bd38      	pop	{r3, r4, r5, pc}
 8005cea:	bf00      	nop
 8005cec:	08007c6c 	.word	0x08007c6c
 8005cf0:	08007c8c 	.word	0x08007c8c
 8005cf4:	08007c4c 	.word	0x08007c4c

08005cf8 <_cleanup_r>:
 8005cf8:	4901      	ldr	r1, [pc, #4]	; (8005d00 <_cleanup_r+0x8>)
 8005cfa:	f000 b8a9 	b.w	8005e50 <_fwalk_reent>
 8005cfe:	bf00      	nop
 8005d00:	08005ca5 	.word	0x08005ca5

08005d04 <std.isra.0>:
 8005d04:	2300      	movs	r3, #0
 8005d06:	b510      	push	{r4, lr}
 8005d08:	4604      	mov	r4, r0
 8005d0a:	6003      	str	r3, [r0, #0]
 8005d0c:	6043      	str	r3, [r0, #4]
 8005d0e:	6083      	str	r3, [r0, #8]
 8005d10:	8181      	strh	r1, [r0, #12]
 8005d12:	6643      	str	r3, [r0, #100]	; 0x64
 8005d14:	81c2      	strh	r2, [r0, #14]
 8005d16:	6103      	str	r3, [r0, #16]
 8005d18:	6143      	str	r3, [r0, #20]
 8005d1a:	6183      	str	r3, [r0, #24]
 8005d1c:	4619      	mov	r1, r3
 8005d1e:	2208      	movs	r2, #8
 8005d20:	305c      	adds	r0, #92	; 0x5c
 8005d22:	f7ff fdc6 	bl	80058b2 <memset>
 8005d26:	4b05      	ldr	r3, [pc, #20]	; (8005d3c <std.isra.0+0x38>)
 8005d28:	6224      	str	r4, [r4, #32]
 8005d2a:	6263      	str	r3, [r4, #36]	; 0x24
 8005d2c:	4b04      	ldr	r3, [pc, #16]	; (8005d40 <std.isra.0+0x3c>)
 8005d2e:	62a3      	str	r3, [r4, #40]	; 0x28
 8005d30:	4b04      	ldr	r3, [pc, #16]	; (8005d44 <std.isra.0+0x40>)
 8005d32:	62e3      	str	r3, [r4, #44]	; 0x2c
 8005d34:	4b04      	ldr	r3, [pc, #16]	; (8005d48 <std.isra.0+0x44>)
 8005d36:	6323      	str	r3, [r4, #48]	; 0x30
 8005d38:	bd10      	pop	{r4, pc}
 8005d3a:	bf00      	nop
 8005d3c:	08006915 	.word	0x08006915
 8005d40:	08006937 	.word	0x08006937
 8005d44:	0800696f 	.word	0x0800696f
 8005d48:	08006993 	.word	0x08006993

08005d4c <__sfmoreglue>:
 8005d4c:	b570      	push	{r4, r5, r6, lr}
 8005d4e:	2568      	movs	r5, #104	; 0x68
 8005d50:	1e4a      	subs	r2, r1, #1
 8005d52:	4355      	muls	r5, r2
 8005d54:	460e      	mov	r6, r1
 8005d56:	f105 0174 	add.w	r1, r5, #116	; 0x74
 8005d5a:	f000 f947 	bl	8005fec <_malloc_r>
 8005d5e:	4604      	mov	r4, r0
 8005d60:	b140      	cbz	r0, 8005d74 <__sfmoreglue+0x28>
 8005d62:	2100      	movs	r1, #0
 8005d64:	e880 0042 	stmia.w	r0, {r1, r6}
 8005d68:	300c      	adds	r0, #12
 8005d6a:	60a0      	str	r0, [r4, #8]
 8005d6c:	f105 0268 	add.w	r2, r5, #104	; 0x68
 8005d70:	f7ff fd9f 	bl	80058b2 <memset>
 8005d74:	4620      	mov	r0, r4
 8005d76:	bd70      	pop	{r4, r5, r6, pc}

08005d78 <__sinit>:
 8005d78:	6983      	ldr	r3, [r0, #24]
 8005d7a:	b510      	push	{r4, lr}
 8005d7c:	4604      	mov	r4, r0
 8005d7e:	bb33      	cbnz	r3, 8005dce <__sinit+0x56>
 8005d80:	6483      	str	r3, [r0, #72]	; 0x48
 8005d82:	64c3      	str	r3, [r0, #76]	; 0x4c
 8005d84:	6503      	str	r3, [r0, #80]	; 0x50
 8005d86:	4b12      	ldr	r3, [pc, #72]	; (8005dd0 <__sinit+0x58>)
 8005d88:	4a12      	ldr	r2, [pc, #72]	; (8005dd4 <__sinit+0x5c>)
 8005d8a:	681b      	ldr	r3, [r3, #0]
 8005d8c:	6282      	str	r2, [r0, #40]	; 0x28
 8005d8e:	4298      	cmp	r0, r3
 8005d90:	bf04      	itt	eq
 8005d92:	2301      	moveq	r3, #1
 8005d94:	6183      	streq	r3, [r0, #24]
 8005d96:	f000 f81f 	bl	8005dd8 <__sfp>
 8005d9a:	6060      	str	r0, [r4, #4]
 8005d9c:	4620      	mov	r0, r4
 8005d9e:	f000 f81b 	bl	8005dd8 <__sfp>
 8005da2:	60a0      	str	r0, [r4, #8]
 8005da4:	4620      	mov	r0, r4
 8005da6:	f000 f817 	bl	8005dd8 <__sfp>
 8005daa:	2200      	movs	r2, #0
 8005dac:	60e0      	str	r0, [r4, #12]
 8005dae:	2104      	movs	r1, #4
 8005db0:	6860      	ldr	r0, [r4, #4]
 8005db2:	f7ff ffa7 	bl	8005d04 <std.isra.0>
 8005db6:	2201      	movs	r2, #1
 8005db8:	2109      	movs	r1, #9
 8005dba:	68a0      	ldr	r0, [r4, #8]
 8005dbc:	f7ff ffa2 	bl	8005d04 <std.isra.0>
 8005dc0:	2202      	movs	r2, #2
 8005dc2:	2112      	movs	r1, #18
 8005dc4:	68e0      	ldr	r0, [r4, #12]
 8005dc6:	f7ff ff9d 	bl	8005d04 <std.isra.0>
 8005dca:	2301      	movs	r3, #1
 8005dcc:	61a3      	str	r3, [r4, #24]
 8005dce:	bd10      	pop	{r4, pc}
 8005dd0:	08007c48 	.word	0x08007c48
 8005dd4:	08005cf9 	.word	0x08005cf9

08005dd8 <__sfp>:
 8005dd8:	b5f8      	push	{r3, r4, r5, r6, r7, lr}
 8005dda:	4b1c      	ldr	r3, [pc, #112]	; (8005e4c <__sfp+0x74>)
 8005ddc:	4607      	mov	r7, r0
 8005dde:	681e      	ldr	r6, [r3, #0]
 8005de0:	69b3      	ldr	r3, [r6, #24]
 8005de2:	b913      	cbnz	r3, 8005dea <__sfp+0x12>
 8005de4:	4630      	mov	r0, r6
 8005de6:	f7ff ffc7 	bl	8005d78 <__sinit>
 8005dea:	3648      	adds	r6, #72	; 0x48
 8005dec:	68b4      	ldr	r4, [r6, #8]
 8005dee:	6873      	ldr	r3, [r6, #4]
 8005df0:	3b01      	subs	r3, #1
 8005df2:	d503      	bpl.n	8005dfc <__sfp+0x24>
 8005df4:	6833      	ldr	r3, [r6, #0]
 8005df6:	b133      	cbz	r3, 8005e06 <__sfp+0x2e>
 8005df8:	6836      	ldr	r6, [r6, #0]
 8005dfa:	e7f7      	b.n	8005dec <__sfp+0x14>
 8005dfc:	f9b4 500c 	ldrsh.w	r5, [r4, #12]
 8005e00:	b16d      	cbz	r5, 8005e1e <__sfp+0x46>
 8005e02:	3468      	adds	r4, #104	; 0x68
 8005e04:	e7f4      	b.n	8005df0 <__sfp+0x18>
 8005e06:	2104      	movs	r1, #4
 8005e08:	4638      	mov	r0, r7
 8005e0a:	f7ff ff9f 	bl	8005d4c <__sfmoreglue>
 8005e0e:	6030      	str	r0, [r6, #0]
 8005e10:	2800      	cmp	r0, #0
 8005e12:	d1f1      	bne.n	8005df8 <__sfp+0x20>
 8005e14:	230c      	movs	r3, #12
 8005e16:	4604      	mov	r4, r0
 8005e18:	603b      	str	r3, [r7, #0]
 8005e1a:	4620      	mov	r0, r4
 8005e1c:	bdf8      	pop	{r3, r4, r5, r6, r7, pc}
 8005e1e:	f64f 73ff 	movw	r3, #65535	; 0xffff
 8005e22:	81e3      	strh	r3, [r4, #14]
 8005e24:	2301      	movs	r3, #1
 8005e26:	6665      	str	r5, [r4, #100]	; 0x64
 8005e28:	81a3      	strh	r3, [r4, #12]
 8005e2a:	6025      	str	r5, [r4, #0]
 8005e2c:	60a5      	str	r5, [r4, #8]
 8005e2e:	6065      	str	r5, [r4, #4]
 8005e30:	6125      	str	r5, [r4, #16]
 8005e32:	6165      	str	r5, [r4, #20]
 8005e34:	61a5      	str	r5, [r4, #24]
 8005e36:	2208      	movs	r2, #8
 8005e38:	4629      	mov	r1, r5
 8005e3a:	f104 005c 	add.w	r0, r4, #92	; 0x5c
 8005e3e:	f7ff fd38 	bl	80058b2 <memset>
 8005e42:	6365      	str	r5, [r4, #52]	; 0x34
 8005e44:	63a5      	str	r5, [r4, #56]	; 0x38
 8005e46:	64a5      	str	r5, [r4, #72]	; 0x48
 8005e48:	64e5      	str	r5, [r4, #76]	; 0x4c
 8005e4a:	e7e6      	b.n	8005e1a <__sfp+0x42>
 8005e4c:	08007c48 	.word	0x08007c48

08005e50 <_fwalk_reent>:
 8005e50:	e92d 43f8 	stmdb	sp!, {r3, r4, r5, r6, r7, r8, r9, lr}
 8005e54:	4680      	mov	r8, r0
 8005e56:	4689      	mov	r9, r1
 8005e58:	2600      	movs	r6, #0
 8005e5a:	f100 0448 	add.w	r4, r0, #72	; 0x48
 8005e5e:	b914      	cbnz	r4, 8005e66 <_fwalk_reent+0x16>
 8005e60:	4630      	mov	r0, r6
 8005e62:	e8bd 83f8 	ldmia.w	sp!, {r3, r4, r5, r6, r7, r8, r9, pc}
 8005e66:	68a5      	ldr	r5, [r4, #8]
 8005e68:	6867      	ldr	r7, [r4, #4]
 8005e6a:	3f01      	subs	r7, #1
 8005e6c:	d501      	bpl.n	8005e72 <_fwalk_reent+0x22>
 8005e6e:	6824      	ldr	r4, [r4, #0]
 8005e70:	e7f5      	b.n	8005e5e <_fwalk_reent+0xe>
 8005e72:	89ab      	ldrh	r3, [r5, #12]
 8005e74:	2b01      	cmp	r3, #1
 8005e76:	d907      	bls.n	8005e88 <_fwalk_reent+0x38>
 8005e78:	f9b5 300e 	ldrsh.w	r3, [r5, #14]
 8005e7c:	3301      	adds	r3, #1
 8005e7e:	d003      	beq.n	8005e88 <_fwalk_reent+0x38>
 8005e80:	4629      	mov	r1, r5
 8005e82:	4640      	mov	r0, r8
 8005e84:	47c8      	blx	r9
 8005e86:	4306      	orrs	r6, r0
 8005e88:	3568      	adds	r5, #104	; 0x68
 8005e8a:	e7ee      	b.n	8005e6a <_fwalk_reent+0x1a>

08005e8c <__swhatbuf_r>:
 8005e8c:	b570      	push	{r4, r5, r6, lr}
 8005e8e:	460e      	mov	r6, r1
 8005e90:	f9b1 100e 	ldrsh.w	r1, [r1, #14]
 8005e94:	b090      	sub	sp, #64	; 0x40
 8005e96:	2900      	cmp	r1, #0
 8005e98:	4614      	mov	r4, r2
 8005e9a:	461d      	mov	r5, r3
 8005e9c:	da07      	bge.n	8005eae <__swhatbuf_r+0x22>
 8005e9e:	2300      	movs	r3, #0
 8005ea0:	602b      	str	r3, [r5, #0]
 8005ea2:	89b3      	ldrh	r3, [r6, #12]
 8005ea4:	061a      	lsls	r2, r3, #24
 8005ea6:	d410      	bmi.n	8005eca <__swhatbuf_r+0x3e>
 8005ea8:	f44f 6380 	mov.w	r3, #1024	; 0x400
 8005eac:	e00e      	b.n	8005ecc <__swhatbuf_r+0x40>
 8005eae:	aa01      	add	r2, sp, #4
 8005eb0:	f000 fd96 	bl	80069e0 <_fstat_r>
 8005eb4:	2800      	cmp	r0, #0
 8005eb6:	dbf2      	blt.n	8005e9e <__swhatbuf_r+0x12>
 8005eb8:	9a02      	ldr	r2, [sp, #8]
 8005eba:	f402 4270 	and.w	r2, r2, #61440	; 0xf000
 8005ebe:	f5a2 5300 	sub.w	r3, r2, #8192	; 0x2000
 8005ec2:	425a      	negs	r2, r3
 8005ec4:	415a      	adcs	r2, r3
 8005ec6:	602a      	str	r2, [r5, #0]
 8005ec8:	e7ee      	b.n	8005ea8 <__swhatbuf_r+0x1c>
 8005eca:	2340      	movs	r3, #64	; 0x40
 8005ecc:	2000      	movs	r0, #0
 8005ece:	6023      	str	r3, [r4, #0]
 8005ed0:	b010      	add	sp, #64	; 0x40
 8005ed2:	bd70      	pop	{r4, r5, r6, pc}

08005ed4 <__smakebuf_r>:
 8005ed4:	898b      	ldrh	r3, [r1, #12]
 8005ed6:	b573      	push	{r0, r1, r4, r5, r6, lr}
 8005ed8:	079d      	lsls	r5, r3, #30
 8005eda:	4606      	mov	r6, r0
 8005edc:	460c      	mov	r4, r1
 8005ede:	d507      	bpl.n	8005ef0 <__smakebuf_r+0x1c>
 8005ee0:	f104 0347 	add.w	r3, r4, #71	; 0x47
 8005ee4:	6023      	str	r3, [r4, #0]
 8005ee6:	6123      	str	r3, [r4, #16]
 8005ee8:	2301      	movs	r3, #1
 8005eea:	6163      	str	r3, [r4, #20]
 8005eec:	b002      	add	sp, #8
 8005eee:	bd70      	pop	{r4, r5, r6, pc}
 8005ef0:	ab01      	add	r3, sp, #4
 8005ef2:	466a      	mov	r2, sp
 8005ef4:	f7ff ffca 	bl	8005e8c <__swhatbuf_r>
 8005ef8:	9900      	ldr	r1, [sp, #0]
 8005efa:	4605      	mov	r5, r0
 8005efc:	4630      	mov	r0, r6
 8005efe:	f000 f875 	bl	8005fec <_malloc_r>
 8005f02:	b948      	cbnz	r0, 8005f18 <__smakebuf_r+0x44>
 8005f04:	f9b4 300c 	ldrsh.w	r3, [r4, #12]
 8005f08:	059a      	lsls	r2, r3, #22
 8005f0a:	d4ef      	bmi.n	8005eec <__smakebuf_r+0x18>
 8005f0c:	f023 0303 	bic.w	r3, r3, #3
 8005f10:	f043 0302 	orr.w	r3, r3, #2
 8005f14:	81a3      	strh	r3, [r4, #12]
 8005f16:	e7e3      	b.n	8005ee0 <__smakebuf_r+0xc>
 8005f18:	4b0d      	ldr	r3, [pc, #52]	; (8005f50 <__smakebuf_r+0x7c>)
 8005f1a:	62b3      	str	r3, [r6, #40]	; 0x28
 8005f1c:	89a3      	ldrh	r3, [r4, #12]
 8005f1e:	6020      	str	r0, [r4, #0]
 8005f20:	f043 0380 	orr.w	r3, r3, #128	; 0x80
 8005f24:	81a3      	strh	r3, [r4, #12]
 8005f26:	9b00      	ldr	r3, [sp, #0]
 8005f28:	6120      	str	r0, [r4, #16]
 8005f2a:	6163      	str	r3, [r4, #20]
 8005f2c:	9b01      	ldr	r3, [sp, #4]
 8005f2e:	b15b      	cbz	r3, 8005f48 <__smakebuf_r+0x74>
 8005f30:	f9b4 100e 	ldrsh.w	r1, [r4, #14]
 8005f34:	4630      	mov	r0, r6
 8005f36:	f000 fd65 	bl	8006a04 <_isatty_r>
 8005f3a:	b128      	cbz	r0, 8005f48 <__smakebuf_r+0x74>
 8005f3c:	89a3      	ldrh	r3, [r4, #12]
 8005f3e:	f023 0303 	bic.w	r3, r3, #3
 8005f42:	f043 0301 	orr.w	r3, r3, #1
 8005f46:	81a3      	strh	r3, [r4, #12]
 8005f48:	89a3      	ldrh	r3, [r4, #12]
 8005f4a:	431d      	orrs	r5, r3
 8005f4c:	81a5      	strh	r5, [r4, #12]
 8005f4e:	e7cd      	b.n	8005eec <__smakebuf_r+0x18>
 8005f50:	08005cf9 	.word	0x08005cf9

08005f54 <_free_r>:
 8005f54:	b538      	push	{r3, r4, r5, lr}
 8005f56:	4605      	mov	r5, r0
 8005f58:	2900      	cmp	r1, #0
 8005f5a:	d043      	beq.n	8005fe4 <_free_r+0x90>
 8005f5c:	f851 3c04 	ldr.w	r3, [r1, #-4]
 8005f60:	1f0c      	subs	r4, r1, #4
 8005f62:	2b00      	cmp	r3, #0
 8005f64:	bfb8      	it	lt
 8005f66:	18e4      	addlt	r4, r4, r3
 8005f68:	f000 fd96 	bl	8006a98 <__malloc_lock>
 8005f6c:	4a1e      	ldr	r2, [pc, #120]	; (8005fe8 <_free_r+0x94>)
 8005f6e:	6813      	ldr	r3, [r2, #0]
 8005f70:	4610      	mov	r0, r2
 8005f72:	b933      	cbnz	r3, 8005f82 <_free_r+0x2e>
 8005f74:	6063      	str	r3, [r4, #4]
 8005f76:	6014      	str	r4, [r2, #0]
 8005f78:	4628      	mov	r0, r5
 8005f7a:	e8bd 4038 	ldmia.w	sp!, {r3, r4, r5, lr}
 8005f7e:	f000 bd8c 	b.w	8006a9a <__malloc_unlock>
 8005f82:	42a3      	cmp	r3, r4
 8005f84:	d90b      	bls.n	8005f9e <_free_r+0x4a>
 8005f86:	6821      	ldr	r1, [r4, #0]
 8005f88:	1862      	adds	r2, r4, r1
 8005f8a:	4293      	cmp	r3, r2
 8005f8c:	bf01      	itttt	eq
 8005f8e:	681a      	ldreq	r2, [r3, #0]
 8005f90:	685b      	ldreq	r3, [r3, #4]
 8005f92:	1852      	addeq	r2, r2, r1
 8005f94:	6022      	streq	r2, [r4, #0]
 8005f96:	6063      	str	r3, [r4, #4]
 8005f98:	6004      	str	r4, [r0, #0]
 8005f9a:	e7ed      	b.n	8005f78 <_free_r+0x24>
 8005f9c:	4613      	mov	r3, r2
 8005f9e:	685a      	ldr	r2, [r3, #4]
 8005fa0:	b10a      	cbz	r2, 8005fa6 <_free_r+0x52>
 8005fa2:	42a2      	cmp	r2, r4
 8005fa4:	d9fa      	bls.n	8005f9c <_free_r+0x48>
 8005fa6:	6819      	ldr	r1, [r3, #0]
 8005fa8:	1858      	adds	r0, r3, r1
 8005faa:	42a0      	cmp	r0, r4
 8005fac:	d10b      	bne.n	8005fc6 <_free_r+0x72>
 8005fae:	6820      	ldr	r0, [r4, #0]
 8005fb0:	4401      	add	r1, r0
 8005fb2:	1858      	adds	r0, r3, r1
 8005fb4:	4282      	cmp	r2, r0
 8005fb6:	6019      	str	r1, [r3, #0]
 8005fb8:	d1de      	bne.n	8005f78 <_free_r+0x24>
 8005fba:	6810      	ldr	r0, [r2, #0]
 8005fbc:	6852      	ldr	r2, [r2, #4]
 8005fbe:	4401      	add	r1, r0
 8005fc0:	6019      	str	r1, [r3, #0]
 8005fc2:	605a      	str	r2, [r3, #4]
 8005fc4:	e7d8      	b.n	8005f78 <_free_r+0x24>
 8005fc6:	d902      	bls.n	8005fce <_free_r+0x7a>
 8005fc8:	230c      	movs	r3, #12
 8005fca:	602b      	str	r3, [r5, #0]
 8005fcc:	e7d4      	b.n	8005f78 <_free_r+0x24>
 8005fce:	6820      	ldr	r0, [r4, #0]
 8005fd0:	1821      	adds	r1, r4, r0
 8005fd2:	428a      	cmp	r2, r1
 8005fd4:	bf01      	itttt	eq
 8005fd6:	6811      	ldreq	r1, [r2, #0]
 8005fd8:	6852      	ldreq	r2, [r2, #4]
 8005fda:	1809      	addeq	r1, r1, r0
 8005fdc:	6021      	streq	r1, [r4, #0]
 8005fde:	6062      	str	r2, [r4, #4]
 8005fe0:	605c      	str	r4, [r3, #4]
 8005fe2:	e7c9      	b.n	8005f78 <_free_r+0x24>
 8005fe4:	bd38      	pop	{r3, r4, r5, pc}
 8005fe6:	bf00      	nop
 8005fe8:	2000055c 	.word	0x2000055c

08005fec <_malloc_r>:
 8005fec:	b570      	push	{r4, r5, r6, lr}
 8005fee:	1ccd      	adds	r5, r1, #3
 8005ff0:	f025 0503 	bic.w	r5, r5, #3
 8005ff4:	3508      	adds	r5, #8
 8005ff6:	2d0c      	cmp	r5, #12
 8005ff8:	bf38      	it	cc
 8005ffa:	250c      	movcc	r5, #12
 8005ffc:	2d00      	cmp	r5, #0
 8005ffe:	4606      	mov	r6, r0
 8006000:	db01      	blt.n	8006006 <_malloc_r+0x1a>
 8006002:	42a9      	cmp	r1, r5
 8006004:	d903      	bls.n	800600e <_malloc_r+0x22>
 8006006:	230c      	movs	r3, #12
 8006008:	6033      	str	r3, [r6, #0]
 800600a:	2000      	movs	r0, #0
 800600c:	bd70      	pop	{r4, r5, r6, pc}
 800600e:	f000 fd43 	bl	8006a98 <__malloc_lock>
 8006012:	4a23      	ldr	r2, [pc, #140]	; (80060a0 <_malloc_r+0xb4>)
 8006014:	6814      	ldr	r4, [r2, #0]
 8006016:	4621      	mov	r1, r4
 8006018:	b991      	cbnz	r1, 8006040 <_malloc_r+0x54>
 800601a:	4c22      	ldr	r4, [pc, #136]	; (80060a4 <_malloc_r+0xb8>)
 800601c:	6823      	ldr	r3, [r4, #0]
 800601e:	b91b      	cbnz	r3, 8006028 <_malloc_r+0x3c>
 8006020:	4630      	mov	r0, r6
 8006022:	f000 fc67 	bl	80068f4 <_sbrk_r>
 8006026:	6020      	str	r0, [r4, #0]
 8006028:	4629      	mov	r1, r5
 800602a:	4630      	mov	r0, r6
 800602c:	f000 fc62 	bl	80068f4 <_sbrk_r>
 8006030:	1c43      	adds	r3, r0, #1
 8006032:	d126      	bne.n	8006082 <_malloc_r+0x96>
 8006034:	230c      	movs	r3, #12
 8006036:	4630      	mov	r0, r6
 8006038:	6033      	str	r3, [r6, #0]
 800603a:	f000 fd2e 	bl	8006a9a <__malloc_unlock>
 800603e:	e7e4      	b.n	800600a <_malloc_r+0x1e>
 8006040:	680b      	ldr	r3, [r1, #0]
 8006042:	1b5b      	subs	r3, r3, r5
 8006044:	d41a      	bmi.n	800607c <_malloc_r+0x90>
 8006046:	2b0b      	cmp	r3, #11
 8006048:	d90f      	bls.n	800606a <_malloc_r+0x7e>
 800604a:	600b      	str	r3, [r1, #0]
 800604c:	18cc      	adds	r4, r1, r3
 800604e:	50cd      	str	r5, [r1, r3]
 8006050:	4630      	mov	r0, r6
 8006052:	f000 fd22 	bl	8006a9a <__malloc_unlock>
 8006056:	f104 000b 	add.w	r0, r4, #11
 800605a:	1d23      	adds	r3, r4, #4
 800605c:	f020 0007 	bic.w	r0, r0, #7
 8006060:	1ac3      	subs	r3, r0, r3
 8006062:	d01b      	beq.n	800609c <_malloc_r+0xb0>
 8006064:	425a      	negs	r2, r3
 8006066:	50e2      	str	r2, [r4, r3]
 8006068:	bd70      	pop	{r4, r5, r6, pc}
 800606a:	428c      	cmp	r4, r1
 800606c:	bf0b      	itete	eq
 800606e:	6863      	ldreq	r3, [r4, #4]
 8006070:	684b      	ldrne	r3, [r1, #4]
 8006072:	6013      	streq	r3, [r2, #0]
 8006074:	6063      	strne	r3, [r4, #4]
 8006076:	bf18      	it	ne
 8006078:	460c      	movne	r4, r1
 800607a:	e7e9      	b.n	8006050 <_malloc_r+0x64>
 800607c:	460c      	mov	r4, r1
 800607e:	6849      	ldr	r1, [r1, #4]
 8006080:	e7ca      	b.n	8006018 <_malloc_r+0x2c>
 8006082:	1cc4      	adds	r4, r0, #3
 8006084:	f024 0403 	bic.w	r4, r4, #3
 8006088:	42a0      	cmp	r0, r4
 800608a:	d005      	beq.n	8006098 <_malloc_r+0xac>
 800608c:	1a21      	subs	r1, r4, r0
 800608e:	4630      	mov	r0, r6
 8006090:	f000 fc30 	bl	80068f4 <_sbrk_r>
 8006094:	3001      	adds	r0, #1
 8006096:	d0cd      	beq.n	8006034 <_malloc_r+0x48>
 8006098:	6025      	str	r5, [r4, #0]
 800609a:	e7d9      	b.n	8006050 <_malloc_r+0x64>
 800609c:	bd70      	pop	{r4, r5, r6, pc}
 800609e:	bf00      	nop
 80060a0:	2000055c 	.word	0x2000055c
 80060a4:	20000560 	.word	0x20000560

080060a8 <__ssputs_r>:
 80060a8:	e92d 47f0 	stmdb	sp!, {r4, r5, r6, r7, r8, r9, sl, lr}
 80060ac:	688e      	ldr	r6, [r1, #8]
 80060ae:	4682      	mov	sl, r0
 80060b0:	429e      	cmp	r6, r3
 80060b2:	460c      	mov	r4, r1
 80060b4:	4691      	mov	r9, r2
 80060b6:	4698      	mov	r8, r3
 80060b8:	d835      	bhi.n	8006126 <__ssputs_r+0x7e>
 80060ba:	898a      	ldrh	r2, [r1, #12]
 80060bc:	f412 6f90 	tst.w	r2, #1152	; 0x480
 80060c0:	d031      	beq.n	8006126 <__ssputs_r+0x7e>
 80060c2:	2302      	movs	r3, #2
 80060c4:	6825      	ldr	r5, [r4, #0]
 80060c6:	6909      	ldr	r1, [r1, #16]
 80060c8:	1a6f      	subs	r7, r5, r1
 80060ca:	6965      	ldr	r5, [r4, #20]
 80060cc:	eb05 0545 	add.w	r5, r5, r5, lsl #1
 80060d0:	fb95 f5f3 	sdiv	r5, r5, r3
 80060d4:	f108 0301 	add.w	r3, r8, #1
 80060d8:	443b      	add	r3, r7
 80060da:	429d      	cmp	r5, r3
 80060dc:	bf38      	it	cc
 80060de:	461d      	movcc	r5, r3
 80060e0:	0553      	lsls	r3, r2, #21
 80060e2:	d531      	bpl.n	8006148 <__ssputs_r+0xa0>
 80060e4:	4629      	mov	r1, r5
 80060e6:	f7ff ff81 	bl	8005fec <_malloc_r>
 80060ea:	4606      	mov	r6, r0
 80060ec:	b950      	cbnz	r0, 8006104 <__ssputs_r+0x5c>
 80060ee:	230c      	movs	r3, #12
 80060f0:	f8ca 3000 	str.w	r3, [sl]
 80060f4:	89a3      	ldrh	r3, [r4, #12]
 80060f6:	f04f 30ff 	mov.w	r0, #4294967295
 80060fa:	f043 0340 	orr.w	r3, r3, #64	; 0x40
 80060fe:	81a3      	strh	r3, [r4, #12]
 8006100:	e8bd 87f0 	ldmia.w	sp!, {r4, r5, r6, r7, r8, r9, sl, pc}
 8006104:	463a      	mov	r2, r7
 8006106:	6921      	ldr	r1, [r4, #16]
 8006108:	f7ff fbc8 	bl	800589c <memcpy>
 800610c:	89a3      	ldrh	r3, [r4, #12]
 800610e:	f423 6390 	bic.w	r3, r3, #1152	; 0x480
 8006112:	f043 0380 	orr.w	r3, r3, #128	; 0x80
 8006116:	81a3      	strh	r3, [r4, #12]
 8006118:	6126      	str	r6, [r4, #16]
 800611a:	443e      	add	r6, r7
 800611c:	6026      	str	r6, [r4, #0]
 800611e:	4646      	mov	r6, r8
 8006120:	6165      	str	r5, [r4, #20]
 8006122:	1bed      	subs	r5, r5, r7
 8006124:	60a5      	str	r5, [r4, #8]
 8006126:	4546      	cmp	r6, r8
 8006128:	bf28      	it	cs
 800612a:	4646      	movcs	r6, r8
 800612c:	4649      	mov	r1, r9
 800612e:	4632      	mov	r2, r6
 8006130:	6820      	ldr	r0, [r4, #0]
 8006132:	f000 fc97 	bl	8006a64 <memmove>
 8006136:	68a3      	ldr	r3, [r4, #8]
 8006138:	2000      	movs	r0, #0
 800613a:	1b9b      	subs	r3, r3, r6
 800613c:	60a3      	str	r3, [r4, #8]
 800613e:	6823      	ldr	r3, [r4, #0]
 8006140:	441e      	add	r6, r3
 8006142:	6026      	str	r6, [r4, #0]
 8006144:	e8bd 87f0 	ldmia.w	sp!, {r4, r5, r6, r7, r8, r9, sl, pc}
 8006148:	462a      	mov	r2, r5
 800614a:	f000 fca7 	bl	8006a9c <_realloc_r>
 800614e:	4606      	mov	r6, r0
 8006150:	2800      	cmp	r0, #0
 8006152:	d1e1      	bne.n	8006118 <__ssputs_r+0x70>
 8006154:	6921      	ldr	r1, [r4, #16]
 8006156:	4650      	mov	r0, sl
 8006158:	f7ff fefc 	bl	8005f54 <_free_r>
 800615c:	e7c7      	b.n	80060ee <__ssputs_r+0x46>
	...

08006160 <_svfiprintf_r>:
 8006160:	e92d 4ff0 	stmdb	sp!, {r4, r5, r6, r7, r8, r9, sl, fp, lr}
 8006164:	b09d      	sub	sp, #116	; 0x74
 8006166:	9303      	str	r3, [sp, #12]
 8006168:	898b      	ldrh	r3, [r1, #12]
 800616a:	4680      	mov	r8, r0
 800616c:	061c      	lsls	r4, r3, #24
 800616e:	460d      	mov	r5, r1
 8006170:	4616      	mov	r6, r2
 8006172:	d50f      	bpl.n	8006194 <_svfiprintf_r+0x34>
 8006174:	690b      	ldr	r3, [r1, #16]
 8006176:	b96b      	cbnz	r3, 8006194 <_svfiprintf_r+0x34>
 8006178:	2140      	movs	r1, #64	; 0x40
 800617a:	f7ff ff37 	bl	8005fec <_malloc_r>
 800617e:	6028      	str	r0, [r5, #0]
 8006180:	6128      	str	r0, [r5, #16]
 8006182:	b928      	cbnz	r0, 8006190 <_svfiprintf_r+0x30>
 8006184:	230c      	movs	r3, #12
 8006186:	f8c8 3000 	str.w	r3, [r8]
 800618a:	f04f 30ff 	mov.w	r0, #4294967295
 800618e:	e0c4      	b.n	800631a <_svfiprintf_r+0x1ba>
 8006190:	2340      	movs	r3, #64	; 0x40
 8006192:	616b      	str	r3, [r5, #20]
 8006194:	2300      	movs	r3, #0
 8006196:	9309      	str	r3, [sp, #36]	; 0x24
 8006198:	2320      	movs	r3, #32
 800619a:	f88d 3029 	strb.w	r3, [sp, #41]	; 0x29
 800619e:	2330      	movs	r3, #48	; 0x30
 80061a0:	f04f 0b01 	mov.w	fp, #1
 80061a4:	f88d 302a 	strb.w	r3, [sp, #42]	; 0x2a
 80061a8:	4637      	mov	r7, r6
 80061aa:	463c      	mov	r4, r7
 80061ac:	f814 3b01 	ldrb.w	r3, [r4], #1
 80061b0:	2b00      	cmp	r3, #0
 80061b2:	d13c      	bne.n	800622e <_svfiprintf_r+0xce>
 80061b4:	ebb7 0a06 	subs.w	sl, r7, r6
 80061b8:	d00b      	beq.n	80061d2 <_svfiprintf_r+0x72>
 80061ba:	4653      	mov	r3, sl
 80061bc:	4632      	mov	r2, r6
 80061be:	4629      	mov	r1, r5
 80061c0:	4640      	mov	r0, r8
 80061c2:	f7ff ff71 	bl	80060a8 <__ssputs_r>
 80061c6:	3001      	adds	r0, #1
 80061c8:	f000 80a2 	beq.w	8006310 <_svfiprintf_r+0x1b0>
 80061cc:	9b09      	ldr	r3, [sp, #36]	; 0x24
 80061ce:	4453      	add	r3, sl
 80061d0:	9309      	str	r3, [sp, #36]	; 0x24
 80061d2:	783b      	ldrb	r3, [r7, #0]
 80061d4:	2b00      	cmp	r3, #0
 80061d6:	f000 809b 	beq.w	8006310 <_svfiprintf_r+0x1b0>
 80061da:	2300      	movs	r3, #0
 80061dc:	f04f 32ff 	mov.w	r2, #4294967295
 80061e0:	9304      	str	r3, [sp, #16]
 80061e2:	9307      	str	r3, [sp, #28]
 80061e4:	9205      	str	r2, [sp, #20]
 80061e6:	9306      	str	r3, [sp, #24]
 80061e8:	f88d 3053 	strb.w	r3, [sp, #83]	; 0x53
 80061ec:	931a      	str	r3, [sp, #104]	; 0x68
 80061ee:	2205      	movs	r2, #5
 80061f0:	7821      	ldrb	r1, [r4, #0]
 80061f2:	4850      	ldr	r0, [pc, #320]	; (8006334 <_svfiprintf_r+0x1d4>)
 80061f4:	f000 fc28 	bl	8006a48 <memchr>
 80061f8:	1c67      	adds	r7, r4, #1
 80061fa:	9b04      	ldr	r3, [sp, #16]
 80061fc:	b9d8      	cbnz	r0, 8006236 <_svfiprintf_r+0xd6>
 80061fe:	06d9      	lsls	r1, r3, #27
 8006200:	bf44      	itt	mi
 8006202:	2220      	movmi	r2, #32
 8006204:	f88d 2053 	strbmi.w	r2, [sp, #83]	; 0x53
 8006208:	071a      	lsls	r2, r3, #28
 800620a:	bf44      	itt	mi
 800620c:	222b      	movmi	r2, #43	; 0x2b
 800620e:	f88d 2053 	strbmi.w	r2, [sp, #83]	; 0x53
 8006212:	7822      	ldrb	r2, [r4, #0]
 8006214:	2a2a      	cmp	r2, #42	; 0x2a
 8006216:	d016      	beq.n	8006246 <_svfiprintf_r+0xe6>
 8006218:	2100      	movs	r1, #0
 800621a:	200a      	movs	r0, #10
 800621c:	9a07      	ldr	r2, [sp, #28]
 800621e:	4627      	mov	r7, r4
 8006220:	783b      	ldrb	r3, [r7, #0]
 8006222:	3401      	adds	r4, #1
 8006224:	3b30      	subs	r3, #48	; 0x30
 8006226:	2b09      	cmp	r3, #9
 8006228:	d950      	bls.n	80062cc <_svfiprintf_r+0x16c>
 800622a:	b1c9      	cbz	r1, 8006260 <_svfiprintf_r+0x100>
 800622c:	e011      	b.n	8006252 <_svfiprintf_r+0xf2>
 800622e:	2b25      	cmp	r3, #37	; 0x25
 8006230:	d0c0      	beq.n	80061b4 <_svfiprintf_r+0x54>
 8006232:	4627      	mov	r7, r4
 8006234:	e7b9      	b.n	80061aa <_svfiprintf_r+0x4a>
 8006236:	4a3f      	ldr	r2, [pc, #252]	; (8006334 <_svfiprintf_r+0x1d4>)
 8006238:	463c      	mov	r4, r7
 800623a:	1a80      	subs	r0, r0, r2
 800623c:	fa0b f000 	lsl.w	r0, fp, r0
 8006240:	4318      	orrs	r0, r3
 8006242:	9004      	str	r0, [sp, #16]
 8006244:	e7d3      	b.n	80061ee <_svfiprintf_r+0x8e>
 8006246:	9a03      	ldr	r2, [sp, #12]
 8006248:	1d11      	adds	r1, r2, #4
 800624a:	6812      	ldr	r2, [r2, #0]
 800624c:	9103      	str	r1, [sp, #12]
 800624e:	2a00      	cmp	r2, #0
 8006250:	db01      	blt.n	8006256 <_svfiprintf_r+0xf6>
 8006252:	9207      	str	r2, [sp, #28]
 8006254:	e004      	b.n	8006260 <_svfiprintf_r+0x100>
 8006256:	4252      	negs	r2, r2
 8006258:	f043 0302 	orr.w	r3, r3, #2
 800625c:	9207      	str	r2, [sp, #28]
 800625e:	9304      	str	r3, [sp, #16]
 8006260:	783b      	ldrb	r3, [r7, #0]
 8006262:	2b2e      	cmp	r3, #46	; 0x2e
 8006264:	d10d      	bne.n	8006282 <_svfiprintf_r+0x122>
 8006266:	787b      	ldrb	r3, [r7, #1]
 8006268:	1c79      	adds	r1, r7, #1
 800626a:	2b2a      	cmp	r3, #42	; 0x2a
 800626c:	d132      	bne.n	80062d4 <_svfiprintf_r+0x174>
 800626e:	9b03      	ldr	r3, [sp, #12]
 8006270:	3702      	adds	r7, #2
 8006272:	1d1a      	adds	r2, r3, #4
 8006274:	681b      	ldr	r3, [r3, #0]
 8006276:	9203      	str	r2, [sp, #12]
 8006278:	2b00      	cmp	r3, #0
 800627a:	bfb8      	it	lt
 800627c:	f04f 33ff 	movlt.w	r3, #4294967295
 8006280:	9305      	str	r3, [sp, #20]
 8006282:	4c2d      	ldr	r4, [pc, #180]	; (8006338 <_svfiprintf_r+0x1d8>)
 8006284:	2203      	movs	r2, #3
 8006286:	7839      	ldrb	r1, [r7, #0]
 8006288:	4620      	mov	r0, r4
 800628a:	f000 fbdd 	bl	8006a48 <memchr>
 800628e:	b138      	cbz	r0, 80062a0 <_svfiprintf_r+0x140>
 8006290:	2340      	movs	r3, #64	; 0x40
 8006292:	1b00      	subs	r0, r0, r4
 8006294:	fa03 f000 	lsl.w	r0, r3, r0
 8006298:	9b04      	ldr	r3, [sp, #16]
 800629a:	3701      	adds	r7, #1
 800629c:	4303      	orrs	r3, r0
 800629e:	9304      	str	r3, [sp, #16]
 80062a0:	7839      	ldrb	r1, [r7, #0]
 80062a2:	2206      	movs	r2, #6
 80062a4:	4825      	ldr	r0, [pc, #148]	; (800633c <_svfiprintf_r+0x1dc>)
 80062a6:	1c7e      	adds	r6, r7, #1
 80062a8:	f88d 1028 	strb.w	r1, [sp, #40]	; 0x28
 80062ac:	f000 fbcc 	bl	8006a48 <memchr>
 80062b0:	2800      	cmp	r0, #0
 80062b2:	d035      	beq.n	8006320 <_svfiprintf_r+0x1c0>
 80062b4:	4b22      	ldr	r3, [pc, #136]	; (8006340 <_svfiprintf_r+0x1e0>)
 80062b6:	b9fb      	cbnz	r3, 80062f8 <_svfiprintf_r+0x198>
 80062b8:	9b03      	ldr	r3, [sp, #12]
 80062ba:	3307      	adds	r3, #7
 80062bc:	f023 0307 	bic.w	r3, r3, #7
 80062c0:	3308      	adds	r3, #8
 80062c2:	9303      	str	r3, [sp, #12]
 80062c4:	9b09      	ldr	r3, [sp, #36]	; 0x24
 80062c6:	444b      	add	r3, r9
 80062c8:	9309      	str	r3, [sp, #36]	; 0x24
 80062ca:	e76d      	b.n	80061a8 <_svfiprintf_r+0x48>
 80062cc:	fb00 3202 	mla	r2, r0, r2, r3
 80062d0:	2101      	movs	r1, #1
 80062d2:	e7a4      	b.n	800621e <_svfiprintf_r+0xbe>
 80062d4:	2300      	movs	r3, #0
 80062d6:	240a      	movs	r4, #10
 80062d8:	4618      	mov	r0, r3
 80062da:	9305      	str	r3, [sp, #20]
 80062dc:	460f      	mov	r7, r1
 80062de:	783a      	ldrb	r2, [r7, #0]
 80062e0:	3101      	adds	r1, #1
 80062e2:	3a30      	subs	r2, #48	; 0x30
 80062e4:	2a09      	cmp	r2, #9
 80062e6:	d903      	bls.n	80062f0 <_svfiprintf_r+0x190>
 80062e8:	2b00      	cmp	r3, #0
 80062ea:	d0ca      	beq.n	8006282 <_svfiprintf_r+0x122>
 80062ec:	9005      	str	r0, [sp, #20]
 80062ee:	e7c8      	b.n	8006282 <_svfiprintf_r+0x122>
 80062f0:	fb04 2000 	mla	r0, r4, r0, r2
 80062f4:	2301      	movs	r3, #1
 80062f6:	e7f1      	b.n	80062dc <_svfiprintf_r+0x17c>
 80062f8:	ab03      	add	r3, sp, #12
 80062fa:	9300      	str	r3, [sp, #0]
 80062fc:	462a      	mov	r2, r5
 80062fe:	4b11      	ldr	r3, [pc, #68]	; (8006344 <_svfiprintf_r+0x1e4>)
 8006300:	a904      	add	r1, sp, #16
 8006302:	4640      	mov	r0, r8
 8006304:	f3af 8000 	nop.w
 8006308:	f1b0 3fff 	cmp.w	r0, #4294967295
 800630c:	4681      	mov	r9, r0
 800630e:	d1d9      	bne.n	80062c4 <_svfiprintf_r+0x164>
 8006310:	89ab      	ldrh	r3, [r5, #12]
 8006312:	065b      	lsls	r3, r3, #25
 8006314:	f53f af39 	bmi.w	800618a <_svfiprintf_r+0x2a>
 8006318:	9809      	ldr	r0, [sp, #36]	; 0x24
 800631a:	b01d      	add	sp, #116	; 0x74
 800631c:	e8bd 8ff0 	ldmia.w	sp!, {r4, r5, r6, r7, r8, r9, sl, fp, pc}
 8006320:	ab03      	add	r3, sp, #12
 8006322:	9300      	str	r3, [sp, #0]
 8006324:	462a      	mov	r2, r5
 8006326:	4b07      	ldr	r3, [pc, #28]	; (8006344 <_svfiprintf_r+0x1e4>)
 8006328:	a904      	add	r1, sp, #16
 800632a:	4640      	mov	r0, r8
 800632c:	f000 f9c2 	bl	80066b4 <_printf_i>
 8006330:	e7ea      	b.n	8006308 <_svfiprintf_r+0x1a8>
 8006332:	bf00      	nop
 8006334:	08007cac 	.word	0x08007cac
 8006338:	08007cb2 	.word	0x08007cb2
 800633c:	08007cb6 	.word	0x08007cb6
 8006340:	00000000 	.word	0x00000000
 8006344:	080060a9 	.word	0x080060a9

08006348 <__sfputc_r>:
 8006348:	6893      	ldr	r3, [r2, #8]
 800634a:	b410      	push	{r4}
 800634c:	3b01      	subs	r3, #1
 800634e:	2b00      	cmp	r3, #0
 8006350:	6093      	str	r3, [r2, #8]
 8006352:	da08      	bge.n	8006366 <__sfputc_r+0x1e>
 8006354:	6994      	ldr	r4, [r2, #24]
 8006356:	42a3      	cmp	r3, r4
 8006358:	db02      	blt.n	8006360 <__sfputc_r+0x18>
 800635a:	b2cb      	uxtb	r3, r1
 800635c:	2b0a      	cmp	r3, #10
 800635e:	d102      	bne.n	8006366 <__sfputc_r+0x1e>
 8006360:	bc10      	pop	{r4}
 8006362:	f7ff bb57 	b.w	8005a14 <__swbuf_r>
 8006366:	6813      	ldr	r3, [r2, #0]
 8006368:	1c58      	adds	r0, r3, #1
 800636a:	6010      	str	r0, [r2, #0]
 800636c:	7019      	strb	r1, [r3, #0]
 800636e:	b2c8      	uxtb	r0, r1
 8006370:	bc10      	pop	{r4}
 8006372:	4770      	bx	lr

08006374 <__sfputs_r>:
 8006374:	b5f8      	push	{r3, r4, r5, r6, r7, lr}
 8006376:	4606      	mov	r6, r0
 8006378:	460f      	mov	r7, r1
 800637a:	4614      	mov	r4, r2
 800637c:	18d5      	adds	r5, r2, r3
 800637e:	42ac      	cmp	r4, r5
 8006380:	d101      	bne.n	8006386 <__sfputs_r+0x12>
 8006382:	2000      	movs	r0, #0
 8006384:	e007      	b.n	8006396 <__sfputs_r+0x22>
 8006386:	463a      	mov	r2, r7
 8006388:	f814 1b01 	ldrb.w	r1, [r4], #1
 800638c:	4630      	mov	r0, r6
 800638e:	f7ff ffdb 	bl	8006348 <__sfputc_r>
 8006392:	1c43      	adds	r3, r0, #1
 8006394:	d1f3      	bne.n	800637e <__sfputs_r+0xa>
 8006396:	bdf8      	pop	{r3, r4, r5, r6, r7, pc}

08006398 <_vfiprintf_r>:
 8006398:	e92d 4ff0 	stmdb	sp!, {r4, r5, r6, r7, r8, r9, sl, fp, lr}
 800639c:	b09d      	sub	sp, #116	; 0x74
 800639e:	460c      	mov	r4, r1
 80063a0:	4617      	mov	r7, r2
 80063a2:	9303      	str	r3, [sp, #12]
 80063a4:	4606      	mov	r6, r0
 80063a6:	b118      	cbz	r0, 80063b0 <_vfiprintf_r+0x18>
 80063a8:	6983      	ldr	r3, [r0, #24]
 80063aa:	b90b      	cbnz	r3, 80063b0 <_vfiprintf_r+0x18>
 80063ac:	f7ff fce4 	bl	8005d78 <__sinit>
 80063b0:	4b7c      	ldr	r3, [pc, #496]	; (80065a4 <_vfiprintf_r+0x20c>)
 80063b2:	429c      	cmp	r4, r3
 80063b4:	d157      	bne.n	8006466 <_vfiprintf_r+0xce>
 80063b6:	6874      	ldr	r4, [r6, #4]
 80063b8:	89a3      	ldrh	r3, [r4, #12]
 80063ba:	0718      	lsls	r0, r3, #28
 80063bc:	d55d      	bpl.n	800647a <_vfiprintf_r+0xe2>
 80063be:	6923      	ldr	r3, [r4, #16]
 80063c0:	2b00      	cmp	r3, #0
 80063c2:	d05a      	beq.n	800647a <_vfiprintf_r+0xe2>
 80063c4:	2300      	movs	r3, #0
 80063c6:	9309      	str	r3, [sp, #36]	; 0x24
 80063c8:	2320      	movs	r3, #32
 80063ca:	f88d 3029 	strb.w	r3, [sp, #41]	; 0x29
 80063ce:	2330      	movs	r3, #48	; 0x30
 80063d0:	f04f 0b01 	mov.w	fp, #1
 80063d4:	f88d 302a 	strb.w	r3, [sp, #42]	; 0x2a
 80063d8:	46b8      	mov	r8, r7
 80063da:	4645      	mov	r5, r8
 80063dc:	f815 3b01 	ldrb.w	r3, [r5], #1
 80063e0:	2b00      	cmp	r3, #0
 80063e2:	d155      	bne.n	8006490 <_vfiprintf_r+0xf8>
 80063e4:	ebb8 0a07 	subs.w	sl, r8, r7
 80063e8:	d00b      	beq.n	8006402 <_vfiprintf_r+0x6a>
 80063ea:	4653      	mov	r3, sl
 80063ec:	463a      	mov	r2, r7
 80063ee:	4621      	mov	r1, r4
 80063f0:	4630      	mov	r0, r6
 80063f2:	f7ff ffbf 	bl	8006374 <__sfputs_r>
 80063f6:	3001      	adds	r0, #1
 80063f8:	f000 80c4 	beq.w	8006584 <_vfiprintf_r+0x1ec>
 80063fc:	9b09      	ldr	r3, [sp, #36]	; 0x24
 80063fe:	4453      	add	r3, sl
 8006400:	9309      	str	r3, [sp, #36]	; 0x24
 8006402:	f898 3000 	ldrb.w	r3, [r8]
 8006406:	2b00      	cmp	r3, #0
 8006408:	f000 80bc 	beq.w	8006584 <_vfiprintf_r+0x1ec>
 800640c:	2300      	movs	r3, #0
 800640e:	f04f 32ff 	mov.w	r2, #4294967295
 8006412:	9304      	str	r3, [sp, #16]
 8006414:	9307      	str	r3, [sp, #28]
 8006416:	9205      	str	r2, [sp, #20]
 8006418:	9306      	str	r3, [sp, #24]
 800641a:	f88d 3053 	strb.w	r3, [sp, #83]	; 0x53
 800641e:	931a      	str	r3, [sp, #104]	; 0x68
 8006420:	2205      	movs	r2, #5
 8006422:	7829      	ldrb	r1, [r5, #0]
 8006424:	4860      	ldr	r0, [pc, #384]	; (80065a8 <_vfiprintf_r+0x210>)
 8006426:	f000 fb0f 	bl	8006a48 <memchr>
 800642a:	f105 0801 	add.w	r8, r5, #1
 800642e:	9b04      	ldr	r3, [sp, #16]
 8006430:	2800      	cmp	r0, #0
 8006432:	d131      	bne.n	8006498 <_vfiprintf_r+0x100>
 8006434:	06d9      	lsls	r1, r3, #27
 8006436:	bf44      	itt	mi
 8006438:	2220      	movmi	r2, #32
 800643a:	f88d 2053 	strbmi.w	r2, [sp, #83]	; 0x53
 800643e:	071a      	lsls	r2, r3, #28
 8006440:	bf44      	itt	mi
 8006442:	222b      	movmi	r2, #43	; 0x2b
 8006444:	f88d 2053 	strbmi.w	r2, [sp, #83]	; 0x53
 8006448:	782a      	ldrb	r2, [r5, #0]
 800644a:	2a2a      	cmp	r2, #42	; 0x2a
 800644c:	d02c      	beq.n	80064a8 <_vfiprintf_r+0x110>
 800644e:	2100      	movs	r1, #0
 8006450:	200a      	movs	r0, #10
 8006452:	9a07      	ldr	r2, [sp, #28]
 8006454:	46a8      	mov	r8, r5
 8006456:	f898 3000 	ldrb.w	r3, [r8]
 800645a:	3501      	adds	r5, #1
 800645c:	3b30      	subs	r3, #48	; 0x30
 800645e:	2b09      	cmp	r3, #9
 8006460:	d96d      	bls.n	800653e <_vfiprintf_r+0x1a6>
 8006462:	b371      	cbz	r1, 80064c2 <_vfiprintf_r+0x12a>
 8006464:	e026      	b.n	80064b4 <_vfiprintf_r+0x11c>
 8006466:	4b51      	ldr	r3, [pc, #324]	; (80065ac <_vfiprintf_r+0x214>)
 8006468:	429c      	cmp	r4, r3
 800646a:	d101      	bne.n	8006470 <_vfiprintf_r+0xd8>
 800646c:	68b4      	ldr	r4, [r6, #8]
 800646e:	e7a3      	b.n	80063b8 <_vfiprintf_r+0x20>
 8006470:	4b4f      	ldr	r3, [pc, #316]	; (80065b0 <_vfiprintf_r+0x218>)
 8006472:	429c      	cmp	r4, r3
 8006474:	bf08      	it	eq
 8006476:	68f4      	ldreq	r4, [r6, #12]
 8006478:	e79e      	b.n	80063b8 <_vfiprintf_r+0x20>
 800647a:	4621      	mov	r1, r4
 800647c:	4630      	mov	r0, r6
 800647e:	f7ff fb1b 	bl	8005ab8 <__swsetup_r>
 8006482:	2800      	cmp	r0, #0
 8006484:	d09e      	beq.n	80063c4 <_vfiprintf_r+0x2c>
 8006486:	f04f 30ff 	mov.w	r0, #4294967295
 800648a:	b01d      	add	sp, #116	; 0x74
 800648c:	e8bd 8ff0 	ldmia.w	sp!, {r4, r5, r6, r7, r8, r9, sl, fp, pc}
 8006490:	2b25      	cmp	r3, #37	; 0x25
 8006492:	d0a7      	beq.n	80063e4 <_vfiprintf_r+0x4c>
 8006494:	46a8      	mov	r8, r5
 8006496:	e7a0      	b.n	80063da <_vfiprintf_r+0x42>
 8006498:	4a43      	ldr	r2, [pc, #268]	; (80065a8 <_vfiprintf_r+0x210>)
 800649a:	4645      	mov	r5, r8
 800649c:	1a80      	subs	r0, r0, r2
 800649e:	fa0b f000 	lsl.w	r0, fp, r0
 80064a2:	4318      	orrs	r0, r3
 80064a4:	9004      	str	r0, [sp, #16]
 80064a6:	e7bb      	b.n	8006420 <_vfiprintf_r+0x88>
 80064a8:	9a03      	ldr	r2, [sp, #12]
 80064aa:	1d11      	adds	r1, r2, #4
 80064ac:	6812      	ldr	r2, [r2, #0]
 80064ae:	9103      	str	r1, [sp, #12]
 80064b0:	2a00      	cmp	r2, #0
 80064b2:	db01      	blt.n	80064b8 <_vfiprintf_r+0x120>
 80064b4:	9207      	str	r2, [sp, #28]
 80064b6:	e004      	b.n	80064c2 <_vfiprintf_r+0x12a>
 80064b8:	4252      	negs	r2, r2
 80064ba:	f043 0302 	orr.w	r3, r3, #2
 80064be:	9207      	str	r2, [sp, #28]
 80064c0:	9304      	str	r3, [sp, #16]
 80064c2:	f898 3000 	ldrb.w	r3, [r8]
 80064c6:	2b2e      	cmp	r3, #46	; 0x2e
 80064c8:	d110      	bne.n	80064ec <_vfiprintf_r+0x154>
 80064ca:	f898 3001 	ldrb.w	r3, [r8, #1]
 80064ce:	f108 0101 	add.w	r1, r8, #1
 80064d2:	2b2a      	cmp	r3, #42	; 0x2a
 80064d4:	d137      	bne.n	8006546 <_vfiprintf_r+0x1ae>
 80064d6:	9b03      	ldr	r3, [sp, #12]
 80064d8:	f108 0802 	add.w	r8, r8, #2
 80064dc:	1d1a      	adds	r2, r3, #4
 80064de:	681b      	ldr	r3, [r3, #0]
 80064e0:	9203      	str	r2, [sp, #12]
 80064e2:	2b00      	cmp	r3, #0
 80064e4:	bfb8      	it	lt
 80064e6:	f04f 33ff 	movlt.w	r3, #4294967295
 80064ea:	9305      	str	r3, [sp, #20]
 80064ec:	4d31      	ldr	r5, [pc, #196]	; (80065b4 <_vfiprintf_r+0x21c>)
 80064ee:	2203      	movs	r2, #3
 80064f0:	f898 1000 	ldrb.w	r1, [r8]
 80064f4:	4628      	mov	r0, r5
 80064f6:	f000 faa7 	bl	8006a48 <memchr>
 80064fa:	b140      	cbz	r0, 800650e <_vfiprintf_r+0x176>
 80064fc:	2340      	movs	r3, #64	; 0x40
 80064fe:	1b40      	subs	r0, r0, r5
 8006500:	fa03 f000 	lsl.w	r0, r3, r0
 8006504:	9b04      	ldr	r3, [sp, #16]
 8006506:	f108 0801 	add.w	r8, r8, #1
 800650a:	4303      	orrs	r3, r0
 800650c:	9304      	str	r3, [sp, #16]
 800650e:	f898 1000 	ldrb.w	r1, [r8]
 8006512:	2206      	movs	r2, #6
 8006514:	4828      	ldr	r0, [pc, #160]	; (80065b8 <_vfiprintf_r+0x220>)
 8006516:	f108 0701 	add.w	r7, r8, #1
 800651a:	f88d 1028 	strb.w	r1, [sp, #40]	; 0x28
 800651e:	f000 fa93 	bl	8006a48 <memchr>
 8006522:	2800      	cmp	r0, #0
 8006524:	d034      	beq.n	8006590 <_vfiprintf_r+0x1f8>
 8006526:	4b25      	ldr	r3, [pc, #148]	; (80065bc <_vfiprintf_r+0x224>)
 8006528:	bb03      	cbnz	r3, 800656c <_vfiprintf_r+0x1d4>
 800652a:	9b03      	ldr	r3, [sp, #12]
 800652c:	3307      	adds	r3, #7
 800652e:	f023 0307 	bic.w	r3, r3, #7
 8006532:	3308      	adds	r3, #8
 8006534:	9303      	str	r3, [sp, #12]
 8006536:	9b09      	ldr	r3, [sp, #36]	; 0x24
 8006538:	444b      	add	r3, r9
 800653a:	9309      	str	r3, [sp, #36]	; 0x24
 800653c:	e74c      	b.n	80063d8 <_vfiprintf_r+0x40>
 800653e:	fb00 3202 	mla	r2, r0, r2, r3
 8006542:	2101      	movs	r1, #1
 8006544:	e786      	b.n	8006454 <_vfiprintf_r+0xbc>
 8006546:	2300      	movs	r3, #0
 8006548:	250a      	movs	r5, #10
 800654a:	4618      	mov	r0, r3
 800654c:	9305      	str	r3, [sp, #20]
 800654e:	4688      	mov	r8, r1
 8006550:	f898 2000 	ldrb.w	r2, [r8]
 8006554:	3101      	adds	r1, #1
 8006556:	3a30      	subs	r2, #48	; 0x30
 8006558:	2a09      	cmp	r2, #9
 800655a:	d903      	bls.n	8006564 <_vfiprintf_r+0x1cc>
 800655c:	2b00      	cmp	r3, #0
 800655e:	d0c5      	beq.n	80064ec <_vfiprintf_r+0x154>
 8006560:	9005      	str	r0, [sp, #20]
 8006562:	e7c3      	b.n	80064ec <_vfiprintf_r+0x154>
 8006564:	fb05 2000 	mla	r0, r5, r0, r2
 8006568:	2301      	movs	r3, #1
 800656a:	e7f0      	b.n	800654e <_vfiprintf_r+0x1b6>
 800656c:	ab03      	add	r3, sp, #12
 800656e:	9300      	str	r3, [sp, #0]
 8006570:	4622      	mov	r2, r4
 8006572:	4b13      	ldr	r3, [pc, #76]	; (80065c0 <_vfiprintf_r+0x228>)
 8006574:	a904      	add	r1, sp, #16
 8006576:	4630      	mov	r0, r6
 8006578:	f3af 8000 	nop.w
 800657c:	f1b0 3fff 	cmp.w	r0, #4294967295
 8006580:	4681      	mov	r9, r0
 8006582:	d1d8      	bne.n	8006536 <_vfiprintf_r+0x19e>
 8006584:	89a3      	ldrh	r3, [r4, #12]
 8006586:	065b      	lsls	r3, r3, #25
 8006588:	f53f af7d 	bmi.w	8006486 <_vfiprintf_r+0xee>
 800658c:	9809      	ldr	r0, [sp, #36]	; 0x24
 800658e:	e77c      	b.n	800648a <_vfiprintf_r+0xf2>
 8006590:	ab03      	add	r3, sp, #12
 8006592:	9300      	str	r3, [sp, #0]
 8006594:	4622      	mov	r2, r4
 8006596:	4b0a      	ldr	r3, [pc, #40]	; (80065c0 <_vfiprintf_r+0x228>)
 8006598:	a904      	add	r1, sp, #16
 800659a:	4630      	mov	r0, r6
 800659c:	f000 f88a 	bl	80066b4 <_printf_i>
 80065a0:	e7ec      	b.n	800657c <_vfiprintf_r+0x1e4>
 80065a2:	bf00      	nop
 80065a4:	08007c6c 	.word	0x08007c6c
 80065a8:	08007cac 	.word	0x08007cac
 80065ac:	08007c8c 	.word	0x08007c8c
 80065b0:	08007c4c 	.word	0x08007c4c
 80065b4:	08007cb2 	.word	0x08007cb2
 80065b8:	08007cb6 	.word	0x08007cb6
 80065bc:	00000000 	.word	0x00000000
 80065c0:	08006375 	.word	0x08006375

080065c4 <_printf_common>:
 80065c4:	e92d 47f0 	stmdb	sp!, {r4, r5, r6, r7, r8, r9, sl, lr}
 80065c8:	4691      	mov	r9, r2
 80065ca:	461f      	mov	r7, r3
 80065cc:	688a      	ldr	r2, [r1, #8]
 80065ce:	690b      	ldr	r3, [r1, #16]
 80065d0:	4606      	mov	r6, r0
 80065d2:	4293      	cmp	r3, r2
 80065d4:	bfb8      	it	lt
 80065d6:	4613      	movlt	r3, r2
 80065d8:	f8c9 3000 	str.w	r3, [r9]
 80065dc:	f891 2043 	ldrb.w	r2, [r1, #67]	; 0x43
 80065e0:	460c      	mov	r4, r1
 80065e2:	f8dd 8020 	ldr.w	r8, [sp, #32]
 80065e6:	b112      	cbz	r2, 80065ee <_printf_common+0x2a>
 80065e8:	3301      	adds	r3, #1
 80065ea:	f8c9 3000 	str.w	r3, [r9]
 80065ee:	6823      	ldr	r3, [r4, #0]
 80065f0:	0699      	lsls	r1, r3, #26
 80065f2:	bf42      	ittt	mi
 80065f4:	f8d9 3000 	ldrmi.w	r3, [r9]
 80065f8:	3302      	addmi	r3, #2
 80065fa:	f8c9 3000 	strmi.w	r3, [r9]
 80065fe:	6825      	ldr	r5, [r4, #0]
 8006600:	f015 0506 	ands.w	r5, r5, #6
 8006604:	d107      	bne.n	8006616 <_printf_common+0x52>
 8006606:	f104 0a19 	add.w	sl, r4, #25
 800660a:	68e3      	ldr	r3, [r4, #12]
 800660c:	f8d9 2000 	ldr.w	r2, [r9]
 8006610:	1a9b      	subs	r3, r3, r2
 8006612:	429d      	cmp	r5, r3
 8006614:	db2a      	blt.n	800666c <_printf_common+0xa8>
 8006616:	f894 3043 	ldrb.w	r3, [r4, #67]	; 0x43
 800661a:	6822      	ldr	r2, [r4, #0]
 800661c:	3300      	adds	r3, #0
 800661e:	bf18      	it	ne
 8006620:	2301      	movne	r3, #1
 8006622:	0692      	lsls	r2, r2, #26
 8006624:	d42f      	bmi.n	8006686 <_printf_common+0xc2>
 8006626:	f104 0243 	add.w	r2, r4, #67	; 0x43
 800662a:	4639      	mov	r1, r7
 800662c:	4630      	mov	r0, r6
 800662e:	47c0      	blx	r8
 8006630:	3001      	adds	r0, #1
 8006632:	d022      	beq.n	800667a <_printf_common+0xb6>
 8006634:	6823      	ldr	r3, [r4, #0]
 8006636:	68e5      	ldr	r5, [r4, #12]
 8006638:	f003 0306 	and.w	r3, r3, #6
 800663c:	2b04      	cmp	r3, #4
 800663e:	bf18      	it	ne
 8006640:	2500      	movne	r5, #0
 8006642:	f8d9 2000 	ldr.w	r2, [r9]
 8006646:	f04f 0900 	mov.w	r9, #0
 800664a:	bf08      	it	eq
 800664c:	1aad      	subeq	r5, r5, r2
 800664e:	68a3      	ldr	r3, [r4, #8]
 8006650:	6922      	ldr	r2, [r4, #16]
 8006652:	bf08      	it	eq
 8006654:	ea25 75e5 	biceq.w	r5, r5, r5, asr #31
 8006658:	4293      	cmp	r3, r2
 800665a:	bfc4      	itt	gt
 800665c:	1a9b      	subgt	r3, r3, r2
 800665e:	18ed      	addgt	r5, r5, r3
 8006660:	341a      	adds	r4, #26
 8006662:	454d      	cmp	r5, r9
 8006664:	d11b      	bne.n	800669e <_printf_common+0xda>
 8006666:	2000      	movs	r0, #0
 8006668:	e8bd 87f0 	ldmia.w	sp!, {r4, r5, r6, r7, r8, r9, sl, pc}
 800666c:	2301      	movs	r3, #1
 800666e:	4652      	mov	r2, sl
 8006670:	4639      	mov	r1, r7
 8006672:	4630      	mov	r0, r6
 8006674:	47c0      	blx	r8
 8006676:	3001      	adds	r0, #1
 8006678:	d103      	bne.n	8006682 <_printf_common+0xbe>
 800667a:	f04f 30ff 	mov.w	r0, #4294967295
 800667e:	e8bd 87f0 	ldmia.w	sp!, {r4, r5, r6, r7, r8, r9, sl, pc}
 8006682:	3501      	adds	r5, #1
 8006684:	e7c1      	b.n	800660a <_printf_common+0x46>
 8006686:	2030      	movs	r0, #48	; 0x30
 8006688:	18e1      	adds	r1, r4, r3
 800668a:	f881 0043 	strb.w	r0, [r1, #67]	; 0x43
 800668e:	1c5a      	adds	r2, r3, #1
 8006690:	f894 1045 	ldrb.w	r1, [r4, #69]	; 0x45
 8006694:	4422      	add	r2, r4
 8006696:	3302      	adds	r3, #2
 8006698:	f882 1043 	strb.w	r1, [r2, #67]	; 0x43
 800669c:	e7c3      	b.n	8006626 <_printf_common+0x62>
 800669e:	2301      	movs	r3, #1
 80066a0:	4622      	mov	r2, r4
 80066a2:	4639      	mov	r1, r7
 80066a4:	4630      	mov	r0, r6
 80066a6:	47c0      	blx	r8
 80066a8:	3001      	adds	r0, #1
 80066aa:	d0e6      	beq.n	800667a <_printf_common+0xb6>
 80066ac:	f109 0901 	add.w	r9, r9, #1
 80066b0:	e7d7      	b.n	8006662 <_printf_common+0x9e>
	...

080066b4 <_printf_i>:
 80066b4:	e92d 43f0 	stmdb	sp!, {r4, r5, r6, r7, r8, r9, lr}
 80066b8:	4617      	mov	r7, r2
 80066ba:	7e0a      	ldrb	r2, [r1, #24]
 80066bc:	b085      	sub	sp, #20
 80066be:	2a6e      	cmp	r2, #110	; 0x6e
 80066c0:	4698      	mov	r8, r3
 80066c2:	4606      	mov	r6, r0
 80066c4:	460c      	mov	r4, r1
 80066c6:	9b0c      	ldr	r3, [sp, #48]	; 0x30
 80066c8:	f101 0e43 	add.w	lr, r1, #67	; 0x43
 80066cc:	f000 80bc 	beq.w	8006848 <_printf_i+0x194>
 80066d0:	d81a      	bhi.n	8006708 <_printf_i+0x54>
 80066d2:	2a63      	cmp	r2, #99	; 0x63
 80066d4:	d02e      	beq.n	8006734 <_printf_i+0x80>
 80066d6:	d80a      	bhi.n	80066ee <_printf_i+0x3a>
 80066d8:	2a00      	cmp	r2, #0
 80066da:	f000 80c8 	beq.w	800686e <_printf_i+0x1ba>
 80066de:	2a58      	cmp	r2, #88	; 0x58
 80066e0:	f000 808a 	beq.w	80067f8 <_printf_i+0x144>
 80066e4:	f104 0542 	add.w	r5, r4, #66	; 0x42
 80066e8:	f884 2042 	strb.w	r2, [r4, #66]	; 0x42
 80066ec:	e02a      	b.n	8006744 <_printf_i+0x90>
 80066ee:	2a64      	cmp	r2, #100	; 0x64
 80066f0:	d001      	beq.n	80066f6 <_printf_i+0x42>
 80066f2:	2a69      	cmp	r2, #105	; 0x69
 80066f4:	d1f6      	bne.n	80066e4 <_printf_i+0x30>
 80066f6:	6821      	ldr	r1, [r4, #0]
 80066f8:	681a      	ldr	r2, [r3, #0]
 80066fa:	f011 0f80 	tst.w	r1, #128	; 0x80
 80066fe:	d023      	beq.n	8006748 <_printf_i+0x94>
 8006700:	1d11      	adds	r1, r2, #4
 8006702:	6019      	str	r1, [r3, #0]
 8006704:	6813      	ldr	r3, [r2, #0]
 8006706:	e027      	b.n	8006758 <_printf_i+0xa4>
 8006708:	2a73      	cmp	r2, #115	; 0x73
 800670a:	f000 80b4 	beq.w	8006876 <_printf_i+0x1c2>
 800670e:	d808      	bhi.n	8006722 <_printf_i+0x6e>
 8006710:	2a6f      	cmp	r2, #111	; 0x6f
 8006712:	d02a      	beq.n	800676a <_printf_i+0xb6>
 8006714:	2a70      	cmp	r2, #112	; 0x70
 8006716:	d1e5      	bne.n	80066e4 <_printf_i+0x30>
 8006718:	680a      	ldr	r2, [r1, #0]
 800671a:	f042 0220 	orr.w	r2, r2, #32
 800671e:	600a      	str	r2, [r1, #0]
 8006720:	e003      	b.n	800672a <_printf_i+0x76>
 8006722:	2a75      	cmp	r2, #117	; 0x75
 8006724:	d021      	beq.n	800676a <_printf_i+0xb6>
 8006726:	2a78      	cmp	r2, #120	; 0x78
 8006728:	d1dc      	bne.n	80066e4 <_printf_i+0x30>
 800672a:	2278      	movs	r2, #120	; 0x78
 800672c:	496f      	ldr	r1, [pc, #444]	; (80068ec <_printf_i+0x238>)
 800672e:	f884 2045 	strb.w	r2, [r4, #69]	; 0x45
 8006732:	e064      	b.n	80067fe <_printf_i+0x14a>
 8006734:	681a      	ldr	r2, [r3, #0]
 8006736:	f101 0542 	add.w	r5, r1, #66	; 0x42
 800673a:	1d11      	adds	r1, r2, #4
 800673c:	6019      	str	r1, [r3, #0]
 800673e:	6813      	ldr	r3, [r2, #0]
 8006740:	f884 3042 	strb.w	r3, [r4, #66]	; 0x42
 8006744:	2301      	movs	r3, #1
 8006746:	e0a3      	b.n	8006890 <_printf_i+0x1dc>
 8006748:	f011 0f40 	tst.w	r1, #64	; 0x40
 800674c:	f102 0104 	add.w	r1, r2, #4
 8006750:	6019      	str	r1, [r3, #0]
 8006752:	d0d7      	beq.n	8006704 <_printf_i+0x50>
 8006754:	f9b2 3000 	ldrsh.w	r3, [r2]
 8006758:	2b00      	cmp	r3, #0
 800675a:	da03      	bge.n	8006764 <_printf_i+0xb0>
 800675c:	222d      	movs	r2, #45	; 0x2d
 800675e:	425b      	negs	r3, r3
 8006760:	f884 2043 	strb.w	r2, [r4, #67]	; 0x43
 8006764:	4962      	ldr	r1, [pc, #392]	; (80068f0 <_printf_i+0x23c>)
 8006766:	220a      	movs	r2, #10
 8006768:	e017      	b.n	800679a <_printf_i+0xe6>
 800676a:	6820      	ldr	r0, [r4, #0]
 800676c:	6819      	ldr	r1, [r3, #0]
 800676e:	f010 0f80 	tst.w	r0, #128	; 0x80
 8006772:	d003      	beq.n	800677c <_printf_i+0xc8>
 8006774:	1d08      	adds	r0, r1, #4
 8006776:	6018      	str	r0, [r3, #0]
 8006778:	680b      	ldr	r3, [r1, #0]
 800677a:	e006      	b.n	800678a <_printf_i+0xd6>
 800677c:	f010 0f40 	tst.w	r0, #64	; 0x40
 8006780:	f101 0004 	add.w	r0, r1, #4
 8006784:	6018      	str	r0, [r3, #0]
 8006786:	d0f7      	beq.n	8006778 <_printf_i+0xc4>
 8006788:	880b      	ldrh	r3, [r1, #0]
 800678a:	2a6f      	cmp	r2, #111	; 0x6f
 800678c:	bf14      	ite	ne
 800678e:	220a      	movne	r2, #10
 8006790:	2208      	moveq	r2, #8
 8006792:	4957      	ldr	r1, [pc, #348]	; (80068f0 <_printf_i+0x23c>)
 8006794:	2000      	movs	r0, #0
 8006796:	f884 0043 	strb.w	r0, [r4, #67]	; 0x43
 800679a:	6865      	ldr	r5, [r4, #4]
 800679c:	2d00      	cmp	r5, #0
 800679e:	60a5      	str	r5, [r4, #8]
 80067a0:	f2c0 809c 	blt.w	80068dc <_printf_i+0x228>
 80067a4:	6820      	ldr	r0, [r4, #0]
 80067a6:	f020 0004 	bic.w	r0, r0, #4
 80067aa:	6020      	str	r0, [r4, #0]
 80067ac:	2b00      	cmp	r3, #0
 80067ae:	d13f      	bne.n	8006830 <_printf_i+0x17c>
 80067b0:	2d00      	cmp	r5, #0
 80067b2:	f040 8095 	bne.w	80068e0 <_printf_i+0x22c>
 80067b6:	4675      	mov	r5, lr
 80067b8:	2a08      	cmp	r2, #8
 80067ba:	d10b      	bne.n	80067d4 <_printf_i+0x120>
 80067bc:	6823      	ldr	r3, [r4, #0]
 80067be:	07da      	lsls	r2, r3, #31
 80067c0:	d508      	bpl.n	80067d4 <_printf_i+0x120>
 80067c2:	6923      	ldr	r3, [r4, #16]
 80067c4:	6862      	ldr	r2, [r4, #4]
 80067c6:	429a      	cmp	r2, r3
 80067c8:	bfde      	ittt	le
 80067ca:	2330      	movle	r3, #48	; 0x30
 80067cc:	f805 3c01 	strble.w	r3, [r5, #-1]
 80067d0:	f105 35ff 	addle.w	r5, r5, #4294967295
 80067d4:	ebae 0305 	sub.w	r3, lr, r5
 80067d8:	6123      	str	r3, [r4, #16]
 80067da:	f8cd 8000 	str.w	r8, [sp]
 80067de:	463b      	mov	r3, r7
 80067e0:	aa03      	add	r2, sp, #12
 80067e2:	4621      	mov	r1, r4
 80067e4:	4630      	mov	r0, r6
 80067e6:	f7ff feed 	bl	80065c4 <_printf_common>
 80067ea:	3001      	adds	r0, #1
 80067ec:	d155      	bne.n	800689a <_printf_i+0x1e6>
 80067ee:	f04f 30ff 	mov.w	r0, #4294967295
 80067f2:	b005      	add	sp, #20
 80067f4:	e8bd 83f0 	ldmia.w	sp!, {r4, r5, r6, r7, r8, r9, pc}
 80067f8:	f881 2045 	strb.w	r2, [r1, #69]	; 0x45
 80067fc:	493c      	ldr	r1, [pc, #240]	; (80068f0 <_printf_i+0x23c>)
 80067fe:	6822      	ldr	r2, [r4, #0]
 8006800:	6818      	ldr	r0, [r3, #0]
 8006802:	f012 0f80 	tst.w	r2, #128	; 0x80
 8006806:	f100 0504 	add.w	r5, r0, #4
 800680a:	601d      	str	r5, [r3, #0]
 800680c:	d001      	beq.n	8006812 <_printf_i+0x15e>
 800680e:	6803      	ldr	r3, [r0, #0]
 8006810:	e002      	b.n	8006818 <_printf_i+0x164>
 8006812:	0655      	lsls	r5, r2, #25
 8006814:	d5fb      	bpl.n	800680e <_printf_i+0x15a>
 8006816:	8803      	ldrh	r3, [r0, #0]
 8006818:	07d0      	lsls	r0, r2, #31
 800681a:	bf44      	itt	mi
 800681c:	f042 0220 	orrmi.w	r2, r2, #32
 8006820:	6022      	strmi	r2, [r4, #0]
 8006822:	b91b      	cbnz	r3, 800682c <_printf_i+0x178>
 8006824:	6822      	ldr	r2, [r4, #0]
 8006826:	f022 0220 	bic.w	r2, r2, #32
 800682a:	6022      	str	r2, [r4, #0]
 800682c:	2210      	movs	r2, #16
 800682e:	e7b1      	b.n	8006794 <_printf_i+0xe0>
 8006830:	4675      	mov	r5, lr
 8006832:	fbb3 f0f2 	udiv	r0, r3, r2
 8006836:	fb02 3310 	mls	r3, r2, r0, r3
 800683a:	5ccb      	ldrb	r3, [r1, r3]
 800683c:	f805 3d01 	strb.w	r3, [r5, #-1]!
 8006840:	4603      	mov	r3, r0
 8006842:	2800      	cmp	r0, #0
 8006844:	d1f5      	bne.n	8006832 <_printf_i+0x17e>
 8006846:	e7b7      	b.n	80067b8 <_printf_i+0x104>
 8006848:	6808      	ldr	r0, [r1, #0]
 800684a:	681a      	ldr	r2, [r3, #0]
 800684c:	f010 0f80 	tst.w	r0, #128	; 0x80
 8006850:	6949      	ldr	r1, [r1, #20]
 8006852:	d004      	beq.n	800685e <_printf_i+0x1aa>
 8006854:	1d10      	adds	r0, r2, #4
 8006856:	6018      	str	r0, [r3, #0]
 8006858:	6813      	ldr	r3, [r2, #0]
 800685a:	6019      	str	r1, [r3, #0]
 800685c:	e007      	b.n	800686e <_printf_i+0x1ba>
 800685e:	f010 0f40 	tst.w	r0, #64	; 0x40
 8006862:	f102 0004 	add.w	r0, r2, #4
 8006866:	6018      	str	r0, [r3, #0]
 8006868:	6813      	ldr	r3, [r2, #0]
 800686a:	d0f6      	beq.n	800685a <_printf_i+0x1a6>
 800686c:	8019      	strh	r1, [r3, #0]
 800686e:	2300      	movs	r3, #0
 8006870:	4675      	mov	r5, lr
 8006872:	6123      	str	r3, [r4, #16]
 8006874:	e7b1      	b.n	80067da <_printf_i+0x126>
 8006876:	681a      	ldr	r2, [r3, #0]
 8006878:	1d11      	adds	r1, r2, #4
 800687a:	6019      	str	r1, [r3, #0]
 800687c:	6815      	ldr	r5, [r2, #0]
 800687e:	2100      	movs	r1, #0
 8006880:	6862      	ldr	r2, [r4, #4]
 8006882:	4628      	mov	r0, r5
 8006884:	f000 f8e0 	bl	8006a48 <memchr>
 8006888:	b108      	cbz	r0, 800688e <_printf_i+0x1da>
 800688a:	1b40      	subs	r0, r0, r5
 800688c:	6060      	str	r0, [r4, #4]
 800688e:	6863      	ldr	r3, [r4, #4]
 8006890:	6123      	str	r3, [r4, #16]
 8006892:	2300      	movs	r3, #0
 8006894:	f884 3043 	strb.w	r3, [r4, #67]	; 0x43
 8006898:	e79f      	b.n	80067da <_printf_i+0x126>
 800689a:	6923      	ldr	r3, [r4, #16]
 800689c:	462a      	mov	r2, r5
 800689e:	4639      	mov	r1, r7
 80068a0:	4630      	mov	r0, r6
 80068a2:	47c0      	blx	r8
 80068a4:	3001      	adds	r0, #1
 80068a6:	d0a2      	beq.n	80067ee <_printf_i+0x13a>
 80068a8:	6823      	ldr	r3, [r4, #0]
 80068aa:	079b      	lsls	r3, r3, #30
 80068ac:	d507      	bpl.n	80068be <_printf_i+0x20a>
 80068ae:	2500      	movs	r5, #0
 80068b0:	f104 0919 	add.w	r9, r4, #25
 80068b4:	68e3      	ldr	r3, [r4, #12]
 80068b6:	9a03      	ldr	r2, [sp, #12]
 80068b8:	1a9b      	subs	r3, r3, r2
 80068ba:	429d      	cmp	r5, r3
 80068bc:	db05      	blt.n	80068ca <_printf_i+0x216>
 80068be:	68e0      	ldr	r0, [r4, #12]
 80068c0:	9b03      	ldr	r3, [sp, #12]
 80068c2:	4298      	cmp	r0, r3
 80068c4:	bfb8      	it	lt
 80068c6:	4618      	movlt	r0, r3
 80068c8:	e793      	b.n	80067f2 <_printf_i+0x13e>
 80068ca:	2301      	movs	r3, #1
 80068cc:	464a      	mov	r2, r9
 80068ce:	4639      	mov	r1, r7
 80068d0:	4630      	mov	r0, r6
 80068d2:	47c0      	blx	r8
 80068d4:	3001      	adds	r0, #1
 80068d6:	d08a      	beq.n	80067ee <_printf_i+0x13a>
 80068d8:	3501      	adds	r5, #1
 80068da:	e7eb      	b.n	80068b4 <_printf_i+0x200>
 80068dc:	2b00      	cmp	r3, #0
 80068de:	d1a7      	bne.n	8006830 <_printf_i+0x17c>
 80068e0:	780b      	ldrb	r3, [r1, #0]
 80068e2:	f104 0542 	add.w	r5, r4, #66	; 0x42
 80068e6:	f884 3042 	strb.w	r3, [r4, #66]	; 0x42
 80068ea:	e765      	b.n	80067b8 <_printf_i+0x104>
 80068ec:	08007cce 	.word	0x08007cce
 80068f0:	08007cbd 	.word	0x08007cbd

080068f4 <_sbrk_r>:
 80068f4:	b538      	push	{r3, r4, r5, lr}
 80068f6:	2300      	movs	r3, #0
 80068f8:	4c05      	ldr	r4, [pc, #20]	; (8006910 <_sbrk_r+0x1c>)
 80068fa:	4605      	mov	r5, r0
 80068fc:	4608      	mov	r0, r1
 80068fe:	6023      	str	r3, [r4, #0]
 8006900:	f7fe ff30 	bl	8005764 <_sbrk>
 8006904:	1c43      	adds	r3, r0, #1
 8006906:	d102      	bne.n	800690e <_sbrk_r+0x1a>
 8006908:	6823      	ldr	r3, [r4, #0]
 800690a:	b103      	cbz	r3, 800690e <_sbrk_r+0x1a>
 800690c:	602b      	str	r3, [r5, #0]
 800690e:	bd38      	pop	{r3, r4, r5, pc}
 8006910:	200008d0 	.word	0x200008d0

08006914 <__sread>:
 8006914:	b510      	push	{r4, lr}
 8006916:	460c      	mov	r4, r1
 8006918:	f9b1 100e 	ldrsh.w	r1, [r1, #14]
 800691c:	f000 f8e4 	bl	8006ae8 <_read_r>
 8006920:	2800      	cmp	r0, #0
 8006922:	bfab      	itete	ge
 8006924:	6d63      	ldrge	r3, [r4, #84]	; 0x54
 8006926:	89a3      	ldrhlt	r3, [r4, #12]
 8006928:	181b      	addge	r3, r3, r0
 800692a:	f423 5380 	biclt.w	r3, r3, #4096	; 0x1000
 800692e:	bfac      	ite	ge
 8006930:	6563      	strge	r3, [r4, #84]	; 0x54
 8006932:	81a3      	strhlt	r3, [r4, #12]
 8006934:	bd10      	pop	{r4, pc}

08006936 <__swrite>:
 8006936:	e92d 41f0 	stmdb	sp!, {r4, r5, r6, r7, r8, lr}
 800693a:	461f      	mov	r7, r3
 800693c:	898b      	ldrh	r3, [r1, #12]
 800693e:	4605      	mov	r5, r0
 8006940:	05db      	lsls	r3, r3, #23
 8006942:	460c      	mov	r4, r1
 8006944:	4616      	mov	r6, r2
 8006946:	d505      	bpl.n	8006954 <__swrite+0x1e>
 8006948:	2302      	movs	r3, #2
 800694a:	2200      	movs	r2, #0
 800694c:	f9b1 100e 	ldrsh.w	r1, [r1, #14]
 8006950:	f000 f868 	bl	8006a24 <_lseek_r>
 8006954:	89a3      	ldrh	r3, [r4, #12]
 8006956:	4632      	mov	r2, r6
 8006958:	f423 5380 	bic.w	r3, r3, #4096	; 0x1000
 800695c:	81a3      	strh	r3, [r4, #12]
 800695e:	f9b4 100e 	ldrsh.w	r1, [r4, #14]
 8006962:	463b      	mov	r3, r7
 8006964:	4628      	mov	r0, r5
 8006966:	e8bd 41f0 	ldmia.w	sp!, {r4, r5, r6, r7, r8, lr}
 800696a:	f000 b817 	b.w	800699c <_write_r>

0800696e <__sseek>:
 800696e:	b510      	push	{r4, lr}
 8006970:	460c      	mov	r4, r1
 8006972:	f9b1 100e 	ldrsh.w	r1, [r1, #14]
 8006976:	f000 f855 	bl	8006a24 <_lseek_r>
 800697a:	1c43      	adds	r3, r0, #1
 800697c:	89a3      	ldrh	r3, [r4, #12]
 800697e:	bf15      	itete	ne
 8006980:	6560      	strne	r0, [r4, #84]	; 0x54
 8006982:	f423 5380 	biceq.w	r3, r3, #4096	; 0x1000
 8006986:	f443 5380 	orrne.w	r3, r3, #4096	; 0x1000
 800698a:	81a3      	strheq	r3, [r4, #12]
 800698c:	bf18      	it	ne
 800698e:	81a3      	strhne	r3, [r4, #12]
 8006990:	bd10      	pop	{r4, pc}

08006992 <__sclose>:
 8006992:	f9b1 100e 	ldrsh.w	r1, [r1, #14]
 8006996:	f000 b813 	b.w	80069c0 <_close_r>
	...

0800699c <_write_r>:
 800699c:	b538      	push	{r3, r4, r5, lr}
 800699e:	4605      	mov	r5, r0
 80069a0:	4608      	mov	r0, r1
 80069a2:	4611      	mov	r1, r2
 80069a4:	2200      	movs	r2, #0
 80069a6:	4c05      	ldr	r4, [pc, #20]	; (80069bc <_write_r+0x20>)
 80069a8:	6022      	str	r2, [r4, #0]
 80069aa:	461a      	mov	r2, r3
 80069ac:	f7fd f93e 	bl	8003c2c <_write>
 80069b0:	1c43      	adds	r3, r0, #1
 80069b2:	d102      	bne.n	80069ba <_write_r+0x1e>
 80069b4:	6823      	ldr	r3, [r4, #0]
 80069b6:	b103      	cbz	r3, 80069ba <_write_r+0x1e>
 80069b8:	602b      	str	r3, [r5, #0]
 80069ba:	bd38      	pop	{r3, r4, r5, pc}
 80069bc:	200008d0 	.word	0x200008d0

080069c0 <_close_r>:
 80069c0:	b538      	push	{r3, r4, r5, lr}
 80069c2:	2300      	movs	r3, #0
 80069c4:	4c05      	ldr	r4, [pc, #20]	; (80069dc <_close_r+0x1c>)
 80069c6:	4605      	mov	r5, r0
 80069c8:	4608      	mov	r0, r1
 80069ca:	6023      	str	r3, [r4, #0]
 80069cc:	f7fe fee4 	bl	8005798 <_close>
 80069d0:	1c43      	adds	r3, r0, #1
 80069d2:	d102      	bne.n	80069da <_close_r+0x1a>
 80069d4:	6823      	ldr	r3, [r4, #0]
 80069d6:	b103      	cbz	r3, 80069da <_close_r+0x1a>
 80069d8:	602b      	str	r3, [r5, #0]
 80069da:	bd38      	pop	{r3, r4, r5, pc}
 80069dc:	200008d0 	.word	0x200008d0

080069e0 <_fstat_r>:
 80069e0:	b538      	push	{r3, r4, r5, lr}
 80069e2:	2300      	movs	r3, #0
 80069e4:	4c06      	ldr	r4, [pc, #24]	; (8006a00 <_fstat_r+0x20>)
 80069e6:	4605      	mov	r5, r0
 80069e8:	4608      	mov	r0, r1
 80069ea:	4611      	mov	r1, r2
 80069ec:	6023      	str	r3, [r4, #0]
 80069ee:	f7fe fed6 	bl	800579e <_fstat>
 80069f2:	1c43      	adds	r3, r0, #1
 80069f4:	d102      	bne.n	80069fc <_fstat_r+0x1c>
 80069f6:	6823      	ldr	r3, [r4, #0]
 80069f8:	b103      	cbz	r3, 80069fc <_fstat_r+0x1c>
 80069fa:	602b      	str	r3, [r5, #0]
 80069fc:	bd38      	pop	{r3, r4, r5, pc}
 80069fe:	bf00      	nop
 8006a00:	200008d0 	.word	0x200008d0

08006a04 <_isatty_r>:
 8006a04:	b538      	push	{r3, r4, r5, lr}
 8006a06:	2300      	movs	r3, #0
 8006a08:	4c05      	ldr	r4, [pc, #20]	; (8006a20 <_isatty_r+0x1c>)
 8006a0a:	4605      	mov	r5, r0
 8006a0c:	4608      	mov	r0, r1
 8006a0e:	6023      	str	r3, [r4, #0]
 8006a10:	f7fe feca 	bl	80057a8 <_isatty>
 8006a14:	1c43      	adds	r3, r0, #1
 8006a16:	d102      	bne.n	8006a1e <_isatty_r+0x1a>
 8006a18:	6823      	ldr	r3, [r4, #0]
 8006a1a:	b103      	cbz	r3, 8006a1e <_isatty_r+0x1a>
 8006a1c:	602b      	str	r3, [r5, #0]
 8006a1e:	bd38      	pop	{r3, r4, r5, pc}
 8006a20:	200008d0 	.word	0x200008d0

08006a24 <_lseek_r>:
 8006a24:	b538      	push	{r3, r4, r5, lr}
 8006a26:	4605      	mov	r5, r0
 8006a28:	4608      	mov	r0, r1
 8006a2a:	4611      	mov	r1, r2
 8006a2c:	2200      	movs	r2, #0
 8006a2e:	4c05      	ldr	r4, [pc, #20]	; (8006a44 <_lseek_r+0x20>)
 8006a30:	6022      	str	r2, [r4, #0]
 8006a32:	461a      	mov	r2, r3
 8006a34:	f7fe feba 	bl	80057ac <_lseek>
 8006a38:	1c43      	adds	r3, r0, #1
 8006a3a:	d102      	bne.n	8006a42 <_lseek_r+0x1e>
 8006a3c:	6823      	ldr	r3, [r4, #0]
 8006a3e:	b103      	cbz	r3, 8006a42 <_lseek_r+0x1e>
 8006a40:	602b      	str	r3, [r5, #0]
 8006a42:	bd38      	pop	{r3, r4, r5, pc}
 8006a44:	200008d0 	.word	0x200008d0

08006a48 <memchr>:
 8006a48:	b510      	push	{r4, lr}
 8006a4a:	b2c9      	uxtb	r1, r1
 8006a4c:	4402      	add	r2, r0
 8006a4e:	4290      	cmp	r0, r2
 8006a50:	4603      	mov	r3, r0
 8006a52:	d101      	bne.n	8006a58 <memchr+0x10>
 8006a54:	2000      	movs	r0, #0
 8006a56:	bd10      	pop	{r4, pc}
 8006a58:	781c      	ldrb	r4, [r3, #0]
 8006a5a:	3001      	adds	r0, #1
 8006a5c:	428c      	cmp	r4, r1
 8006a5e:	d1f6      	bne.n	8006a4e <memchr+0x6>
 8006a60:	4618      	mov	r0, r3
 8006a62:	bd10      	pop	{r4, pc}

08006a64 <memmove>:
 8006a64:	4288      	cmp	r0, r1
 8006a66:	b510      	push	{r4, lr}
 8006a68:	eb01 0302 	add.w	r3, r1, r2
 8006a6c:	d803      	bhi.n	8006a76 <memmove+0x12>
 8006a6e:	1e42      	subs	r2, r0, #1
 8006a70:	4299      	cmp	r1, r3
 8006a72:	d10c      	bne.n	8006a8e <memmove+0x2a>
 8006a74:	bd10      	pop	{r4, pc}
 8006a76:	4298      	cmp	r0, r3
 8006a78:	d2f9      	bcs.n	8006a6e <memmove+0xa>
 8006a7a:	1881      	adds	r1, r0, r2
 8006a7c:	1ad2      	subs	r2, r2, r3
 8006a7e:	42d3      	cmn	r3, r2
 8006a80:	d100      	bne.n	8006a84 <memmove+0x20>
 8006a82:	bd10      	pop	{r4, pc}
 8006a84:	f813 4d01 	ldrb.w	r4, [r3, #-1]!
 8006a88:	f801 4d01 	strb.w	r4, [r1, #-1]!
 8006a8c:	e7f7      	b.n	8006a7e <memmove+0x1a>
 8006a8e:	f811 4b01 	ldrb.w	r4, [r1], #1
 8006a92:	f802 4f01 	strb.w	r4, [r2, #1]!
 8006a96:	e7eb      	b.n	8006a70 <memmove+0xc>

08006a98 <__malloc_lock>:
 8006a98:	4770      	bx	lr

08006a9a <__malloc_unlock>:
 8006a9a:	4770      	bx	lr

08006a9c <_realloc_r>:
 8006a9c:	b5f8      	push	{r3, r4, r5, r6, r7, lr}
 8006a9e:	4607      	mov	r7, r0
 8006aa0:	4614      	mov	r4, r2
 8006aa2:	460e      	mov	r6, r1
 8006aa4:	b921      	cbnz	r1, 8006ab0 <_realloc_r+0x14>
 8006aa6:	4611      	mov	r1, r2
 8006aa8:	e8bd 40f8 	ldmia.w	sp!, {r3, r4, r5, r6, r7, lr}
 8006aac:	f7ff ba9e 	b.w	8005fec <_malloc_r>
 8006ab0:	b922      	cbnz	r2, 8006abc <_realloc_r+0x20>
 8006ab2:	f7ff fa4f 	bl	8005f54 <_free_r>
 8006ab6:	4625      	mov	r5, r4
 8006ab8:	4628      	mov	r0, r5
 8006aba:	bdf8      	pop	{r3, r4, r5, r6, r7, pc}
 8006abc:	f000 f826 	bl	8006b0c <_malloc_usable_size_r>
 8006ac0:	4284      	cmp	r4, r0
 8006ac2:	d90f      	bls.n	8006ae4 <_realloc_r+0x48>
 8006ac4:	4621      	mov	r1, r4
 8006ac6:	4638      	mov	r0, r7
 8006ac8:	f7ff fa90 	bl	8005fec <_malloc_r>
 8006acc:	4605      	mov	r5, r0
 8006ace:	2800      	cmp	r0, #0
 8006ad0:	d0f2      	beq.n	8006ab8 <_realloc_r+0x1c>
 8006ad2:	4631      	mov	r1, r6
 8006ad4:	4622      	mov	r2, r4
 8006ad6:	f7fe fee1 	bl	800589c <memcpy>
 8006ada:	4631      	mov	r1, r6
 8006adc:	4638      	mov	r0, r7
 8006ade:	f7ff fa39 	bl	8005f54 <_free_r>
 8006ae2:	e7e9      	b.n	8006ab8 <_realloc_r+0x1c>
 8006ae4:	4635      	mov	r5, r6
 8006ae6:	e7e7      	b.n	8006ab8 <_realloc_r+0x1c>

08006ae8 <_read_r>:
 8006ae8:	b538      	push	{r3, r4, r5, lr}
 8006aea:	4605      	mov	r5, r0
 8006aec:	4608      	mov	r0, r1
 8006aee:	4611      	mov	r1, r2
 8006af0:	2200      	movs	r2, #0
 8006af2:	4c05      	ldr	r4, [pc, #20]	; (8006b08 <_read_r+0x20>)
 8006af4:	6022      	str	r2, [r4, #0]
 8006af6:	461a      	mov	r2, r3
 8006af8:	f7fe fe26 	bl	8005748 <_read>
 8006afc:	1c43      	adds	r3, r0, #1
 8006afe:	d102      	bne.n	8006b06 <_read_r+0x1e>
 8006b00:	6823      	ldr	r3, [r4, #0]
 8006b02:	b103      	cbz	r3, 8006b06 <_read_r+0x1e>
 8006b04:	602b      	str	r3, [r5, #0]
 8006b06:	bd38      	pop	{r3, r4, r5, pc}
 8006b08:	200008d0 	.word	0x200008d0

08006b0c <_malloc_usable_size_r>:
 8006b0c:	f851 0c04 	ldr.w	r0, [r1, #-4]
 8006b10:	2800      	cmp	r0, #0
 8006b12:	f1a0 0004 	sub.w	r0, r0, #4
 8006b16:	bfbc      	itt	lt
 8006b18:	580b      	ldrlt	r3, [r1, r0]
 8006b1a:	18c0      	addlt	r0, r0, r3
 8006b1c:	4770      	bx	lr
	...

08006b20 <_init>:
 8006b20:	b5f8      	push	{r3, r4, r5, r6, r7, lr}
 8006b22:	bf00      	nop
 8006b24:	bcf8      	pop	{r3, r4, r5, r6, r7}
 8006b26:	bc08      	pop	{r3}
 8006b28:	469e      	mov	lr, r3
 8006b2a:	4770      	bx	lr

08006b2c <_fini>:
 8006b2c:	b5f8      	push	{r3, r4, r5, r6, r7, lr}
 8006b2e:	bf00      	nop
 8006b30:	bcf8      	pop	{r3, r4, r5, r6, r7}
 8006b32:	bc08      	pop	{r3}
 8006b34:	469e      	mov	lr, r3
 8006b36:	4770      	bx	lr
